GAS LISTING /tmp/ccNAS7gy.s 			page 1


   1              		.file	"AVLTree.cpp"
   2              		.option pic
   3              		.option norelax
   4              		.text
   5              	.Ltext0:
   6              		.align	2
   7              		.globl	_ZN7AVLTree11findFreeSegEPS_m
   9              	_ZN7AVLTree11findFreeSegEPS_m:
  10              	.LFB4:
  11              		.file 1 "src/AVLTree.cpp"
   1:src/AVLTree.cpp **** //
   2:src/AVLTree.cpp **** // Created by os on 5/1/24.
   3:src/AVLTree.cpp **** //
   4:src/AVLTree.cpp **** 
   5:src/AVLTree.cpp **** #include "../h/AVLTree.h"
   6:src/AVLTree.cpp **** 
   7:src/AVLTree.cpp **** AVLTree* AVLTree::findFreeSeg(AVLTree* root, size_t size) {
  12              		.loc 1 7 59
  13              		.cfi_startproc
  14              	.LVL0:
  15 0000 130101FF 		addi	sp,sp,-16
  16              		.cfi_def_cfa_offset 16
  17 0004 23348100 		sd	s0,8(sp)
  18              		.cfi_offset 8, -8
  19 0008 13040101 		addi	s0,sp,16
  20              		.cfi_def_cfa 8, 0
  21 000c 93070500 		mv	a5,a0
   8:src/AVLTree.cpp ****     AVLTree* cur = root, *BestFit = nullptr;
  22              		.loc 1 8 5
  23              	.LVL1:
  24              		.loc 1 8 27 is_stmt 0
  25 0010 13050000 		li	a0,0
  26              	.LVL2:
  27 0014 6F008000 		j	.L2
  28              	.LVL3:
  29              	.L4:
   9:src/AVLTree.cpp ****     while(cur) {
  10:src/AVLTree.cpp ****         if (cur->sz == size)
  11:src/AVLTree.cpp ****             return cur;
  12:src/AVLTree.cpp ****         if (cur->sz > size) {
  13:src/AVLTree.cpp ****             BestFit = cur; cur = cur->left;
  14:src/AVLTree.cpp ****         } else
  15:src/AVLTree.cpp ****             cur = cur->right;
  30              		.loc 1 15 13 is_stmt 1
  31              		.loc 1 15 17 is_stmt 0
  32 0018 83B78700 		ld	a5,8(a5)
  33              	.LVL4:
  34              	.L2:
   9:src/AVLTree.cpp ****     while(cur) {
  35              		.loc 1 9 5 is_stmt 1
   9:src/AVLTree.cpp ****     while(cur) {
  36              		.loc 1 9 11
  37 001c 63800702 		beqz	a5,.L1
  10:src/AVLTree.cpp ****             return cur;
  38              		.loc 1 10 9
  10:src/AVLTree.cpp ****             return cur;
  39              		.loc 1 10 18 is_stmt 0
GAS LISTING /tmp/ccNAS7gy.s 			page 2


  40 0020 03B78703 		ld	a4,56(a5)
  10:src/AVLTree.cpp ****             return cur;
  41              		.loc 1 10 9
  42 0024 630AB700 		beq	a4,a1,.L6
  12:src/AVLTree.cpp ****             BestFit = cur; cur = cur->left;
  43              		.loc 1 12 9 is_stmt 1
  44 0028 E3F8E5FE 		bleu	a4,a1,.L4
  13:src/AVLTree.cpp ****         } else
  45              		.loc 1 13 13
  46              	.LVL5:
  13:src/AVLTree.cpp ****         } else
  47              		.loc 1 13 28
  13:src/AVLTree.cpp ****         } else
  48              		.loc 1 13 21 is_stmt 0
  49 002c 13850700 		mv	a0,a5
  13:src/AVLTree.cpp ****         } else
  50              		.loc 1 13 32
  51 0030 83B70700 		ld	a5,0(a5)
  52              	.LVL6:
  53 0034 6FF09FFE 		j	.L2
  54              	.L6:
  11:src/AVLTree.cpp ****         if (cur->sz > size) {
  55              		.loc 1 11 20
  56 0038 13850700 		mv	a0,a5
  57              	.LVL7:
  58              	.L1:
  16:src/AVLTree.cpp ****     }
  17:src/AVLTree.cpp ****     return BestFit;
  18:src/AVLTree.cpp **** }
  59              		.loc 1 18 1
  60 003c 03348100 		ld	s0,8(sp)
  61              		.cfi_restore 8
  62              		.cfi_def_cfa 2, 16
  63 0040 13010101 		addi	sp,sp,16
  64              		.cfi_def_cfa_offset 0
  65 0044 67800000 		jr	ra
  66              		.cfi_endproc
  67              	.LFE4:
  69              		.align	2
  70              		.globl	_ZN7AVLTree3maxEPKS_S1_
  72              	_ZN7AVLTree3maxEPKS_S1_:
  73              	.LFB7:
  19:src/AVLTree.cpp **** 
  20:src/AVLTree.cpp **** AVLTree* AVLTree::insert(AVLTree *root, AVLTree *node) {
  21:src/AVLTree.cpp **** 
  22:src/AVLTree.cpp ****     // Performing Insert in BST
  23:src/AVLTree.cpp ****     if (!root) {
  24:src/AVLTree.cpp ****         return node;
  25:src/AVLTree.cpp ****     }
  26:src/AVLTree.cpp **** 
  27:src/AVLTree.cpp ****     AVLTree* cur = root, *prev = nullptr;
  28:src/AVLTree.cpp ****     while(cur) {
  29:src/AVLTree.cpp ****         if (node->sz == cur->sz) {
  30:src/AVLTree.cpp ****             if (cur->sameSizeNext) cur->sameSizeNext->sameSizePrev = node;
  31:src/AVLTree.cpp ****             node->sameSizeNext = cur->sameSizeNext;
  32:src/AVLTree.cpp ****             cur->sameSizeNext = node;
  33:src/AVLTree.cpp ****             node->sameSizePrev = cur;
GAS LISTING /tmp/ccNAS7gy.s 			page 3


  34:src/AVLTree.cpp ****             return root;
  35:src/AVLTree.cpp ****         }
  36:src/AVLTree.cpp ****         prev = cur;
  37:src/AVLTree.cpp ****         if (node->sz > cur->sz)
  38:src/AVLTree.cpp ****             cur = cur->right;
  39:src/AVLTree.cpp ****         else
  40:src/AVLTree.cpp ****             cur = cur->left;
  41:src/AVLTree.cpp ****     }
  42:src/AVLTree.cpp **** 
  43:src/AVLTree.cpp ****     (node->sz > prev->sz ? prev->right : prev->left) = node;
  44:src/AVLTree.cpp ****     node->parent = prev;
  45:src/AVLTree.cpp ****     cur = prev;
  46:src/AVLTree.cpp ****     prev = nullptr;
  47:src/AVLTree.cpp **** 
  48:src/AVLTree.cpp ****     // Iterating through parents and balancing
  49:src/AVLTree.cpp ****     return AVLTree::balance(cur);
  50:src/AVLTree.cpp **** }
  51:src/AVLTree.cpp **** 
  52:src/AVLTree.cpp **** inline int AVLTree::getBalance(AVLTree *node) {
  53:src/AVLTree.cpp ****     return (node && node->right ? 1+node->right->height : 0) - (node && node->left ? 1+node->left->
  54:src/AVLTree.cpp **** }
  55:src/AVLTree.cpp **** 
  56:src/AVLTree.cpp **** int AVLTree::max(const AVLTree *n1, const AVLTree *n2) {
  74              		.loc 1 56 56 is_stmt 1
  75              		.cfi_startproc
  76              	.LVL8:
  77 0048 130101FF 		addi	sp,sp,-16
  78              		.cfi_def_cfa_offset 16
  79 004c 23348100 		sd	s0,8(sp)
  80              		.cfi_offset 8, -8
  81 0050 13040101 		addi	s0,sp,16
  82              		.cfi_def_cfa 8, 0
  57:src/AVLTree.cpp ****     if (!n1 && !n2)
  83              		.loc 1 57 5
  84 0054 63060502 		beqz	a0,.L15
  85              	.L9:
  58:src/AVLTree.cpp ****         return -1;
  59:src/AVLTree.cpp ****     if (!n1 && n2)
  86              		.loc 1 59 5
  87 0058 630A0502 		beqz	a0,.L16
  88              	.L11:
  60:src/AVLTree.cpp ****         return n2->height;
  61:src/AVLTree.cpp ****     if (n1 && !n2)
  89              		.loc 1 61 5
  90 005c 63040500 		beqz	a0,.L12
  91              		.loc 1 61 12 is_stmt 0 discriminator 1
  92 0060 638C0502 		beqz	a1,.L17
  93              	.L12:
  62:src/AVLTree.cpp ****         return n1->height;
  63:src/AVLTree.cpp ****     return (n1->height > n2->height) ? n1->height : n2->height;
  94              		.loc 1 63 5 is_stmt 1
  95              		.loc 1 63 17 is_stmt 0
  96 0064 83270504 		lw	a5,64(a0)
  97              		.loc 1 63 30
  98 0068 03A50504 		lw	a0,64(a1)
  99              	.LVL9:
 100              		.loc 1 63 38
GAS LISTING /tmp/ccNAS7gy.s 			page 4


 101 006c 6354F500 		ble	a5,a0,.L10
 102 0070 13850700 		mv	a0,a5
 103              	.L10:
  64:src/AVLTree.cpp **** }
 104              		.loc 1 64 1
 105 0074 03348100 		ld	s0,8(sp)
 106              		.cfi_remember_state
 107              		.cfi_restore 8
 108              		.cfi_def_cfa 2, 16
 109 0078 13010101 		addi	sp,sp,16
 110              		.cfi_def_cfa_offset 0
 111 007c 67800000 		jr	ra
 112              	.LVL10:
 113              	.L15:
 114              		.cfi_restore_state
  57:src/AVLTree.cpp ****         return -1;
 115              		.loc 1 57 13 discriminator 1
 116 0080 E39C05FC 		bnez	a1,.L9
  58:src/AVLTree.cpp ****     if (!n1 && n2)
 117              		.loc 1 58 17
 118 0084 1305F0FF 		li	a0,-1
 119              	.LVL11:
 120 0088 6FF0DFFE 		j	.L10
 121              	.LVL12:
 122              	.L16:
  59:src/AVLTree.cpp ****         return n2->height;
 123              		.loc 1 59 13 discriminator 1
 124 008c E38805FC 		beqz	a1,.L11
  60:src/AVLTree.cpp ****     if (n1 && !n2)
 125              		.loc 1 60 9 is_stmt 1
  60:src/AVLTree.cpp ****     if (n1 && !n2)
 126              		.loc 1 60 20 is_stmt 0
 127 0090 03A50504 		lw	a0,64(a1)
 128              	.LVL13:
 129 0094 6FF01FFE 		j	.L10
 130              	.LVL14:
 131              	.L17:
  62:src/AVLTree.cpp ****     return (n1->height > n2->height) ? n1->height : n2->height;
 132              		.loc 1 62 9 is_stmt 1
  62:src/AVLTree.cpp ****     return (n1->height > n2->height) ? n1->height : n2->height;
 133              		.loc 1 62 20 is_stmt 0
 134 0098 03250504 		lw	a0,64(a0)
 135              	.LVL15:
 136 009c 6FF09FFD 		j	.L10
 137              		.cfi_endproc
 138              	.LFE7:
 140              		.align	2
 141              		.globl	_ZN7AVLTree13findSuccessorEPS_
 143              	_ZN7AVLTree13findSuccessorEPS_:
 144              	.LFB9:
  65:src/AVLTree.cpp **** 
  66:src/AVLTree.cpp **** inline bool AVLTree::isRightSon(const AVLTree* node) {
  67:src/AVLTree.cpp ****     return (node->parent && node->parent->right == node);
  68:src/AVLTree.cpp **** }
  69:src/AVLTree.cpp **** 
  70:src/AVLTree.cpp **** AVLTree* AVLTree::findSuccessor(AVLTree* node){
 145              		.loc 1 70 47 is_stmt 1
GAS LISTING /tmp/ccNAS7gy.s 			page 5


 146              		.cfi_startproc
 147              	.LVL16:
 148 00a0 130101FF 		addi	sp,sp,-16
 149              		.cfi_def_cfa_offset 16
 150 00a4 23348100 		sd	s0,8(sp)
 151              		.cfi_offset 8, -8
 152 00a8 13040101 		addi	s0,sp,16
 153              		.cfi_def_cfa 8, 0
  71:src/AVLTree.cpp ****     if (!node || !node->right) return nullptr;
 154              		.loc 1 71 5
 155 00ac 630C0500 		beqz	a0,.L18
 156              		.loc 1 71 25 is_stmt 0 discriminator 2
 157 00b0 83378500 		ld	a5,8(a0)
 158              		.loc 1 71 15 discriminator 2
 159 00b4 638E0700 		beqz	a5,.L22
 160              	.L20:
 161              	.LVL17:
  72:src/AVLTree.cpp ****     node = node->right;
  73:src/AVLTree.cpp ****     while(node->left)
 162              		.loc 1 73 5 is_stmt 1
 163              		.loc 1 73 17
 164 00b8 13850700 		mv	a0,a5
 165 00bc 83B70700 		ld	a5,0(a5)
 166              	.LVL18:
 167 00c0 E39C07FE 		bnez	a5,.L20
 168              	.LVL19:
 169              	.L18:
  74:src/AVLTree.cpp ****         node = node->left;
  75:src/AVLTree.cpp ****     return node;
  76:src/AVLTree.cpp **** }
 170              		.loc 1 76 1 is_stmt 0
 171 00c4 03348100 		ld	s0,8(sp)
 172              		.cfi_remember_state
 173              		.cfi_restore 8
 174              		.cfi_def_cfa 2, 16
 175 00c8 13010101 		addi	sp,sp,16
 176              		.cfi_def_cfa_offset 0
 177 00cc 67800000 		jr	ra
 178              	.LVL20:
 179              	.L22:
 180              		.cfi_restore_state
  71:src/AVLTree.cpp ****     node = node->right;
 181              		.loc 1 71 39
 182 00d0 13850700 		mv	a0,a5
 183              	.LVL21:
 184 00d4 6FF01FFF 		j	.L18
 185              		.cfi_endproc
 186              	.LFE9:
 188              		.align	2
 189              		.globl	_ZN7AVLTree13rightRotationEPS_
 191              	_ZN7AVLTree13rightRotationEPS_:
 192              	.LFB10:
  77:src/AVLTree.cpp **** 
  78:src/AVLTree.cpp **** AVLTree* AVLTree::rightRotation(AVLTree *y) {
 193              		.loc 1 78 45 is_stmt 1
 194              		.cfi_startproc
 195              	.LVL22:
GAS LISTING /tmp/ccNAS7gy.s 			page 6


 196 00d8 130101FE 		addi	sp,sp,-32
 197              		.cfi_def_cfa_offset 32
 198 00dc 233C1100 		sd	ra,24(sp)
 199 00e0 23388100 		sd	s0,16(sp)
 200 00e4 23349100 		sd	s1,8(sp)
 201 00e8 23302101 		sd	s2,0(sp)
 202              		.cfi_offset 1, -8
 203              		.cfi_offset 8, -16
 204              		.cfi_offset 9, -24
 205              		.cfi_offset 18, -32
 206 00ec 13040102 		addi	s0,sp,32
 207              		.cfi_def_cfa 8, 0
 208 00f0 93040500 		mv	s1,a0
  79:src/AVLTree.cpp ****     AVLTree* x = y->left;
 209              		.loc 1 79 5
 210              		.loc 1 79 14 is_stmt 0
 211 00f4 03390500 		ld	s2,0(a0)
 212              	.LVL23:
  80:src/AVLTree.cpp ****     AVLTree* t2 = x->right;
 213              		.loc 1 80 5 is_stmt 1
 214              		.loc 1 80 14 is_stmt 0
 215 00f8 83378900 		ld	a5,8(s2)
 216              	.LVL24:
  81:src/AVLTree.cpp **** 
  82:src/AVLTree.cpp ****     x->right = y;
 217              		.loc 1 82 5 is_stmt 1
 218              		.loc 1 82 14 is_stmt 0
 219 00fc 2334A900 		sd	a0,8(s2)
  83:src/AVLTree.cpp ****     y->left = t2;
 220              		.loc 1 83 5 is_stmt 1
 221              		.loc 1 83 13 is_stmt 0
 222 0100 2330F500 		sd	a5,0(a0)
  84:src/AVLTree.cpp **** 
  85:src/AVLTree.cpp ****     x->parent = y->parent;
 223              		.loc 1 85 5 is_stmt 1
 224              		.loc 1 85 20 is_stmt 0
 225 0104 03370501 		ld	a4,16(a0)
 226              		.loc 1 85 15
 227 0108 2338E900 		sd	a4,16(s2)
  86:src/AVLTree.cpp ****     y->parent = x;
 228              		.loc 1 86 5 is_stmt 1
 229              		.loc 1 86 15 is_stmt 0
 230 010c 23382501 		sd	s2,16(a0)
  87:src/AVLTree.cpp ****     if (t2) t2->parent = y;
 231              		.loc 1 87 5 is_stmt 1
 232 0110 63840700 		beqz	a5,.L25
 233              		.loc 1 87 13 discriminator 1
 234              		.loc 1 87 24 is_stmt 0 discriminator 1
 235 0114 23B8A700 		sd	a0,16(a5)
 236              	.LVL25:
 237              	.L25:
  88:src/AVLTree.cpp **** 
  89:src/AVLTree.cpp ****     y->height = 1+max(y->left, y->right);
 238              		.loc 1 89 5 is_stmt 1
 239              		.loc 1 89 22 is_stmt 0
 240 0118 83B58400 		ld	a1,8(s1)
 241 011c 03B50400 		ld	a0,0(s1)
GAS LISTING /tmp/ccNAS7gy.s 			page 7


 242 0120 97000000 		call	_ZN7AVLTree3maxEPKS_S1_
 242      E7800000 
 243              	.LVL26:
 244              		.loc 1 89 18
 245 0128 1B051500 		addiw	a0,a0,1
 246              		.loc 1 89 15
 247 012c 23A0A404 		sw	a0,64(s1)
  90:src/AVLTree.cpp ****     x->height = 1+max(x->left, x->right);
 248              		.loc 1 90 5 is_stmt 1
 249              		.loc 1 90 22 is_stmt 0
 250 0130 83358900 		ld	a1,8(s2)
 251 0134 03350900 		ld	a0,0(s2)
 252 0138 97000000 		call	_ZN7AVLTree3maxEPKS_S1_
 252      E7800000 
 253              	.LVL27:
 254              		.loc 1 90 18
 255 0140 1B051500 		addiw	a0,a0,1
 256              		.loc 1 90 15
 257 0144 2320A904 		sw	a0,64(s2)
  91:src/AVLTree.cpp ****     return x;
 258              		.loc 1 91 5 is_stmt 1
  92:src/AVLTree.cpp **** 
  93:src/AVLTree.cpp **** }
 259              		.loc 1 93 1 is_stmt 0
 260 0148 13050900 		mv	a0,s2
 261 014c 83308101 		ld	ra,24(sp)
 262              		.cfi_restore 1
 263 0150 03340101 		ld	s0,16(sp)
 264              		.cfi_restore 8
 265              		.cfi_def_cfa 2, 32
 266 0154 83348100 		ld	s1,8(sp)
 267              		.cfi_restore 9
 268              	.LVL28:
 269 0158 03390100 		ld	s2,0(sp)
 270              		.cfi_restore 18
 271              	.LVL29:
 272 015c 13010102 		addi	sp,sp,32
 273              		.cfi_def_cfa_offset 0
 274 0160 67800000 		jr	ra
 275              		.cfi_endproc
 276              	.LFE10:
 278              		.align	2
 279              		.globl	_ZN7AVLTree12leftRotationEPS_
 281              	_ZN7AVLTree12leftRotationEPS_:
 282              	.LFB11:
  94:src/AVLTree.cpp **** 
  95:src/AVLTree.cpp **** /*
  96:src/AVLTree.cpp ****          y                    x
  97:src/AVLTree.cpp ****        /  \    RightRot     /  \
  98:src/AVLTree.cpp ****       x   t3   ------->   t1    y
  99:src/AVLTree.cpp ****      / \       <-------        / \
 100:src/AVLTree.cpp ****     t1  t2      LeftRot       t2  t3
 101:src/AVLTree.cpp **** */
 102:src/AVLTree.cpp **** AVLTree* AVLTree::leftRotation(AVLTree *x) {
 283              		.loc 1 102 44 is_stmt 1
 284              		.cfi_startproc
 285              	.LVL30:
GAS LISTING /tmp/ccNAS7gy.s 			page 8


 286 0164 130101FE 		addi	sp,sp,-32
 287              		.cfi_def_cfa_offset 32
 288 0168 233C1100 		sd	ra,24(sp)
 289 016c 23388100 		sd	s0,16(sp)
 290 0170 23349100 		sd	s1,8(sp)
 291 0174 23302101 		sd	s2,0(sp)
 292              		.cfi_offset 1, -8
 293              		.cfi_offset 8, -16
 294              		.cfi_offset 9, -24
 295              		.cfi_offset 18, -32
 296 0178 13040102 		addi	s0,sp,32
 297              		.cfi_def_cfa 8, 0
 298 017c 93040500 		mv	s1,a0
 103:src/AVLTree.cpp ****     AVLTree* y = x->right;
 299              		.loc 1 103 5
 300              		.loc 1 103 14 is_stmt 0
 301 0180 03398500 		ld	s2,8(a0)
 302              	.LVL31:
 104:src/AVLTree.cpp ****     AVLTree* t2 = y->left;
 303              		.loc 1 104 5 is_stmt 1
 304              		.loc 1 104 14 is_stmt 0
 305 0184 83370900 		ld	a5,0(s2)
 306              	.LVL32:
 105:src/AVLTree.cpp **** 
 106:src/AVLTree.cpp ****     y->left = x;
 307              		.loc 1 106 5 is_stmt 1
 308              		.loc 1 106 13 is_stmt 0
 309 0188 2330A900 		sd	a0,0(s2)
 107:src/AVLTree.cpp ****     x->right = t2;
 310              		.loc 1 107 5 is_stmt 1
 311              		.loc 1 107 14 is_stmt 0
 312 018c 2334F500 		sd	a5,8(a0)
 108:src/AVLTree.cpp **** 
 109:src/AVLTree.cpp ****     y->parent = x->parent;
 313              		.loc 1 109 5 is_stmt 1
 314              		.loc 1 109 20 is_stmt 0
 315 0190 03370501 		ld	a4,16(a0)
 316              		.loc 1 109 15
 317 0194 2338E900 		sd	a4,16(s2)
 110:src/AVLTree.cpp ****     x->parent = y;
 318              		.loc 1 110 5 is_stmt 1
 319              		.loc 1 110 15 is_stmt 0
 320 0198 23382501 		sd	s2,16(a0)
 111:src/AVLTree.cpp ****     if (t2) t2->parent = x;
 321              		.loc 1 111 5 is_stmt 1
 322 019c 63840700 		beqz	a5,.L28
 323              		.loc 1 111 13 discriminator 1
 324              		.loc 1 111 24 is_stmt 0 discriminator 1
 325 01a0 23B8A700 		sd	a0,16(a5)
 326              	.LVL33:
 327              	.L28:
 112:src/AVLTree.cpp **** 
 113:src/AVLTree.cpp ****     x->height = 1+max(x->left, x->right);
 328              		.loc 1 113 5 is_stmt 1
 329              		.loc 1 113 22 is_stmt 0
 330 01a4 83B58400 		ld	a1,8(s1)
 331 01a8 03B50400 		ld	a0,0(s1)
GAS LISTING /tmp/ccNAS7gy.s 			page 9


 332 01ac 97000000 		call	_ZN7AVLTree3maxEPKS_S1_
 332      E7800000 
 333              	.LVL34:
 334              		.loc 1 113 18
 335 01b4 1B051500 		addiw	a0,a0,1
 336              		.loc 1 113 15
 337 01b8 23A0A404 		sw	a0,64(s1)
 114:src/AVLTree.cpp ****     y->height = 1+max(y->left, y->right);
 338              		.loc 1 114 5 is_stmt 1
 339              		.loc 1 114 22 is_stmt 0
 340 01bc 83358900 		ld	a1,8(s2)
 341 01c0 03350900 		ld	a0,0(s2)
 342 01c4 97000000 		call	_ZN7AVLTree3maxEPKS_S1_
 342      E7800000 
 343              	.LVL35:
 344              		.loc 1 114 18
 345 01cc 1B051500 		addiw	a0,a0,1
 346              		.loc 1 114 15
 347 01d0 2320A904 		sw	a0,64(s2)
 115:src/AVLTree.cpp **** 
 116:src/AVLTree.cpp **** 
 117:src/AVLTree.cpp ****     return y;
 348              		.loc 1 117 5 is_stmt 1
 118:src/AVLTree.cpp **** }
 349              		.loc 1 118 1 is_stmt 0
 350 01d4 13050900 		mv	a0,s2
 351 01d8 83308101 		ld	ra,24(sp)
 352              		.cfi_restore 1
 353 01dc 03340101 		ld	s0,16(sp)
 354              		.cfi_restore 8
 355              		.cfi_def_cfa 2, 32
 356 01e0 83348100 		ld	s1,8(sp)
 357              		.cfi_restore 9
 358              	.LVL36:
 359 01e4 03390100 		ld	s2,0(sp)
 360              		.cfi_restore 18
 361              	.LVL37:
 362 01e8 13010102 		addi	sp,sp,32
 363              		.cfi_def_cfa_offset 0
 364 01ec 67800000 		jr	ra
 365              		.cfi_endproc
 366              	.LFE11:
 368              		.align	2
 369              		.globl	_ZN7AVLTree8containsEPKS_S1_
 371              	_ZN7AVLTree8containsEPKS_S1_:
 372              	.LFB13:
 119:src/AVLTree.cpp **** 
 120:src/AVLTree.cpp **** AVLTree* AVLTree::remove(AVLTree* root, AVLTree* node) {
 121:src/AVLTree.cpp ****     if (!root) return nullptr;
 122:src/AVLTree.cpp ****     if (!node || !contains(root, node)) return root;
 123:src/AVLTree.cpp **** 
 124:src/AVLTree.cpp ****     if (node->sameSizeNext) {
 125:src/AVLTree.cpp ****         AVLTree* p = node->parent, *l = node->left,
 126:src/AVLTree.cpp ****                 *r = node->right, *sn = node->sameSizeNext, *sp = node->sameSizePrev;
 127:src/AVLTree.cpp ****         // updating towards s
 128:src/AVLTree.cpp ****         if (sp) sp->sameSizeNext = sn;
 129:src/AVLTree.cpp ****         if (p) (isRightSon(node) ? p->right : p->left) = sn;
GAS LISTING /tmp/ccNAS7gy.s 			page 10


 130:src/AVLTree.cpp ****         if (r) r->parent = sn;
 131:src/AVLTree.cpp ****         if (l) l->parent = sn;
 132:src/AVLTree.cpp ****         // updating from s
 133:src/AVLTree.cpp ****         sn->sameSizePrev = sp;
 134:src/AVLTree.cpp ****         sn->right = r;
 135:src/AVLTree.cpp ****         sn->left = l;
 136:src/AVLTree.cpp ****         sn->parent = p;
 137:src/AVLTree.cpp ****         return (p) ? root : sn;
 138:src/AVLTree.cpp ****     }
 139:src/AVLTree.cpp **** 
 140:src/AVLTree.cpp ****     if (node->sameSizePrev) {
 141:src/AVLTree.cpp ****         node->sameSizePrev->sameSizeNext = nullptr;
 142:src/AVLTree.cpp ****         return root;
 143:src/AVLTree.cpp ****     }
 144:src/AVLTree.cpp **** 
 145:src/AVLTree.cpp ****     AVLTree* updateFrom;
 146:src/AVLTree.cpp **** 
 147:src/AVLTree.cpp ****     if (!node->left && !node->right) { // no children
 148:src/AVLTree.cpp ****         updateFrom = node->parent;
 149:src/AVLTree.cpp ****         if (node != root) (isRightSon(node) ? node->parent->right : node->parent->left) = nullptr;
 150:src/AVLTree.cpp ****     } else if (!node->left || !node->right) { // one child
 151:src/AVLTree.cpp ****         updateFrom = node->parent;
 152:src/AVLTree.cpp ****         if (node == root) {updateFrom = (node->left) ? node->left : node->right; updateFrom->parent
 153:src/AVLTree.cpp ****         if (node != root) (isRightSon(node) ? node->parent->right : node->parent->left) = ((node->r
 154:src/AVLTree.cpp ****     } else { //two children
 155:src/AVLTree.cpp ****         AVLTree* swap = findSuccessor(node);
 156:src/AVLTree.cpp **** 
 157:src/AVLTree.cpp **** 
 158:src/AVLTree.cpp ****         if (swap == node->right) {
 159:src/AVLTree.cpp ****             updateFrom = swap;
 160:src/AVLTree.cpp ****             if (node != root) (isRightSon(node) ? node->parent->right : node->parent->left) = swap;
 161:src/AVLTree.cpp ****             node->right->parent = nullptr;
 162:src/AVLTree.cpp ****             node->left->parent = swap;
 163:src/AVLTree.cpp **** 
 164:src/AVLTree.cpp ****             swap->left = node->left;
 165:src/AVLTree.cpp ****             swap->parent = node->parent;
 166:src/AVLTree.cpp ****             // no change to swap->right
 167:src/AVLTree.cpp ****         } else {
 168:src/AVLTree.cpp ****             updateFrom = swap->parent; // updating starts from swapped node
 169:src/AVLTree.cpp ****             if (node != root) (isRightSon(node) ? node->parent->right : node->parent->left) = swap;
 170:src/AVLTree.cpp ****             node->left->parent = swap;
 171:src/AVLTree.cpp ****             node->right->parent = swap;
 172:src/AVLTree.cpp **** 
 173:src/AVLTree.cpp ****             swap->parent->left = swap->right;
 174:src/AVLTree.cpp ****             if (swap->right) swap->right->parent = swap->parent;
 175:src/AVLTree.cpp **** 
 176:src/AVLTree.cpp ****             swap->left = node->left;
 177:src/AVLTree.cpp ****             swap->right = node->right;
 178:src/AVLTree.cpp ****             swap->parent = node->parent;
 179:src/AVLTree.cpp ****         }
 180:src/AVLTree.cpp ****     }
 181:src/AVLTree.cpp **** 
 182:src/AVLTree.cpp ****     // Perform balancing
 183:src/AVLTree.cpp ****     return AVLTree::balance(updateFrom);
 184:src/AVLTree.cpp **** }
 185:src/AVLTree.cpp **** 
 186:src/AVLTree.cpp **** bool AVLTree::contains(const AVLTree* root, const AVLTree* node) {
GAS LISTING /tmp/ccNAS7gy.s 			page 11


 373              		.loc 1 186 66 is_stmt 1
 374              		.cfi_startproc
 375              	.LVL38:
 376 01f0 130101FF 		addi	sp,sp,-16
 377              		.cfi_def_cfa_offset 16
 378 01f4 23348100 		sd	s0,8(sp)
 379              		.cfi_offset 8, -8
 380 01f8 13040101 		addi	s0,sp,16
 381              		.cfi_def_cfa 8, 0
 382 01fc 6F008000 		j	.L31
 383              	.LVL39:
 384              	.L39:
 187:src/AVLTree.cpp ****     const AVLTree* cur = root;
 188:src/AVLTree.cpp ****     while(cur) {
 189:src/AVLTree.cpp ****         if (cur == node)
 190:src/AVLTree.cpp ****             return true;
 191:src/AVLTree.cpp **** 
 192:src/AVLTree.cpp ****         if (cur->sz == node->sz)
 193:src/AVLTree.cpp ****             cur = cur->sameSizeNext;
 385              		.loc 1 193 13
 386              		.loc 1 193 17 is_stmt 0
 387 0200 03358501 		ld	a0,24(a0)
 388              	.LVL40:
 389              	.L31:
 188:src/AVLTree.cpp ****         if (cur == node)
 390              		.loc 1 188 5 is_stmt 1
 188:src/AVLTree.cpp ****         if (cur == node)
 391              		.loc 1 188 11
 392 0204 63040502 		beqz	a0,.L36
 189:src/AVLTree.cpp ****             return true;
 393              		.loc 1 189 9
 394 0208 630AB502 		beq	a0,a1,.L37
 192:src/AVLTree.cpp ****             cur = cur->sameSizeNext;
 395              		.loc 1 192 9
 192:src/AVLTree.cpp ****             cur = cur->sameSizeNext;
 396              		.loc 1 192 18 is_stmt 0
 397 020c 03378503 		ld	a4,56(a0)
 192:src/AVLTree.cpp ****             cur = cur->sameSizeNext;
 398              		.loc 1 192 30
 399 0210 83B78503 		ld	a5,56(a1)
 192:src/AVLTree.cpp ****             cur = cur->sameSizeNext;
 400              		.loc 1 192 9
 401 0214 E306F7FE 		beq	a4,a5,.L39
 194:src/AVLTree.cpp ****         else if (cur->sz < node->sz)
 402              		.loc 1 194 14 is_stmt 1
 403 0218 6376F700 		bgeu	a4,a5,.L35
 195:src/AVLTree.cpp ****             cur = cur->right;
 404              		.loc 1 195 13
 405              		.loc 1 195 17 is_stmt 0
 406 021c 03358500 		ld	a0,8(a0)
 407              	.LVL41:
 408 0220 6FF05FFE 		j	.L31
 409              	.L35:
 196:src/AVLTree.cpp ****         else
 197:src/AVLTree.cpp ****             cur = cur->left;
 410              		.loc 1 197 13 is_stmt 1
 411              		.loc 1 197 17 is_stmt 0
GAS LISTING /tmp/ccNAS7gy.s 			page 12


 412 0224 03350500 		ld	a0,0(a0)
 413              	.LVL42:
 414 0228 6FF0DFFD 		j	.L31
 415              	.L36:
 198:src/AVLTree.cpp ****     }
 199:src/AVLTree.cpp **** 
 200:src/AVLTree.cpp ****     return false;
 416              		.loc 1 200 12
 417 022c 13050000 		li	a0,0
 418              	.LVL43:
 419              	.L32:
 201:src/AVLTree.cpp **** }
 420              		.loc 1 201 1
 421 0230 03348100 		ld	s0,8(sp)
 422              		.cfi_remember_state
 423              		.cfi_restore 8
 424              		.cfi_def_cfa 2, 16
 425 0234 13010101 		addi	sp,sp,16
 426              		.cfi_def_cfa_offset 0
 427 0238 67800000 		jr	ra
 428              	.LVL44:
 429              	.L37:
 430              		.cfi_restore_state
 190:src/AVLTree.cpp **** 
 431              		.loc 1 190 20
 432 023c 13051000 		li	a0,1
 433              	.LVL45:
 434 0240 6FF01FFF 		j	.L32
 435              		.cfi_endproc
 436              	.LFE13:
 438              		.align	2
 439              		.globl	_ZN7AVLTree7balanceEPS_
 441              	_ZN7AVLTree7balanceEPS_:
 442              	.LFB14:
 202:src/AVLTree.cpp **** 
 203:src/AVLTree.cpp **** AVLTree* AVLTree::balance(AVLTree* cur) {
 443              		.loc 1 203 41 is_stmt 1
 444              		.cfi_startproc
 445              	.LVL46:
 446 0244 130101FC 		addi	sp,sp,-64
 447              		.cfi_def_cfa_offset 64
 448 0248 233C1102 		sd	ra,56(sp)
 449 024c 23388102 		sd	s0,48(sp)
 450 0250 23349102 		sd	s1,40(sp)
 451 0254 23302103 		sd	s2,32(sp)
 452 0258 233C3101 		sd	s3,24(sp)
 453 025c 23384101 		sd	s4,16(sp)
 454 0260 23345101 		sd	s5,8(sp)
 455 0264 23306101 		sd	s6,0(sp)
 456              		.cfi_offset 1, -8
 457              		.cfi_offset 8, -16
 458              		.cfi_offset 9, -24
 459              		.cfi_offset 18, -32
 460              		.cfi_offset 19, -40
 461              		.cfi_offset 20, -48
 462              		.cfi_offset 21, -56
 463              		.cfi_offset 22, -64
GAS LISTING /tmp/ccNAS7gy.s 			page 13


 464 0268 13040104 		addi	s0,sp,64
 465              		.cfi_def_cfa 8, 0
 466 026c 93040500 		mv	s1,a0
 204:src/AVLTree.cpp ****     AVLTree* prev = nullptr;
 467              		.loc 1 204 5
 468              	.LVL47:
 469              		.loc 1 204 14 is_stmt 0
 470 0270 13090000 		li	s2,0
 471 0274 6F00000E 		j	.L56
 472              	.LVL48:
 473              	.L57:
 474              	.LBB22:
 475              	.LBB23:
 476              	.LBB24:
  53:src/AVLTree.cpp **** }
 477              		.loc 1 53 33
 478 0278 93090000 		li	s3,0
 479 027c 6F008010 		j	.L42
 480              	.L58:
  53:src/AVLTree.cpp **** }
 481              		.loc 1 53 84
 482 0280 93070000 		li	a5,0
 483 0284 6F00C010 		j	.L43
 484              	.LVL49:
 485              	.L59:
 486              	.LBE24:
 487              	.LBE23:
 488              	.LBB26:
 489              	.LBB27:
  53:src/AVLTree.cpp **** }
 490              		.loc 1 53 33
 491 0288 130A0000 		li	s4,0
 492 028c 6F000012 		j	.L44
 493              	.L60:
 494 0290 130A0000 		li	s4,0
 495 0294 6F008011 		j	.L44
 496              	.L61:
  53:src/AVLTree.cpp **** }
 497              		.loc 1 53 84
 498 0298 93070000 		li	a5,0
 499 029c 6F004012 		j	.L45
 500              	.L62:
 501 02a0 93070000 		li	a5,0
 502 02a4 6F00C011 		j	.L45
 503              	.LVL50:
 504              	.L65:
 505              	.LBE27:
 506              	.LBE26:
 205:src/AVLTree.cpp ****     while(cur) {
 206:src/AVLTree.cpp ****         cur->height = 1 + max(cur->left, cur->right);
 207:src/AVLTree.cpp ****         int curBalance = AVLTree::getBalance(cur);
 208:src/AVLTree.cpp ****         int prevBalance = AVLTree::getBalance(prev);
 209:src/AVLTree.cpp **** 
 210:src/AVLTree.cpp ****         AVLTree* oldCurParent = cur->parent;
 211:src/AVLTree.cpp **** 
 212:src/AVLTree.cpp ****         if (curBalance < -1 && prevBalance * curBalance < 0) {
 507              		.loc 1 212 44 discriminator 1
GAS LISTING /tmp/ccNAS7gy.s 			page 14


 508 02a8 BB073A03 		mulw	a5,s4,s3
 509              		.loc 1 212 29 discriminator 1
 510 02ac 63D20712 		bgez	a5,.L46
 213:src/AVLTree.cpp ****             prev = AVLTree::leftRotation(prev);
 511              		.loc 1 213 13 is_stmt 1
 512              		.loc 1 213 41 is_stmt 0
 513 02b0 13050900 		mv	a0,s2
 514 02b4 97000000 		call	_ZN7AVLTree12leftRotationEPS_
 514      E7800000 
 515              	.LVL51:
 516 02bc 13090500 		mv	s2,a0
 517              	.LVL52:
 214:src/AVLTree.cpp ****             ((cur->sz < prev->sz) ? cur->right : cur->left) = prev;
 518              		.loc 1 214 13 is_stmt 1
 519              		.loc 1 214 20 is_stmt 0
 520 02c0 03B78403 		ld	a4,56(s1)
 521              		.loc 1 214 31
 522 02c4 83378503 		ld	a5,56(a0)
 523              		.loc 1 214 61
 524 02c8 637EF700 		bgeu	a4,a5,.L47
 525              		.loc 1 214 61 discriminator 1
 526 02cc 23B4A400 		sd	a0,8(s1)
 527              	.L48:
 215:src/AVLTree.cpp ****             cur = AVLTree::rightRotation(cur);
 528              		.loc 1 215 13 is_stmt 1
 529              		.loc 1 215 41 is_stmt 0
 530 02d0 13850400 		mv	a0,s1
 531              	.LVL53:
 532 02d4 97000000 		call	_ZN7AVLTree13rightRotationEPS_
 532      E7800000 
 533              	.LVL54:
 534 02dc 93040500 		mv	s1,a0
 535              	.LVL55:
 536              		.loc 1 215 17
 537 02e0 6F00800F 		j	.L49
 538              	.LVL56:
 539              	.L47:
 214:src/AVLTree.cpp ****             ((cur->sz < prev->sz) ? cur->right : cur->left) = prev;
 540              		.loc 1 214 61 discriminator 2
 541 02e4 23B0A400 		sd	a0,0(s1)
 542 02e8 6FF09FFE 		j	.L48
 543              	.LVL57:
 544              	.L66:
 216:src/AVLTree.cpp ****         }else if (curBalance < -1) {
 217:src/AVLTree.cpp ****             cur = AVLTree::rightRotation(cur);
 545              		.loc 1 217 13 is_stmt 1
 546              		.loc 1 217 41 is_stmt 0
 547 02ec 13850400 		mv	a0,s1
 548 02f0 97000000 		call	_ZN7AVLTree13rightRotationEPS_
 548      E7800000 
 549              	.LVL58:
 550 02f8 93040500 		mv	s1,a0
 551              	.LVL59:
 552 02fc 6F00C00D 		j	.L49
 553              	.LVL60:
 554              	.L67:
 218:src/AVLTree.cpp ****         }
GAS LISTING /tmp/ccNAS7gy.s 			page 15


 219:src/AVLTree.cpp ****         if (curBalance > 1 && prevBalance * curBalance < 0) {
 220:src/AVLTree.cpp ****             prev = AVLTree::rightRotation(prev);
 555              		.loc 1 220 13 is_stmt 1
 556              		.loc 1 220 42 is_stmt 0
 557 0300 13050900 		mv	a0,s2
 558 0304 97000000 		call	_ZN7AVLTree13rightRotationEPS_
 558      E7800000 
 559              	.LVL61:
 221:src/AVLTree.cpp ****             ((cur->sz < prev->sz) ? cur->right : cur->left) = prev;
 560              		.loc 1 221 13 is_stmt 1
 561              		.loc 1 221 20 is_stmt 0
 562 030c 03B78403 		ld	a4,56(s1)
 563              		.loc 1 221 31
 564 0310 83378503 		ld	a5,56(a0)
 565              		.loc 1 221 61
 566 0314 637EF700 		bgeu	a4,a5,.L51
 567              		.loc 1 221 61 discriminator 1
 568 0318 23B4A400 		sd	a0,8(s1)
 569              	.L52:
 222:src/AVLTree.cpp ****             cur = AVLTree::leftRotation(cur);
 570              		.loc 1 222 13 is_stmt 1
 571              		.loc 1 222 40 is_stmt 0
 572 031c 13850400 		mv	a0,s1
 573              	.LVL62:
 574 0320 97000000 		call	_ZN7AVLTree12leftRotationEPS_
 574      E7800000 
 575              	.LVL63:
 576 0328 13090500 		mv	s2,a0
 577              	.LVL64:
 578              		.loc 1 222 17
 579 032c 6F00800C 		j	.L53
 580              	.LVL65:
 581              	.L51:
 221:src/AVLTree.cpp ****             ((cur->sz < prev->sz) ? cur->right : cur->left) = prev;
 582              		.loc 1 221 61 discriminator 2
 583 0330 23B0A400 		sd	a0,0(s1)
 584 0334 6FF09FFE 		j	.L52
 585              	.LVL66:
 586              	.L68:
 223:src/AVLTree.cpp ****         }else if (curBalance > 1) {
 224:src/AVLTree.cpp ****             cur = AVLTree::leftRotation(cur);
 587              		.loc 1 224 13 is_stmt 1
 588              		.loc 1 224 40 is_stmt 0
 589 0338 13850400 		mv	a0,s1
 590 033c 97000000 		call	_ZN7AVLTree12leftRotationEPS_
 590      E7800000 
 591              	.LVL67:
 592 0344 13090500 		mv	s2,a0
 593              	.LVL68:
 594 0348 6F00C00A 		j	.L53
 595              	.LVL69:
 596              	.L55:
 225:src/AVLTree.cpp ****         }
 226:src/AVLTree.cpp **** 
 227:src/AVLTree.cpp ****         if (oldCurParent) ((oldCurParent->sz < cur->sz) ? oldCurParent->right : oldCurParent->left)
 597              		.loc 1 227 101 discriminator 3
 598 034c 23302B01 		sd	s2,0(s6)
GAS LISTING /tmp/ccNAS7gy.s 			page 16


 599              	.L54:
 228:src/AVLTree.cpp **** 
 229:src/AVLTree.cpp ****         prev = cur;
 600              		.loc 1 229 9 is_stmt 1
 601              	.LVL70:
 230:src/AVLTree.cpp ****         cur = cur->parent;
 602              		.loc 1 230 9
 603              		.loc 1 230 13 is_stmt 0
 604 0350 83340901 		ld	s1,16(s2)
 605              	.LVL71:
 606              	.L56:
 607              	.LBE22:
 205:src/AVLTree.cpp ****         cur->height = 1 + max(cur->left, cur->right);
 608              		.loc 1 205 5 is_stmt 1
 205:src/AVLTree.cpp ****         cur->height = 1 + max(cur->left, cur->right);
 609              		.loc 1 205 11
 610 0354 638C040A 		beqz	s1,.L40
 611              	.LBB31:
 206:src/AVLTree.cpp ****         int curBalance = AVLTree::getBalance(cur);
 612              		.loc 1 206 9
 206:src/AVLTree.cpp ****         int curBalance = AVLTree::getBalance(cur);
 613              		.loc 1 206 36 is_stmt 0
 614 0358 03BA0400 		ld	s4,0(s1)
 206:src/AVLTree.cpp ****         int curBalance = AVLTree::getBalance(cur);
 615              		.loc 1 206 47
 616 035c 83B98400 		ld	s3,8(s1)
 206:src/AVLTree.cpp ****         int curBalance = AVLTree::getBalance(cur);
 617              		.loc 1 206 30
 618 0360 93850900 		mv	a1,s3
 619 0364 13050A00 		mv	a0,s4
 620 0368 97000000 		call	_ZN7AVLTree3maxEPKS_S1_
 620      E7800000 
 621              	.LVL72:
 206:src/AVLTree.cpp ****         int curBalance = AVLTree::getBalance(cur);
 622              		.loc 1 206 25
 623 0370 1B051500 		addiw	a0,a0,1
 206:src/AVLTree.cpp ****         int curBalance = AVLTree::getBalance(cur);
 624              		.loc 1 206 21
 625 0374 23A0A404 		sw	a0,64(s1)
 207:src/AVLTree.cpp ****         int prevBalance = AVLTree::getBalance(prev);
 626              		.loc 1 207 9 is_stmt 1
 627              	.LVL73:
 628              	.LBB29:
 629              	.LBB25:
  53:src/AVLTree.cpp **** }
 630              		.loc 1 53 5
  53:src/AVLTree.cpp **** }
 631              		.loc 1 53 18 is_stmt 0
 632 0378 E38009F0 		beqz	s3,.L57
  53:src/AVLTree.cpp **** }
 633              		.loc 1 53 50
 634 037c 83A90904 		lw	s3,64(s3)
  53:src/AVLTree.cpp **** }
 635              		.loc 1 53 33
 636 0380 9B891900 		addiw	s3,s3,1
 637              	.L42:
  53:src/AVLTree.cpp **** }
GAS LISTING /tmp/ccNAS7gy.s 			page 17


 638              		.loc 1 53 70
 639 0384 E30E0AEE 		beqz	s4,.L58
  53:src/AVLTree.cpp **** }
 640              		.loc 1 53 100
 641 0388 83270A04 		lw	a5,64(s4)
  53:src/AVLTree.cpp **** }
 642              		.loc 1 53 84
 643 038c 9B871700 		addiw	a5,a5,1
 644              	.L43:
  53:src/AVLTree.cpp **** }
 645              		.loc 1 53 110
 646 0390 BB89F940 		subw	s3,s3,a5
 647 0394 9B8A0900 		sext.w	s5,s3
 648              	.LVL74:
 649              	.LBE25:
 650              	.LBE29:
 208:src/AVLTree.cpp **** 
 651              		.loc 1 208 9 is_stmt 1
 652              	.LBB30:
 653              	.LBB28:
  53:src/AVLTree.cpp **** }
 654              		.loc 1 53 5
  53:src/AVLTree.cpp **** }
 655              		.loc 1 53 33 is_stmt 0
 656 0398 E30809EE 		beqz	s2,.L59
  53:src/AVLTree.cpp **** }
 657              		.loc 1 53 27
 658 039c 83378900 		ld	a5,8(s2)
  53:src/AVLTree.cpp **** }
 659              		.loc 1 53 18
 660 03a0 E38807EE 		beqz	a5,.L60
  53:src/AVLTree.cpp **** }
 661              		.loc 1 53 50
 662 03a4 03AA0704 		lw	s4,64(a5)
  53:src/AVLTree.cpp **** }
 663              		.loc 1 53 33
 664 03a8 1B0A1A00 		addiw	s4,s4,1
 665              	.L44:
  53:src/AVLTree.cpp **** }
 666              		.loc 1 53 84
 667 03ac E30609EE 		beqz	s2,.L61
  53:src/AVLTree.cpp **** }
 668              		.loc 1 53 79
 669 03b0 83370900 		ld	a5,0(s2)
  53:src/AVLTree.cpp **** }
 670              		.loc 1 53 70
 671 03b4 E38607EE 		beqz	a5,.L62
  53:src/AVLTree.cpp **** }
 672              		.loc 1 53 100
 673 03b8 83A70704 		lw	a5,64(a5)
  53:src/AVLTree.cpp **** }
 674              		.loc 1 53 84
 675 03bc 9B871700 		addiw	a5,a5,1
 676              	.L45:
  53:src/AVLTree.cpp **** }
 677              		.loc 1 53 110
 678 03c0 3B0AFA40 		subw	s4,s4,a5
GAS LISTING /tmp/ccNAS7gy.s 			page 18


 679              	.LVL75:
 680              	.LBE28:
 681              	.LBE30:
 210:src/AVLTree.cpp **** 
 682              		.loc 1 210 9 is_stmt 1
 210:src/AVLTree.cpp **** 
 683              		.loc 1 210 18 is_stmt 0
 684 03c4 03BB0401 		ld	s6,16(s1)
 685              	.LVL76:
 212:src/AVLTree.cpp ****             prev = AVLTree::leftRotation(prev);
 686              		.loc 1 212 9 is_stmt 1
 687 03c8 9307F0FF 		li	a5,-1
 688 03cc E3CEFAEC 		blt	s5,a5,.L65
 689              	.L46:
 216:src/AVLTree.cpp ****             cur = AVLTree::rightRotation(cur);
 690              		.loc 1 216 15
 691 03d0 9307F0FF 		li	a5,-1
 692 03d4 E3CCFAF0 		blt	s5,a5,.L66
 693              	.L49:
 219:src/AVLTree.cpp ****             prev = AVLTree::rightRotation(prev);
 694              		.loc 1 219 9
 695 03d8 93071000 		li	a5,1
 696 03dc 63D65701 		ble	s5,a5,.L50
 219:src/AVLTree.cpp ****             prev = AVLTree::rightRotation(prev);
 697              		.loc 1 219 43 is_stmt 0 discriminator 1
 698 03e0 BB093A03 		mulw	s3,s4,s3
 699              	.LVL77:
 219:src/AVLTree.cpp ****             prev = AVLTree::rightRotation(prev);
 700              		.loc 1 219 28 discriminator 1
 701 03e4 E3CE09F0 		bltz	s3,.L67
 702              	.L50:
 223:src/AVLTree.cpp ****             cur = AVLTree::leftRotation(cur);
 703              		.loc 1 223 15 is_stmt 1
 704 03e8 93071000 		li	a5,1
 705 03ec E3C657F5 		bgt	s5,a5,.L68
 706 03f0 13890400 		mv	s2,s1
 707              	.LVL78:
 708              	.L53:
 227:src/AVLTree.cpp **** 
 709              		.loc 1 227 9
 710 03f4 E30E0BF4 		beqz	s6,.L54
 227:src/AVLTree.cpp **** 
 711              		.loc 1 227 27 discriminator 1
 227:src/AVLTree.cpp **** 
 712              		.loc 1 227 43 is_stmt 0 discriminator 1
 713 03f8 03378B03 		ld	a4,56(s6)
 227:src/AVLTree.cpp **** 
 714              		.loc 1 227 53 discriminator 1
 715 03fc 83378903 		ld	a5,56(s2)
 227:src/AVLTree.cpp **** 
 716              		.loc 1 227 101 discriminator 1
 717 0400 E376F7F4 		bgeu	a4,a5,.L55
 227:src/AVLTree.cpp **** 
 718              		.loc 1 227 101 discriminator 2
 719 0404 23342B01 		sd	s2,8(s6)
 720 0408 6FF09FF4 		j	.L54
 721              	.LVL79:
GAS LISTING /tmp/ccNAS7gy.s 			page 19


 722              	.L40:
 723              	.LBE31:
 231:src/AVLTree.cpp ****     }
 232:src/AVLTree.cpp ****     return prev;
 233:src/AVLTree.cpp **** }
 724              		.loc 1 233 1
 725 040c 13050900 		mv	a0,s2
 726 0410 83308103 		ld	ra,56(sp)
 727              		.cfi_restore 1
 728 0414 03340103 		ld	s0,48(sp)
 729              		.cfi_restore 8
 730              		.cfi_def_cfa 2, 64
 731 0418 83348102 		ld	s1,40(sp)
 732              		.cfi_restore 9
 733              	.LVL80:
 734 041c 03390102 		ld	s2,32(sp)
 735              		.cfi_restore 18
 736              	.LVL81:
 737 0420 83398101 		ld	s3,24(sp)
 738              		.cfi_restore 19
 739 0424 033A0101 		ld	s4,16(sp)
 740              		.cfi_restore 20
 741 0428 833A8100 		ld	s5,8(sp)
 742              		.cfi_restore 21
 743 042c 033B0100 		ld	s6,0(sp)
 744              		.cfi_restore 22
 745 0430 13010104 		addi	sp,sp,64
 746              		.cfi_def_cfa_offset 0
 747 0434 67800000 		jr	ra
 748              		.cfi_endproc
 749              	.LFE14:
 751              		.align	2
 752              		.globl	_ZN7AVLTree6insertEPS_S0_
 754              	_ZN7AVLTree6insertEPS_S0_:
 755              	.LFB5:
  20:src/AVLTree.cpp **** 
 756              		.loc 1 20 56 is_stmt 1
 757              		.cfi_startproc
 758              	.LVL82:
  23:src/AVLTree.cpp ****         return node;
 759              		.loc 1 23 5
 760 0438 6302050A 		beqz	a0,.L79
 761 043c 13060500 		mv	a2,a0
  27:src/AVLTree.cpp ****     while(cur) {
 762              		.loc 1 27 14 is_stmt 0
 763 0440 93070500 		mv	a5,a0
  27:src/AVLTree.cpp ****     while(cur) {
 764              		.loc 1 27 27
 765 0444 13050000 		li	a0,0
 766              	.LVL83:
 767 0448 6F004003 		j	.L71
 768              	.LVL84:
 769              	.L83:
  30:src/AVLTree.cpp ****             node->sameSizeNext = cur->sameSizeNext;
 770              		.loc 1 30 13 is_stmt 1
  30:src/AVLTree.cpp ****             node->sameSizeNext = cur->sameSizeNext;
 771              		.loc 1 30 22 is_stmt 0
GAS LISTING /tmp/ccNAS7gy.s 			page 20


 772 044c 03B78701 		ld	a4,24(a5)
  30:src/AVLTree.cpp ****             node->sameSizeNext = cur->sameSizeNext;
 773              		.loc 1 30 13
 774 0450 63040700 		beqz	a4,.L74
  30:src/AVLTree.cpp ****             node->sameSizeNext = cur->sameSizeNext;
 775              		.loc 1 30 36 is_stmt 1 discriminator 1
  30:src/AVLTree.cpp ****             node->sameSizeNext = cur->sameSizeNext;
 776              		.loc 1 30 68 is_stmt 0 discriminator 1
 777 0454 2330B702 		sd	a1,32(a4)
 778              	.L74:
  31:src/AVLTree.cpp ****             cur->sameSizeNext = node;
 779              		.loc 1 31 13 is_stmt 1
  31:src/AVLTree.cpp ****             cur->sameSizeNext = node;
 780              		.loc 1 31 39 is_stmt 0
 781 0458 03B78701 		ld	a4,24(a5)
  31:src/AVLTree.cpp ****             cur->sameSizeNext = node;
 782              		.loc 1 31 32
 783 045c 23BCE500 		sd	a4,24(a1)
  32:src/AVLTree.cpp ****             node->sameSizePrev = cur;
 784              		.loc 1 32 13 is_stmt 1
  32:src/AVLTree.cpp ****             node->sameSizePrev = cur;
 785              		.loc 1 32 31 is_stmt 0
 786 0460 23BCB700 		sd	a1,24(a5)
  33:src/AVLTree.cpp ****             return root;
 787              		.loc 1 33 13 is_stmt 1
  33:src/AVLTree.cpp ****             return root;
 788              		.loc 1 33 32 is_stmt 0
 789 0464 23B0F502 		sd	a5,32(a1)
  34:src/AVLTree.cpp ****         }
 790              		.loc 1 34 13 is_stmt 1
  34:src/AVLTree.cpp ****         }
 791              		.loc 1 34 20 is_stmt 0
 792 0468 13050600 		mv	a0,a2
 793              	.LVL85:
 794 046c 67800000 		ret
 795              	.LVL86:
 796              	.L75:
  40:src/AVLTree.cpp ****     }
 797              		.loc 1 40 13 is_stmt 1
  40:src/AVLTree.cpp ****     }
 798              		.loc 1 40 17 is_stmt 0
 799 0470 03B70700 		ld	a4,0(a5)
 800              	.LVL87:
 801              	.L76:
  20:src/AVLTree.cpp **** 
 802              		.loc 1 20 56
 803 0474 13850700 		mv	a0,a5
 804 0478 93070700 		mv	a5,a4
 805              	.LVL88:
 806              	.L71:
  28:src/AVLTree.cpp ****         if (node->sz == cur->sz) {
 807              		.loc 1 28 5 is_stmt 1
  28:src/AVLTree.cpp ****         if (node->sz == cur->sz) {
 808              		.loc 1 28 11
 809 047c 638E0700 		beqz	a5,.L72
  29:src/AVLTree.cpp ****             if (cur->sameSizeNext) cur->sameSizeNext->sameSizePrev = node;
 810              		.loc 1 29 9
GAS LISTING /tmp/ccNAS7gy.s 			page 21


  29:src/AVLTree.cpp ****             if (cur->sameSizeNext) cur->sameSizeNext->sameSizePrev = node;
 811              		.loc 1 29 19 is_stmt 0
 812 0480 83B68503 		ld	a3,56(a1)
  29:src/AVLTree.cpp ****             if (cur->sameSizeNext) cur->sameSizeNext->sameSizePrev = node;
 813              		.loc 1 29 30
 814 0484 03B78703 		ld	a4,56(a5)
  29:src/AVLTree.cpp ****             if (cur->sameSizeNext) cur->sameSizeNext->sameSizePrev = node;
 815              		.loc 1 29 9
 816 0488 E382E6FC 		beq	a3,a4,.L83
  36:src/AVLTree.cpp ****         if (node->sz > cur->sz)
 817              		.loc 1 36 9 is_stmt 1
 818              	.LVL89:
  37:src/AVLTree.cpp ****             cur = cur->right;
 819              		.loc 1 37 9
 820 048c E372D7FE 		bleu	a3,a4,.L75
  38:src/AVLTree.cpp ****         else
 821              		.loc 1 38 13
  38:src/AVLTree.cpp ****         else
 822              		.loc 1 38 17 is_stmt 0
 823 0490 03B78700 		ld	a4,8(a5)
 824              	.LVL90:
 825 0494 6FF01FFE 		j	.L76
 826              	.LVL91:
 827              	.L72:
  20:src/AVLTree.cpp **** 
 828              		.loc 1 20 56
 829 0498 130101FF 		addi	sp,sp,-16
 830              		.cfi_def_cfa_offset 16
 831 049c 23341100 		sd	ra,8(sp)
 832 04a0 23308100 		sd	s0,0(sp)
 833              		.cfi_offset 1, -8
 834              		.cfi_offset 8, -16
 835 04a4 13040101 		addi	s0,sp,16
 836              		.cfi_def_cfa 8, 0
  43:src/AVLTree.cpp ****     node->parent = prev;
 837              		.loc 1 43 5 is_stmt 1
  43:src/AVLTree.cpp ****     node->parent = prev;
 838              		.loc 1 43 12 is_stmt 0
 839 04a8 03B78503 		ld	a4,56(a1)
  43:src/AVLTree.cpp ****     node->parent = prev;
 840              		.loc 1 43 23
 841 04ac 83378503 		ld	a5,56(a0)
 842              	.LVL92:
  43:src/AVLTree.cpp ****     node->parent = prev;
 843              		.loc 1 43 54
 844 04b0 63F2E702 		bleu	a4,a5,.L77
  43:src/AVLTree.cpp ****     node->parent = prev;
 845              		.loc 1 43 54 discriminator 1
 846 04b4 2334B500 		sd	a1,8(a0)
 847              	.L78:
  44:src/AVLTree.cpp ****     cur = prev;
 848              		.loc 1 44 5 is_stmt 1
  44:src/AVLTree.cpp ****     cur = prev;
 849              		.loc 1 44 18 is_stmt 0
 850 04b8 23B8A500 		sd	a0,16(a1)
  45:src/AVLTree.cpp ****     prev = nullptr;
 851              		.loc 1 45 5 is_stmt 1
GAS LISTING /tmp/ccNAS7gy.s 			page 22


 852              	.LVL93:
  46:src/AVLTree.cpp **** 
 853              		.loc 1 46 5
  49:src/AVLTree.cpp **** }
 854              		.loc 1 49 5
  49:src/AVLTree.cpp **** }
 855              		.loc 1 49 28 is_stmt 0
 856 04bc 97000000 		call	_ZN7AVLTree7balanceEPS_
 856      E7800000 
 857              	.LVL94:
  50:src/AVLTree.cpp **** 
 858              		.loc 1 50 1
 859 04c4 83308100 		ld	ra,8(sp)
 860              		.cfi_remember_state
 861              		.cfi_restore 1
 862 04c8 03340100 		ld	s0,0(sp)
 863              		.cfi_restore 8
 864              		.cfi_def_cfa 2, 16
 865 04cc 13010101 		addi	sp,sp,16
 866              		.cfi_def_cfa_offset 0
 867 04d0 67800000 		jr	ra
 868              	.LVL95:
 869              	.L77:
 870              		.cfi_restore_state
  43:src/AVLTree.cpp ****     node->parent = prev;
 871              		.loc 1 43 54 discriminator 2
 872 04d4 2330B500 		sd	a1,0(a0)
 873 04d8 6FF01FFE 		j	.L78
 874              	.LVL96:
 875              	.L79:
 876              		.cfi_def_cfa_register 2
 877              		.cfi_restore 1
 878              		.cfi_restore 8
  24:src/AVLTree.cpp ****     }
 879              		.loc 1 24 16
 880 04dc 13850500 		mv	a0,a1
 881              	.LVL97:
  50:src/AVLTree.cpp **** 
 882              		.loc 1 50 1
 883 04e0 67800000 		ret
 884              		.cfi_endproc
 885              	.LFE5:
 887              		.align	2
 888              		.globl	_ZN7AVLTree6removeEPS_S0_
 890              	_ZN7AVLTree6removeEPS_S0_:
 891              	.LFB12:
 120:src/AVLTree.cpp ****     if (!root) return nullptr;
 892              		.loc 1 120 56 is_stmt 1
 893              		.cfi_startproc
 894              	.LVL98:
 895 04e4 130101FD 		addi	sp,sp,-48
 896              		.cfi_def_cfa_offset 48
 897 04e8 23341102 		sd	ra,40(sp)
 898 04ec 23308102 		sd	s0,32(sp)
 899 04f0 233C9100 		sd	s1,24(sp)
 900 04f4 23382101 		sd	s2,16(sp)
 901 04f8 23343101 		sd	s3,8(sp)
GAS LISTING /tmp/ccNAS7gy.s 			page 23


 902              		.cfi_offset 1, -8
 903              		.cfi_offset 8, -16
 904              		.cfi_offset 9, -24
 905              		.cfi_offset 18, -32
 906              		.cfi_offset 19, -40
 907 04fc 13040103 		addi	s0,sp,48
 908              		.cfi_def_cfa 8, 0
 909 0500 13090500 		mv	s2,a0
 121:src/AVLTree.cpp ****     if (!node || !contains(root, node)) return root;
 910              		.loc 1 121 5
 911 0504 630A0506 		beqz	a0,.L85
 912 0508 93840500 		mv	s1,a1
 122:src/AVLTree.cpp **** 
 913              		.loc 1 122 5
 122:src/AVLTree.cpp **** 
 914              		.loc 1 122 15 is_stmt 0
 915 050c 63860506 		beqz	a1,.L85
 122:src/AVLTree.cpp **** 
 916              		.loc 1 122 27 discriminator 2
 917 0510 97000000 		call	_ZN7AVLTree8containsEPKS_S1_
 917      E7800000 
 918              	.LVL99:
 122:src/AVLTree.cpp **** 
 919              		.loc 1 122 15 discriminator 2
 920 0518 63000506 		beqz	a0,.L85
 124:src/AVLTree.cpp ****         AVLTree* p = node->parent, *l = node->left,
 921              		.loc 1 124 5 is_stmt 1
 922              	.LBB32:
 124:src/AVLTree.cpp ****         AVLTree* p = node->parent, *l = node->left,
 923              		.loc 1 124 15 is_stmt 0
 924 051c 83B78401 		ld	a5,24(s1)
 124:src/AVLTree.cpp ****         AVLTree* p = node->parent, *l = node->left,
 925              		.loc 1 124 5
 926 0520 63840708 		beqz	a5,.L86
 927              	.LBB33:
 125:src/AVLTree.cpp ****                 *r = node->right, *sn = node->sameSizeNext, *sp = node->sameSizePrev;
 928              		.loc 1 125 9 is_stmt 1
 125:src/AVLTree.cpp ****                 *r = node->right, *sn = node->sameSizeNext, *sp = node->sameSizePrev;
 929              		.loc 1 125 18 is_stmt 0
 930 0524 03B70401 		ld	a4,16(s1)
 931              	.LVL100:
 125:src/AVLTree.cpp ****                 *r = node->right, *sn = node->sameSizeNext, *sp = node->sameSizePrev;
 932              		.loc 1 125 37
 933 0528 83B60400 		ld	a3,0(s1)
 934              	.LVL101:
 126:src/AVLTree.cpp ****         // updating towards s
 935              		.loc 1 126 18
 936 052c 03B68400 		ld	a2,8(s1)
 937              	.LVL102:
 126:src/AVLTree.cpp ****         // updating towards s
 938              		.loc 1 126 62
 939 0530 83B50402 		ld	a1,32(s1)
 940              	.LVL103:
 128:src/AVLTree.cpp ****         if (p) (isRightSon(node) ? p->right : p->left) = sn;
 941              		.loc 1 128 9 is_stmt 1
 942 0534 63840500 		beqz	a1,.L87
 128:src/AVLTree.cpp ****         if (p) (isRightSon(node) ? p->right : p->left) = sn;
GAS LISTING /tmp/ccNAS7gy.s 			page 24


 943              		.loc 1 128 17 discriminator 1
 128:src/AVLTree.cpp ****         if (p) (isRightSon(node) ? p->right : p->left) = sn;
 944              		.loc 1 128 34 is_stmt 0 discriminator 1
 945 0538 23BCF500 		sd	a5,24(a1)
 946              	.L87:
 129:src/AVLTree.cpp ****         if (r) r->parent = sn;
 947              		.loc 1 129 9 is_stmt 1
 948 053c 630C0700 		beqz	a4,.L88
 129:src/AVLTree.cpp ****         if (r) r->parent = sn;
 949              		.loc 1 129 16
 950              	.LVL104:
 951              	.LBB34:
 952              	.LBB35:
  67:src/AVLTree.cpp **** }
 953              		.loc 1 67 5
  67:src/AVLTree.cpp **** }
 954              		.loc 1 67 19 is_stmt 0
 955 0540 03B50401 		ld	a0,16(s1)
  67:src/AVLTree.cpp **** }
 956              		.loc 1 67 26
 957 0544 63060500 		beqz	a0,.L89
  67:src/AVLTree.cpp **** }
 958              		.loc 1 67 43
 959 0548 03358500 		ld	a0,8(a0)
  67:src/AVLTree.cpp **** }
 960              		.loc 1 67 26
 961 054c 6386A404 		beq	s1,a0,.L90
 962              	.L89:
 963              	.LVL105:
 964              	.LBE35:
 965              	.LBE34:
 129:src/AVLTree.cpp ****         if (r) r->parent = sn;
 966              		.loc 1 129 56
 967 0550 2330F700 		sd	a5,0(a4)
 968              	.L88:
 130:src/AVLTree.cpp ****         if (l) l->parent = sn;
 969              		.loc 1 130 9 is_stmt 1
 970 0554 63040600 		beqz	a2,.L91
 130:src/AVLTree.cpp ****         if (l) l->parent = sn;
 971              		.loc 1 130 16 discriminator 1
 130:src/AVLTree.cpp ****         if (l) l->parent = sn;
 972              		.loc 1 130 26 is_stmt 0 discriminator 1
 973 0558 2338F600 		sd	a5,16(a2)
 974              	.L91:
 131:src/AVLTree.cpp ****         // updating from s
 975              		.loc 1 131 9 is_stmt 1
 976 055c 63840600 		beqz	a3,.L92
 131:src/AVLTree.cpp ****         // updating from s
 977              		.loc 1 131 16 discriminator 1
 131:src/AVLTree.cpp ****         // updating from s
 978              		.loc 1 131 26 is_stmt 0 discriminator 1
 979 0560 23B8F600 		sd	a5,16(a3)
 980              	.L92:
 133:src/AVLTree.cpp ****         sn->right = r;
 981              		.loc 1 133 9 is_stmt 1
 133:src/AVLTree.cpp ****         sn->right = r;
 982              		.loc 1 133 26 is_stmt 0
GAS LISTING /tmp/ccNAS7gy.s 			page 25


 983 0564 23B0B702 		sd	a1,32(a5)
 134:src/AVLTree.cpp ****         sn->left = l;
 984              		.loc 1 134 9 is_stmt 1
 134:src/AVLTree.cpp ****         sn->left = l;
 985              		.loc 1 134 19 is_stmt 0
 986 0568 23B4C700 		sd	a2,8(a5)
 135:src/AVLTree.cpp ****         sn->parent = p;
 987              		.loc 1 135 9 is_stmt 1
 135:src/AVLTree.cpp ****         sn->parent = p;
 988              		.loc 1 135 18 is_stmt 0
 989 056c 23B0D700 		sd	a3,0(a5)
 136:src/AVLTree.cpp ****         return (p) ? root : sn;
 990              		.loc 1 136 9 is_stmt 1
 136:src/AVLTree.cpp ****         return (p) ? root : sn;
 991              		.loc 1 136 20 is_stmt 0
 992 0570 23B8E700 		sd	a4,16(a5)
 137:src/AVLTree.cpp ****     }
 993              		.loc 1 137 9 is_stmt 1
 137:src/AVLTree.cpp ****     }
 994              		.loc 1 137 20 is_stmt 0
 995 0574 63060702 		beqz	a4,.L119
 996              	.LVL106:
 997              	.L85:
 998              	.LBE33:
 999              	.LBE32:
 184:src/AVLTree.cpp **** 
 1000              		.loc 1 184 1
 1001 0578 13050900 		mv	a0,s2
 1002 057c 83308102 		ld	ra,40(sp)
 1003              		.cfi_remember_state
 1004              		.cfi_restore 1
 1005 0580 03340102 		ld	s0,32(sp)
 1006              		.cfi_restore 8
 1007              		.cfi_def_cfa 2, 48
 1008 0584 83348101 		ld	s1,24(sp)
 1009              		.cfi_restore 9
 1010 0588 03390101 		ld	s2,16(sp)
 1011              		.cfi_restore 18
 1012 058c 83398100 		ld	s3,8(sp)
 1013              		.cfi_restore 19
 1014 0590 13010103 		addi	sp,sp,48
 1015              		.cfi_def_cfa_offset 0
 1016 0594 67800000 		jr	ra
 1017              	.LVL107:
 1018              	.L90:
 1019              		.cfi_restore_state
 1020              	.LBB37:
 1021              	.LBB36:
 129:src/AVLTree.cpp ****         if (r) r->parent = sn;
 1022              		.loc 1 129 56
 1023 0598 2334F700 		sd	a5,8(a4)
 1024 059c 6FF09FFB 		j	.L88
 1025              	.L119:
 137:src/AVLTree.cpp ****     }
 1026              		.loc 1 137 20
 1027 05a0 13890700 		mv	s2,a5
 1028              	.LVL108:
GAS LISTING /tmp/ccNAS7gy.s 			page 26


 137:src/AVLTree.cpp ****     }
 1029              		.loc 1 137 29
 1030 05a4 6FF05FFD 		j	.L85
 1031              	.LVL109:
 1032              	.L86:
 1033              	.LBE36:
 1034              	.LBE37:
 140:src/AVLTree.cpp ****         node->sameSizePrev->sameSizeNext = nullptr;
 1035              		.loc 1 140 5 is_stmt 1
 140:src/AVLTree.cpp ****         node->sameSizePrev->sameSizeNext = nullptr;
 1036              		.loc 1 140 15 is_stmt 0
 1037 05a8 83B70402 		ld	a5,32(s1)
 140:src/AVLTree.cpp ****         node->sameSizePrev->sameSizeNext = nullptr;
 1038              		.loc 1 140 5
 1039 05ac 63860700 		beqz	a5,.L94
 141:src/AVLTree.cpp ****         return root;
 1040              		.loc 1 141 9 is_stmt 1
 141:src/AVLTree.cpp ****         return root;
 1041              		.loc 1 141 42 is_stmt 0
 1042 05b0 23BC0700 		sd	zero,24(a5)
 142:src/AVLTree.cpp ****     }
 1043              		.loc 1 142 9 is_stmt 1
 142:src/AVLTree.cpp ****     }
 1044              		.loc 1 142 16 is_stmt 0
 1045 05b4 6FF05FFC 		j	.L85
 1046              	.L94:
 145:src/AVLTree.cpp **** 
 1047              		.loc 1 145 5 is_stmt 1
 147:src/AVLTree.cpp ****         updateFrom = node->parent;
 1048              		.loc 1 147 5
 1049              	.LBB38:
 147:src/AVLTree.cpp ****         updateFrom = node->parent;
 1050              		.loc 1 147 16 is_stmt 0
 1051 05b8 83B70400 		ld	a5,0(s1)
 147:src/AVLTree.cpp ****         updateFrom = node->parent;
 1052              		.loc 1 147 5
 1053 05bc 63820708 		beqz	a5,.L120
 1054              	.L95:
 1055              	.LBE38:
 150:src/AVLTree.cpp ****         updateFrom = node->parent;
 1056              		.loc 1 150 12 is_stmt 1
 1057              	.LBB52:
 1058              	.LBB39:
 1059 05c0 6386070A 		beqz	a5,.L99
 150:src/AVLTree.cpp ****         updateFrom = node->parent;
 1060              		.loc 1 150 38 is_stmt 0 discriminator 1
 1061 05c4 83B98400 		ld	s3,8(s1)
 150:src/AVLTree.cpp ****         updateFrom = node->parent;
 1062              		.loc 1 150 28 discriminator 1
 1063 05c8 6382090A 		beqz	s3,.L99
 1064              	.LBB40:
 155:src/AVLTree.cpp **** 
 1065              		.loc 1 155 9 is_stmt 1
 155:src/AVLTree.cpp **** 
 1066              		.loc 1 155 38 is_stmt 0
 1067 05cc 13850400 		mv	a0,s1
 1068 05d0 97000000 		call	_ZN7AVLTree13findSuccessorEPS_
GAS LISTING /tmp/ccNAS7gy.s 			page 27


 1068      E7800000 
 1069              	.LVL110:
 1070 05d8 93070500 		mv	a5,a0
 1071              	.LVL111:
 158:src/AVLTree.cpp ****             updateFrom = swap;
 1072              		.loc 1 158 9 is_stmt 1
 1073 05dc 6380A910 		beq	s3,a0,.L121
 168:src/AVLTree.cpp ****             if (node != root) (isRightSon(node) ? node->parent->right : node->parent->left) = swap;
 1074              		.loc 1 168 13
 168:src/AVLTree.cpp ****             if (node != root) (isRightSon(node) ? node->parent->right : node->parent->left) = swap;
 1075              		.loc 1 168 24 is_stmt 0
 1076 05e0 03350501 		ld	a0,16(a0)
 1077              	.LVL112:
 169:src/AVLTree.cpp ****             node->left->parent = swap;
 1078              		.loc 1 169 13 is_stmt 1
 1079 05e4 630C9900 		beq	s2,s1,.L112
 169:src/AVLTree.cpp ****             node->left->parent = swap;
 1080              		.loc 1 169 31
 1081              	.LVL113:
 1082              	.LBB41:
 1083              	.LBB42:
  67:src/AVLTree.cpp **** }
 1084              		.loc 1 67 5
  67:src/AVLTree.cpp **** }
 1085              		.loc 1 67 19 is_stmt 0
 1086 05e8 03B70401 		ld	a4,16(s1)
  67:src/AVLTree.cpp **** }
 1087              		.loc 1 67 26
 1088 05ec 63060700 		beqz	a4,.L113
  67:src/AVLTree.cpp **** }
 1089              		.loc 1 67 43
 1090 05f0 83368700 		ld	a3,8(a4)
  67:src/AVLTree.cpp **** }
 1091              		.loc 1 67 26
 1092 05f4 6388D412 		beq	s1,a3,.L114
 1093              	.L113:
 1094              	.LVL114:
 1095              	.LBE42:
 1096              	.LBE41:
 169:src/AVLTree.cpp ****             node->left->parent = swap;
 1097              		.loc 1 169 93
 1098 05f8 2330F700 		sd	a5,0(a4)
 1099              	.L112:
 170:src/AVLTree.cpp ****             node->right->parent = swap;
 1100              		.loc 1 170 13 is_stmt 1
 170:src/AVLTree.cpp ****             node->right->parent = swap;
 1101              		.loc 1 170 19 is_stmt 0
 1102 05fc 03B70400 		ld	a4,0(s1)
 170:src/AVLTree.cpp ****             node->right->parent = swap;
 1103              		.loc 1 170 32
 1104 0600 2338F700 		sd	a5,16(a4)
 171:src/AVLTree.cpp **** 
 1105              		.loc 1 171 13 is_stmt 1
 171:src/AVLTree.cpp **** 
 1106              		.loc 1 171 19 is_stmt 0
 1107 0604 03B78400 		ld	a4,8(s1)
 171:src/AVLTree.cpp **** 
GAS LISTING /tmp/ccNAS7gy.s 			page 28


 1108              		.loc 1 171 33
 1109 0608 2338F700 		sd	a5,16(a4)
 173:src/AVLTree.cpp ****             if (swap->right) swap->right->parent = swap->parent;
 1110              		.loc 1 173 13 is_stmt 1
 173:src/AVLTree.cpp ****             if (swap->right) swap->right->parent = swap->parent;
 1111              		.loc 1 173 19 is_stmt 0
 1112 060c 83B60701 		ld	a3,16(a5)
 173:src/AVLTree.cpp ****             if (swap->right) swap->right->parent = swap->parent;
 1113              		.loc 1 173 40
 1114 0610 03B78700 		ld	a4,8(a5)
 173:src/AVLTree.cpp ****             if (swap->right) swap->right->parent = swap->parent;
 1115              		.loc 1 173 32
 1116 0614 23B0E600 		sd	a4,0(a3)
 174:src/AVLTree.cpp **** 
 1117              		.loc 1 174 13 is_stmt 1
 1118 0618 63060700 		beqz	a4,.L115
 174:src/AVLTree.cpp **** 
 1119              		.loc 1 174 30 discriminator 1
 174:src/AVLTree.cpp **** 
 1120              		.loc 1 174 58 is_stmt 0 discriminator 1
 1121 061c 83B60701 		ld	a3,16(a5)
 174:src/AVLTree.cpp **** 
 1122              		.loc 1 174 50 discriminator 1
 1123 0620 2338D700 		sd	a3,16(a4)
 1124              	.L115:
 176:src/AVLTree.cpp ****             swap->right = node->right;
 1125              		.loc 1 176 13 is_stmt 1
 176:src/AVLTree.cpp ****             swap->right = node->right;
 1126              		.loc 1 176 32 is_stmt 0
 1127 0624 03B70400 		ld	a4,0(s1)
 176:src/AVLTree.cpp ****             swap->right = node->right;
 1128              		.loc 1 176 24
 1129 0628 23B0E700 		sd	a4,0(a5)
 177:src/AVLTree.cpp ****             swap->parent = node->parent;
 1130              		.loc 1 177 13 is_stmt 1
 177:src/AVLTree.cpp ****             swap->parent = node->parent;
 1131              		.loc 1 177 33 is_stmt 0
 1132 062c 03B78400 		ld	a4,8(s1)
 177:src/AVLTree.cpp ****             swap->parent = node->parent;
 1133              		.loc 1 177 25
 1134 0630 23B4E700 		sd	a4,8(a5)
 178:src/AVLTree.cpp ****         }
 1135              		.loc 1 178 13 is_stmt 1
 178:src/AVLTree.cpp ****         }
 1136              		.loc 1 178 34 is_stmt 0
 1137 0634 03B70401 		ld	a4,16(s1)
 178:src/AVLTree.cpp ****         }
 1138              		.loc 1 178 26
 1139 0638 23B8E700 		sd	a4,16(a5)
 1140 063c 6F008005 		j	.L96
 1141              	.LVL115:
 1142              	.L120:
 1143              	.LBE40:
 1144              	.LBE39:
 147:src/AVLTree.cpp ****         updateFrom = node->parent;
 1145              		.loc 1 147 31 discriminator 1
 1146 0640 03B78400 		ld	a4,8(s1)
GAS LISTING /tmp/ccNAS7gy.s 			page 29


 147:src/AVLTree.cpp ****         updateFrom = node->parent;
 1147              		.loc 1 147 21 discriminator 1
 1148 0644 E31E07F6 		bnez	a4,.L95
 148:src/AVLTree.cpp ****         if (node != root) (isRightSon(node) ? node->parent->right : node->parent->left) = nullptr;
 1149              		.loc 1 148 9 is_stmt 1
 148:src/AVLTree.cpp ****         if (node != root) (isRightSon(node) ? node->parent->right : node->parent->left) = nullptr;
 1150              		.loc 1 148 20 is_stmt 0
 1151 0648 03B50401 		ld	a0,16(s1)
 1152              	.LVL116:
 149:src/AVLTree.cpp ****     } else if (!node->left || !node->right) { // one child
 1153              		.loc 1 149 9 is_stmt 1
 1154 064c 63049904 		beq	s2,s1,.L96
 149:src/AVLTree.cpp ****     } else if (!node->left || !node->right) { // one child
 1155              		.loc 1 149 27
 1156              	.LVL117:
 1157              	.LBB48:
 1158              	.LBB49:
  67:src/AVLTree.cpp **** }
 1159              		.loc 1 67 5
  67:src/AVLTree.cpp **** }
 1160              		.loc 1 67 26 is_stmt 0
 1161 0650 63060500 		beqz	a0,.L97
  67:src/AVLTree.cpp **** }
 1162              		.loc 1 67 43
 1163 0654 83378500 		ld	a5,8(a0)
  67:src/AVLTree.cpp **** }
 1164              		.loc 1 67 26
 1165 0658 6386F400 		beq	s1,a5,.L98
 1166              	.L97:
 1167              	.LVL118:
 1168              	.LBE49:
 1169              	.LBE48:
 149:src/AVLTree.cpp ****     } else if (!node->left || !node->right) { // one child
 1170              		.loc 1 149 89
 1171 065c 23300500 		sd	zero,0(a0)
 1172 0660 6F004003 		j	.L96
 1173              	.LVL119:
 1174              	.L98:
 1175 0664 23340500 		sd	zero,8(a0)
 1176 0668 6F00C002 		j	.L96
 1177              	.LVL120:
 1178              	.L99:
 1179              	.LBB50:
 151:src/AVLTree.cpp ****         if (node == root) {updateFrom = (node->left) ? node->left : node->right; updateFrom->parent
 1180              		.loc 1 151 9 is_stmt 1
 151:src/AVLTree.cpp ****         if (node == root) {updateFrom = (node->left) ? node->left : node->right; updateFrom->parent
 1181              		.loc 1 151 20 is_stmt 0
 1182 066c 03B50401 		ld	a0,16(s1)
 1183              	.LVL121:
 152:src/AVLTree.cpp ****         if (node != root) (isRightSon(node) ? node->parent->right : node->parent->left) = ((node->r
 1184              		.loc 1 152 9 is_stmt 1
 1185 0670 630A9902 		beq	s2,s1,.L122
 1186              	.L101:
 153:src/AVLTree.cpp ****     } else { //two children
 1187              		.loc 1 153 9
 1188 0674 63009902 		beq	s2,s1,.L96
 153:src/AVLTree.cpp ****     } else { //two children
GAS LISTING /tmp/ccNAS7gy.s 			page 30


 1189              		.loc 1 153 27
 1190              	.LVL122:
 1191              	.LBB45:
 1192              	.LBB46:
  67:src/AVLTree.cpp **** }
 1193              		.loc 1 67 5
  67:src/AVLTree.cpp **** }
 1194              		.loc 1 67 19 is_stmt 0
 1195 0678 83B70401 		ld	a5,16(s1)
  67:src/AVLTree.cpp **** }
 1196              		.loc 1 67 26
 1197 067c 63860700 		beqz	a5,.L103
  67:src/AVLTree.cpp **** }
 1198              		.loc 1 67 43
 1199 0680 03B78700 		ld	a4,8(a5)
  67:src/AVLTree.cpp **** }
 1200              		.loc 1 67 26
 1201 0684 638CE402 		beq	s1,a4,.L104
 1202              	.L103:
 1203              	.LVL123:
 1204              	.LBE46:
 1205              	.LBE45:
 153:src/AVLTree.cpp ****     } else { //two children
 1206              		.loc 1 153 99
 1207 0688 03B78400 		ld	a4,8(s1)
 153:src/AVLTree.cpp ****     } else { //two children
 1208              		.loc 1 153 106
 1209 068c 63040704 		beqz	a4,.L123
 1210              	.L105:
 153:src/AVLTree.cpp ****     } else { //two children
 1211              		.loc 1 153 89 discriminator 11
 1212 0690 23B0E700 		sd	a4,0(a5)
 1213              	.L96:
 1214              	.LBE50:
 1215              	.LBE52:
 183:src/AVLTree.cpp **** }
 1216              		.loc 1 183 5 is_stmt 1
 183:src/AVLTree.cpp **** }
 1217              		.loc 1 183 28 is_stmt 0
 1218 0694 97000000 		call	_ZN7AVLTree7balanceEPS_
 1218      E7800000 
 1219              	.LVL124:
 1220 069c 13090500 		mv	s2,a0
 1221              	.LVL125:
 183:src/AVLTree.cpp **** }
 1222              		.loc 1 183 39
 1223 06a0 6FF09FED 		j	.L85
 1224              	.LVL126:
 1225              	.L122:
 1226              	.LBB53:
 1227              	.LBB51:
 152:src/AVLTree.cpp ****         if (node != root) (isRightSon(node) ? node->parent->right : node->parent->left) = ((node->r
 1228              		.loc 1 152 28 is_stmt 1 discriminator 1
 152:src/AVLTree.cpp ****         if (node != root) (isRightSon(node) ? node->parent->right : node->parent->left) = ((node->r
 1229              		.loc 1 152 54 is_stmt 0 discriminator 1
 1230 06a4 63880700 		beqz	a5,.L124
 1231              	.L102:
GAS LISTING /tmp/ccNAS7gy.s 			page 31


 1232              	.LVL127:
 152:src/AVLTree.cpp ****         if (node != root) (isRightSon(node) ? node->parent->right : node->parent->left) = ((node->r
 1233              		.loc 1 152 82 is_stmt 1 discriminator 5
 152:src/AVLTree.cpp ****         if (node != root) (isRightSon(node) ? node->parent->right : node->parent->left) = ((node->r
 1234              		.loc 1 152 101 is_stmt 0 discriminator 5
 1235 06a8 23B80700 		sd	zero,16(a5)
 152:src/AVLTree.cpp ****         if (node != root) (isRightSon(node) ? node->parent->right : node->parent->left) = ((node->r
 1236              		.loc 1 152 39 discriminator 5
 1237 06ac 13850700 		mv	a0,a5
 1238 06b0 6FF05FFC 		j	.L101
 1239              	.LVL128:
 1240              	.L124:
 152:src/AVLTree.cpp ****         if (node != root) (isRightSon(node) ? node->parent->right : node->parent->left) = ((node->r
 1241              		.loc 1 152 54 discriminator 3
 1242 06b4 83B78400 		ld	a5,8(s1)
 1243 06b8 6FF01FFF 		j	.L102
 1244              	.LVL129:
 1245              	.L104:
 153:src/AVLTree.cpp ****     } else { //two children
 1246              		.loc 1 153 99
 1247 06bc 03B78400 		ld	a4,8(s1)
 153:src/AVLTree.cpp ****     } else { //two children
 1248              		.loc 1 153 106
 1249 06c0 63060700 		beqz	a4,.L125
 1250              	.L107:
 153:src/AVLTree.cpp ****     } else { //two children
 1251              		.loc 1 153 89 discriminator 7
 1252 06c4 23B4E700 		sd	a4,8(a5)
 1253 06c8 6FF0DFFC 		j	.L96
 1254              	.L125:
 153:src/AVLTree.cpp ****     } else { //two children
 1255              		.loc 1 153 106 discriminator 5
 1256 06cc 03B70400 		ld	a4,0(s1)
 1257 06d0 6FF05FFF 		j	.L107
 1258              	.L123:
 153:src/AVLTree.cpp ****     } else { //two children
 1259              		.loc 1 153 106 discriminator 9
 1260 06d4 03B70400 		ld	a4,0(s1)
 1261 06d8 6FF09FFB 		j	.L105
 1262              	.LVL130:
 1263              	.L121:
 1264              	.LBB47:
 159:src/AVLTree.cpp ****             if (node != root) (isRightSon(node) ? node->parent->right : node->parent->left) = swap;
 1265              		.loc 1 159 13 is_stmt 1
 160:src/AVLTree.cpp ****             node->right->parent = nullptr;
 1266              		.loc 1 160 13
 1267 06dc 630C9900 		beq	s2,s1,.L109
 160:src/AVLTree.cpp ****             node->right->parent = nullptr;
 1268              		.loc 1 160 31
 1269              	.LVL131:
 1270              	.LBB43:
 1271              	.LBB44:
  67:src/AVLTree.cpp **** }
 1272              		.loc 1 67 5
  67:src/AVLTree.cpp **** }
 1273              		.loc 1 67 19 is_stmt 0
 1274 06e0 03B70401 		ld	a4,16(s1)
GAS LISTING /tmp/ccNAS7gy.s 			page 32


  67:src/AVLTree.cpp **** }
 1275              		.loc 1 67 26
 1276 06e4 63060700 		beqz	a4,.L110
  67:src/AVLTree.cpp **** }
 1277              		.loc 1 67 43
 1278 06e8 83368700 		ld	a3,8(a4)
  67:src/AVLTree.cpp **** }
 1279              		.loc 1 67 26
 1280 06ec 6388D402 		beq	s1,a3,.L111
 1281              	.L110:
 1282              	.LVL132:
 1283              	.LBE44:
 1284              	.LBE43:
 160:src/AVLTree.cpp ****             node->right->parent = nullptr;
 1285              		.loc 1 160 93
 1286 06f0 2330F700 		sd	a5,0(a4)
 1287              	.L109:
 161:src/AVLTree.cpp ****             node->left->parent = swap;
 1288              		.loc 1 161 13 is_stmt 1
 161:src/AVLTree.cpp ****             node->left->parent = swap;
 1289              		.loc 1 161 19 is_stmt 0
 1290 06f4 03B78400 		ld	a4,8(s1)
 161:src/AVLTree.cpp ****             node->left->parent = swap;
 1291              		.loc 1 161 33
 1292 06f8 23380700 		sd	zero,16(a4)
 162:src/AVLTree.cpp **** 
 1293              		.loc 1 162 13 is_stmt 1
 162:src/AVLTree.cpp **** 
 1294              		.loc 1 162 19 is_stmt 0
 1295 06fc 03B70400 		ld	a4,0(s1)
 162:src/AVLTree.cpp **** 
 1296              		.loc 1 162 32
 1297 0700 2338F700 		sd	a5,16(a4)
 164:src/AVLTree.cpp ****             swap->parent = node->parent;
 1298              		.loc 1 164 13 is_stmt 1
 164:src/AVLTree.cpp ****             swap->parent = node->parent;
 1299              		.loc 1 164 32 is_stmt 0
 1300 0704 03B70400 		ld	a4,0(s1)
 164:src/AVLTree.cpp ****             swap->parent = node->parent;
 1301              		.loc 1 164 24
 1302 0708 23B0E700 		sd	a4,0(a5)
 165:src/AVLTree.cpp ****             // no change to swap->right
 1303              		.loc 1 165 13 is_stmt 1
 165:src/AVLTree.cpp ****             // no change to swap->right
 1304              		.loc 1 165 34 is_stmt 0
 1305 070c 03B70401 		ld	a4,16(s1)
 165:src/AVLTree.cpp ****             // no change to swap->right
 1306              		.loc 1 165 26
 1307 0710 23B8E700 		sd	a4,16(a5)
 159:src/AVLTree.cpp ****             if (node != root) (isRightSon(node) ? node->parent->right : node->parent->left) = swap;
 1308              		.loc 1 159 24
 1309 0714 13850700 		mv	a0,a5
 1310              	.LVL133:
 1311 0718 6FF0DFF7 		j	.L96
 1312              	.LVL134:
 1313              	.L111:
 160:src/AVLTree.cpp ****             node->right->parent = nullptr;
GAS LISTING /tmp/ccNAS7gy.s 			page 33


 1314              		.loc 1 160 93
 1315 071c 2334A700 		sd	a0,8(a4)
 1316 0720 6FF05FFD 		j	.L109
 1317              	.LVL135:
 1318              	.L114:
 169:src/AVLTree.cpp ****             node->left->parent = swap;
 1319              		.loc 1 169 93
 1320 0724 2334F700 		sd	a5,8(a4)
 1321 0728 6FF05FED 		j	.L112
 1322              	.LBE47:
 1323              	.LBE51:
 1324              	.LBE53:
 1325              		.cfi_endproc
 1326              	.LFE12:
 1328              		.align	2
 1329              		.globl	_ZN7AVLTree6swapLLEPS_S0_S0_
 1331              	_ZN7AVLTree6swapLLEPS_S0_S0_:
 1332              	.LFB15:
 234:src/AVLTree.cpp **** 
 235:src/AVLTree.cpp **** AVLTree *AVLTree::swapLL(AVLTree *toSwap, AVLTree *swap, AVLTree* root) {
 1333              		.loc 1 235 73 is_stmt 1
 1334              		.cfi_startproc
 1335              	.LVL136:
 1336 072c 130101FF 		addi	sp,sp,-16
 1337              		.cfi_def_cfa_offset 16
 1338 0730 23348100 		sd	s0,8(sp)
 1339              		.cfi_offset 8, -8
 1340 0734 13040101 		addi	s0,sp,16
 1341              		.cfi_def_cfa 8, 0
 1342 0738 93070500 		mv	a5,a0
 1343 073c 13050600 		mv	a0,a2
 1344              	.LVL137:
 236:src/AVLTree.cpp ****     if (!toSwap || !swap || !root || toSwap == swap)
 1345              		.loc 1 236 5
 1346 0740 63880702 		beqz	a5,.L127
 1347              		.loc 1 236 17 is_stmt 0 discriminator 1
 1348 0744 63860502 		beqz	a1,.L127
 1349              		.loc 1 236 26 discriminator 2
 1350 0748 63040602 		beqz	a2,.L127
 1351              		.loc 1 236 35 discriminator 3
 1352 074c 6382B702 		beq	a5,a1,.L127
 237:src/AVLTree.cpp ****         return root;
 238:src/AVLTree.cpp **** 
 239:src/AVLTree.cpp ****     if (toSwap == root) {
 1353              		.loc 1 239 5 is_stmt 1
 1354 0750 6386C702 		beq	a5,a2,.L132
 240:src/AVLTree.cpp ****         swap->next = root->next;
 241:src/AVLTree.cpp ****         swap->prev = nullptr;
 242:src/AVLTree.cpp ****         if (root->next) root->next->prev = swap;
 243:src/AVLTree.cpp ****         return swap;
 244:src/AVLTree.cpp ****     }
 245:src/AVLTree.cpp **** 
 246:src/AVLTree.cpp ****     AVLTree* prevNode = toSwap->prev;
 1355              		.loc 1 246 5
 1356              		.loc 1 246 14 is_stmt 0
 1357 0754 03B70703 		ld	a4,48(a5)
 1358              	.LVL138:
GAS LISTING /tmp/ccNAS7gy.s 			page 34


 247:src/AVLTree.cpp ****     AVLTree* nextNode = toSwap->next;
 1359              		.loc 1 247 5 is_stmt 1
 1360              		.loc 1 247 14 is_stmt 0
 1361 0758 83B78702 		ld	a5,40(a5)
 1362              	.LVL139:
 248:src/AVLTree.cpp ****     prevNode->next = swap;
 1363              		.loc 1 248 5 is_stmt 1
 1364              		.loc 1 248 20 is_stmt 0
 1365 075c 2334B702 		sd	a1,40(a4)
 249:src/AVLTree.cpp ****     swap->prev = prevNode;
 1366              		.loc 1 249 5 is_stmt 1
 1367              		.loc 1 249 16 is_stmt 0
 1368 0760 23B8E502 		sd	a4,48(a1)
 250:src/AVLTree.cpp ****     if (nextNode) nextNode->prev = swap;
 1369              		.loc 1 250 5 is_stmt 1
 1370 0764 63840700 		beqz	a5,.L130
 1371              		.loc 1 250 19 discriminator 1
 1372              		.loc 1 250 34 is_stmt 0 discriminator 1
 1373 0768 23B8B702 		sd	a1,48(a5)
 1374              	.L130:
 251:src/AVLTree.cpp ****     swap->next = nextNode;
 1375              		.loc 1 251 5 is_stmt 1
 1376              		.loc 1 251 16 is_stmt 0
 1377 076c 23B4F502 		sd	a5,40(a1)
 252:src/AVLTree.cpp **** 
 253:src/AVLTree.cpp ****     return root;
 1378              		.loc 1 253 5 is_stmt 1
 1379              	.LVL140:
 1380              	.L127:
 254:src/AVLTree.cpp **** 
 255:src/AVLTree.cpp **** }
 1381              		.loc 1 255 1 is_stmt 0
 1382 0770 03348100 		ld	s0,8(sp)
 1383              		.cfi_remember_state
 1384              		.cfi_restore 8
 1385              		.cfi_def_cfa 2, 16
 1386 0774 13010101 		addi	sp,sp,16
 1387              		.cfi_def_cfa_offset 0
 1388 0778 67800000 		jr	ra
 1389              	.LVL141:
 1390              	.L132:
 1391              		.cfi_restore_state
 240:src/AVLTree.cpp ****         swap->prev = nullptr;
 1392              		.loc 1 240 9 is_stmt 1
 240:src/AVLTree.cpp ****         swap->prev = nullptr;
 1393              		.loc 1 240 28 is_stmt 0
 1394 077c 83378602 		ld	a5,40(a2)
 1395              	.LVL142:
 240:src/AVLTree.cpp ****         swap->prev = nullptr;
 1396              		.loc 1 240 20
 1397 0780 23B4F502 		sd	a5,40(a1)
 241:src/AVLTree.cpp ****         if (root->next) root->next->prev = swap;
 1398              		.loc 1 241 9 is_stmt 1
 241:src/AVLTree.cpp ****         if (root->next) root->next->prev = swap;
 1399              		.loc 1 241 20 is_stmt 0
 1400 0784 23B80502 		sd	zero,48(a1)
 242:src/AVLTree.cpp ****         return swap;
GAS LISTING /tmp/ccNAS7gy.s 			page 35


 1401              		.loc 1 242 9 is_stmt 1
 242:src/AVLTree.cpp ****         return swap;
 1402              		.loc 1 242 19 is_stmt 0
 1403 0788 83378602 		ld	a5,40(a2)
 242:src/AVLTree.cpp ****         return swap;
 1404              		.loc 1 242 9
 1405 078c 63840700 		beqz	a5,.L129
 242:src/AVLTree.cpp ****         return swap;
 1406              		.loc 1 242 25 is_stmt 1 discriminator 1
 242:src/AVLTree.cpp ****         return swap;
 1407              		.loc 1 242 42 is_stmt 0 discriminator 1
 1408 0790 23B8B702 		sd	a1,48(a5)
 1409              	.L129:
 243:src/AVLTree.cpp ****     }
 1410              		.loc 1 243 9 is_stmt 1
 243:src/AVLTree.cpp ****     }
 1411              		.loc 1 243 16 is_stmt 0
 1412 0794 13850500 		mv	a0,a1
 1413              	.LVL143:
 1414 0798 6FF09FFD 		j	.L127
 1415              		.cfi_endproc
 1416              	.LFE15:
 1418              		.align	2
 1419              		.globl	_ZN7AVLTree8removeLLEPS_S0_
 1421              	_ZN7AVLTree8removeLLEPS_S0_:
 1422              	.LFB16:
 256:src/AVLTree.cpp **** 
 257:src/AVLTree.cpp **** AVLTree *AVLTree::removeLL(AVLTree *toRem, AVLTree *root) {
 1423              		.loc 1 257 59 is_stmt 1
 1424              		.cfi_startproc
 1425              	.LVL144:
 1426 079c 130101FF 		addi	sp,sp,-16
 1427              		.cfi_def_cfa_offset 16
 1428 07a0 23348100 		sd	s0,8(sp)
 1429              		.cfi_offset 8, -8
 1430 07a4 13040101 		addi	s0,sp,16
 1431              		.cfi_def_cfa 8, 0
 1432 07a8 93070500 		mv	a5,a0
 258:src/AVLTree.cpp ****     if (!root) return toRem;
 1433              		.loc 1 258 5
 1434 07ac 63820502 		beqz	a1,.L134
 1435 07b0 13850500 		mv	a0,a1
 1436              	.LVL145:
 259:src/AVLTree.cpp ****     if (!toRem) return root;
 1437              		.loc 1 259 5
 1438 07b4 638E0700 		beqz	a5,.L134
 260:src/AVLTree.cpp ****     if (root == toRem) {
 1439              		.loc 1 260 5
 1440 07b8 6382F502 		beq	a1,a5,.L139
 261:src/AVLTree.cpp ****         root = root->next;
 262:src/AVLTree.cpp ****         if (root) root->prev = nullptr;
 263:src/AVLTree.cpp ****         return root;
 264:src/AVLTree.cpp ****     }
 265:src/AVLTree.cpp ****     AVLTree* prevNode = toRem->prev;
 1441              		.loc 1 265 5
 1442              		.loc 1 265 14 is_stmt 0
 1443 07bc 03B70703 		ld	a4,48(a5)
GAS LISTING /tmp/ccNAS7gy.s 			page 36


 1444              	.LVL146:
 266:src/AVLTree.cpp ****     AVLTree* nextNode = toRem->next;
 1445              		.loc 1 266 5 is_stmt 1
 1446              		.loc 1 266 14 is_stmt 0
 1447 07c0 83B78702 		ld	a5,40(a5)
 1448              	.LVL147:
 267:src/AVLTree.cpp ****     prevNode->next = nextNode;
 1449              		.loc 1 267 5 is_stmt 1
 1450              		.loc 1 267 20 is_stmt 0
 1451 07c4 2334F702 		sd	a5,40(a4)
 268:src/AVLTree.cpp ****     if (nextNode)
 1452              		.loc 1 268 5 is_stmt 1
 1453 07c8 63840700 		beqz	a5,.L134
 269:src/AVLTree.cpp ****         nextNode->prev = prevNode;
 1454              		.loc 1 269 9
 1455              		.loc 1 269 24 is_stmt 0
 1456 07cc 23B8E702 		sd	a4,48(a5)
 1457              	.LVL148:
 1458              	.L134:
 270:src/AVLTree.cpp **** 
 271:src/AVLTree.cpp ****     return root;
 272:src/AVLTree.cpp **** }
 1459              		.loc 1 272 1
 1460 07d0 03348100 		ld	s0,8(sp)
 1461              		.cfi_remember_state
 1462              		.cfi_restore 8
 1463              		.cfi_def_cfa 2, 16
 1464 07d4 13010101 		addi	sp,sp,16
 1465              		.cfi_def_cfa_offset 0
 1466 07d8 67800000 		jr	ra
 1467              	.LVL149:
 1468              	.L139:
 1469              		.cfi_restore_state
 261:src/AVLTree.cpp ****         if (root) root->prev = nullptr;
 1470              		.loc 1 261 9 is_stmt 1
 261:src/AVLTree.cpp ****         if (root) root->prev = nullptr;
 1471              		.loc 1 261 14 is_stmt 0
 1472 07dc 03B58502 		ld	a0,40(a1)
 1473              	.LVL150:
 262:src/AVLTree.cpp ****         return root;
 1474              		.loc 1 262 9 is_stmt 1
 1475 07e0 E30805FE 		beqz	a0,.L134
 262:src/AVLTree.cpp ****         return root;
 1476              		.loc 1 262 19 discriminator 1
 262:src/AVLTree.cpp ****         return root;
 1477              		.loc 1 262 30 is_stmt 0 discriminator 1
 1478 07e4 23380502 		sd	zero,48(a0)
 263:src/AVLTree.cpp ****     }
 1479              		.loc 1 263 9 is_stmt 1 discriminator 1
 263:src/AVLTree.cpp ****     }
 1480              		.loc 1 263 16 is_stmt 0 discriminator 1
 1481 07e8 6FF09FFE 		j	.L134
 1482              		.cfi_endproc
 1483              	.LFE16:
 1485              		.align	2
 1486              		.globl	_ZN7AVLTree8insertLLEPS_S0_
 1488              	_ZN7AVLTree8insertLLEPS_S0_:
GAS LISTING /tmp/ccNAS7gy.s 			page 37


 1489              	.LFB17:
 273:src/AVLTree.cpp **** 
 274:src/AVLTree.cpp **** AVLTree *AVLTree::insertLL(AVLTree *toInsert, AVLTree *root) {
 1490              		.loc 1 274 62 is_stmt 1
 1491              		.cfi_startproc
 1492              	.LVL151:
 1493 07ec 130101FF 		addi	sp,sp,-16
 1494              		.cfi_def_cfa_offset 16
 1495 07f0 23348100 		sd	s0,8(sp)
 1496              		.cfi_offset 8, -8
 1497 07f4 13040101 		addi	s0,sp,16
 1498              		.cfi_def_cfa 8, 0
 275:src/AVLTree.cpp ****     if (!toInsert) return root;
 1499              		.loc 1 275 5
 1500 07f8 630C0504 		beqz	a0,.L147
 276:src/AVLTree.cpp ****     if (!root || toInsert < root) {
 1501              		.loc 1 276 5
 1502 07fc 63800504 		beqz	a1,.L142
 1503              		.loc 1 276 15 is_stmt 0 discriminator 1
 1504 0800 636EB502 		bltu	a0,a1,.L142
 277:src/AVLTree.cpp ****         toInsert->next = root;
 278:src/AVLTree.cpp ****         toInsert->prev = nullptr;
 279:src/AVLTree.cpp ****         if (root) root->prev = toInsert;
 280:src/AVLTree.cpp ****         return toInsert;
 281:src/AVLTree.cpp ****     }
 282:src/AVLTree.cpp **** 
 283:src/AVLTree.cpp ****     AVLTree* cur = root;
 1505              		.loc 1 283 14
 1506 0804 93870500 		mv	a5,a1
 1507              	.L143:
 1508              	.LVL152:
 284:src/AVLTree.cpp ****     for (; cur->next && (cur->next < toInsert); cur = cur->next);
 1509              		.loc 1 284 5 is_stmt 1 discriminator 3
 1510              		.loc 1 284 22 discriminator 3
 1511 0808 13870700 		mv	a4,a5
 1512              		.loc 1 284 17 is_stmt 0 discriminator 3
 1513 080c 83B78702 		ld	a5,40(a5)
 1514              	.LVL153:
 1515              		.loc 1 284 22 discriminator 3
 1516 0810 63840700 		beqz	a5,.L145
 1517              		.loc 1 284 22 discriminator 1
 1518 0814 E3EAA7FE 		bltu	a5,a0,.L143
 1519              	.L145:
 285:src/AVLTree.cpp **** 
 286:src/AVLTree.cpp ****     toInsert->next = cur->next;
 1520              		.loc 1 286 5 is_stmt 1
 1521              		.loc 1 286 20 is_stmt 0
 1522 0818 2334F502 		sd	a5,40(a0)
 287:src/AVLTree.cpp ****     if(cur->next) cur->next->prev = toInsert;
 1523              		.loc 1 287 5 is_stmt 1
 1524 081c 63840700 		beqz	a5,.L146
 1525              		.loc 1 287 19 discriminator 1
 1526              		.loc 1 287 35 is_stmt 0 discriminator 1
 1527 0820 23B8A702 		sd	a0,48(a5)
 1528              	.L146:
 288:src/AVLTree.cpp ****     cur->next = toInsert;
 1529              		.loc 1 288 5 is_stmt 1
GAS LISTING /tmp/ccNAS7gy.s 			page 38


 1530              		.loc 1 288 15 is_stmt 0
 1531 0824 2334A702 		sd	a0,40(a4)
 289:src/AVLTree.cpp ****     toInsert->prev = cur;
 1532              		.loc 1 289 5 is_stmt 1
 1533              		.loc 1 289 20 is_stmt 0
 1534 0828 2338E502 		sd	a4,48(a0)
 290:src/AVLTree.cpp **** 
 291:src/AVLTree.cpp ****     return root;
 1535              		.loc 1 291 5 is_stmt 1
 1536              		.loc 1 291 12 is_stmt 0
 1537 082c 13850500 		mv	a0,a1
 1538              	.LVL154:
 1539              	.L140:
 292:src/AVLTree.cpp **** }
 1540              		.loc 1 292 1
 1541 0830 03348100 		ld	s0,8(sp)
 1542              		.cfi_remember_state
 1543              		.cfi_restore 8
 1544              		.cfi_def_cfa 2, 16
 1545 0834 13010101 		addi	sp,sp,16
 1546              		.cfi_def_cfa_offset 0
 1547 0838 67800000 		jr	ra
 1548              	.LVL155:
 1549              	.L142:
 1550              		.cfi_restore_state
 277:src/AVLTree.cpp ****         toInsert->prev = nullptr;
 1551              		.loc 1 277 9 is_stmt 1
 277:src/AVLTree.cpp ****         toInsert->prev = nullptr;
 1552              		.loc 1 277 24 is_stmt 0
 1553 083c 2334B502 		sd	a1,40(a0)
 278:src/AVLTree.cpp ****         if (root) root->prev = toInsert;
 1554              		.loc 1 278 9 is_stmt 1
 278:src/AVLTree.cpp ****         if (root) root->prev = toInsert;
 1555              		.loc 1 278 24 is_stmt 0
 1556 0840 23380502 		sd	zero,48(a0)
 279:src/AVLTree.cpp ****         return toInsert;
 1557              		.loc 1 279 9 is_stmt 1
 1558 0844 E38605FE 		beqz	a1,.L140
 279:src/AVLTree.cpp ****         return toInsert;
 1559              		.loc 1 279 19 discriminator 1
 279:src/AVLTree.cpp ****         return toInsert;
 1560              		.loc 1 279 30 is_stmt 0 discriminator 1
 1561 0848 23B8A502 		sd	a0,48(a1)
 280:src/AVLTree.cpp ****     }
 1562              		.loc 1 280 9 is_stmt 1 discriminator 1
 280:src/AVLTree.cpp ****     }
 1563              		.loc 1 280 16 is_stmt 0 discriminator 1
 1564 084c 6FF05FFE 		j	.L140
 1565              	.L147:
 275:src/AVLTree.cpp ****     if (!root || toInsert < root) {
 1566              		.loc 1 275 27
 1567 0850 13850500 		mv	a0,a1
 1568              	.LVL156:
 1569 0854 6FF0DFFD 		j	.L140
 1570              		.cfi_endproc
 1571              	.LFE17:
 1573              	.Letext0:
GAS LISTING /tmp/ccNAS7gy.s 			page 39


 1574              		.file 2 "src/../h/../lib/hw.h"
 1575              		.file 3 "src/../h/AVLTree.h"
GAS LISTING /tmp/ccNAS7gy.s 			page 40


DEFINED SYMBOLS
                            *ABS*:0000000000000000 AVLTree.cpp
     /tmp/ccNAS7gy.s:9      .text:0000000000000000 _ZN7AVLTree11findFreeSegEPS_m
     /tmp/ccNAS7gy.s:13     .text:0000000000000000 .L0 
     /tmp/ccNAS7gy.s:15     .text:0000000000000000 .L0 
     /tmp/ccNAS7gy.s:16     .text:0000000000000004 .L0 
     /tmp/ccNAS7gy.s:18     .text:0000000000000008 .L0 
     /tmp/ccNAS7gy.s:20     .text:000000000000000c .L0 
     /tmp/ccNAS7gy.s:24     .text:0000000000000010 .L0 
     /tmp/ccNAS7gy.s:25     .text:0000000000000010 .L0 
     /tmp/ccNAS7gy.s:31     .text:0000000000000018 .L0 
     /tmp/ccNAS7gy.s:32     .text:0000000000000018 .L0 
     /tmp/ccNAS7gy.s:36     .text:000000000000001c .L0 
     /tmp/ccNAS7gy.s:37     .text:000000000000001c .L0 
     /tmp/ccNAS7gy.s:39     .text:0000000000000020 .L0 
     /tmp/ccNAS7gy.s:40     .text:0000000000000020 .L0 
     /tmp/ccNAS7gy.s:42     .text:0000000000000024 .L0 
     /tmp/ccNAS7gy.s:44     .text:0000000000000028 .L0 
     /tmp/ccNAS7gy.s:47     .text:000000000000002c .L0 
     /tmp/ccNAS7gy.s:48     .text:000000000000002c .L0 
     /tmp/ccNAS7gy.s:49     .text:000000000000002c .L0 
     /tmp/ccNAS7gy.s:51     .text:0000000000000030 .L0 
     /tmp/ccNAS7gy.s:56     .text:0000000000000038 .L0 
     /tmp/ccNAS7gy.s:60     .text:000000000000003c .L0 
     /tmp/ccNAS7gy.s:61     .text:0000000000000040 .L0 
     /tmp/ccNAS7gy.s:62     .text:0000000000000040 .L0 
     /tmp/ccNAS7gy.s:64     .text:0000000000000044 .L0 
     /tmp/ccNAS7gy.s:66     .text:0000000000000048 .L0 
     /tmp/ccNAS7gy.s:72     .text:0000000000000048 _ZN7AVLTree3maxEPKS_S1_
     /tmp/ccNAS7gy.s:75     .text:0000000000000048 .L0 
     /tmp/ccNAS7gy.s:77     .text:0000000000000048 .L0 
     /tmp/ccNAS7gy.s:78     .text:000000000000004c .L0 
     /tmp/ccNAS7gy.s:80     .text:0000000000000050 .L0 
     /tmp/ccNAS7gy.s:82     .text:0000000000000054 .L0 
     /tmp/ccNAS7gy.s:84     .text:0000000000000054 .L0 
     /tmp/ccNAS7gy.s:87     .text:0000000000000058 .L0 
     /tmp/ccNAS7gy.s:90     .text:000000000000005c .L0 
     /tmp/ccNAS7gy.s:92     .text:0000000000000060 .L0 
     /tmp/ccNAS7gy.s:95     .text:0000000000000064 .L0 
     /tmp/ccNAS7gy.s:96     .text:0000000000000064 .L0 
     /tmp/ccNAS7gy.s:98     .text:0000000000000068 .L0 
     /tmp/ccNAS7gy.s:101    .text:000000000000006c .L0 
     /tmp/ccNAS7gy.s:105    .text:0000000000000074 .L0 
     /tmp/ccNAS7gy.s:106    .text:0000000000000078 .L0 
     /tmp/ccNAS7gy.s:107    .text:0000000000000078 .L0 
     /tmp/ccNAS7gy.s:108    .text:0000000000000078 .L0 
     /tmp/ccNAS7gy.s:110    .text:000000000000007c .L0 
     /tmp/ccNAS7gy.s:114    .text:0000000000000080 .L0 
     /tmp/ccNAS7gy.s:116    .text:0000000000000080 .L0 
     /tmp/ccNAS7gy.s:118    .text:0000000000000084 .L0 
     /tmp/ccNAS7gy.s:124    .text:000000000000008c .L0 
     /tmp/ccNAS7gy.s:126    .text:0000000000000090 .L0 
     /tmp/ccNAS7gy.s:127    .text:0000000000000090 .L0 
     /tmp/ccNAS7gy.s:133    .text:0000000000000098 .L0 
     /tmp/ccNAS7gy.s:134    .text:0000000000000098 .L0 
     /tmp/ccNAS7gy.s:137    .text:00000000000000a0 .L0 
     /tmp/ccNAS7gy.s:143    .text:00000000000000a0 _ZN7AVLTree13findSuccessorEPS_
GAS LISTING /tmp/ccNAS7gy.s 			page 41


     /tmp/ccNAS7gy.s:146    .text:00000000000000a0 .L0 
     /tmp/ccNAS7gy.s:148    .text:00000000000000a0 .L0 
     /tmp/ccNAS7gy.s:149    .text:00000000000000a4 .L0 
     /tmp/ccNAS7gy.s:151    .text:00000000000000a8 .L0 
     /tmp/ccNAS7gy.s:153    .text:00000000000000ac .L0 
     /tmp/ccNAS7gy.s:155    .text:00000000000000ac .L0 
     /tmp/ccNAS7gy.s:157    .text:00000000000000b0 .L0 
     /tmp/ccNAS7gy.s:159    .text:00000000000000b4 .L0 
     /tmp/ccNAS7gy.s:163    .text:00000000000000b8 .L0 
     /tmp/ccNAS7gy.s:164    .text:00000000000000b8 .L0 
     /tmp/ccNAS7gy.s:171    .text:00000000000000c4 .L0 
     /tmp/ccNAS7gy.s:172    .text:00000000000000c8 .L0 
     /tmp/ccNAS7gy.s:173    .text:00000000000000c8 .L0 
     /tmp/ccNAS7gy.s:174    .text:00000000000000c8 .L0 
     /tmp/ccNAS7gy.s:176    .text:00000000000000cc .L0 
     /tmp/ccNAS7gy.s:180    .text:00000000000000d0 .L0 
     /tmp/ccNAS7gy.s:182    .text:00000000000000d0 .L0 
     /tmp/ccNAS7gy.s:185    .text:00000000000000d8 .L0 
     /tmp/ccNAS7gy.s:191    .text:00000000000000d8 _ZN7AVLTree13rightRotationEPS_
     /tmp/ccNAS7gy.s:194    .text:00000000000000d8 .L0 
     /tmp/ccNAS7gy.s:196    .text:00000000000000d8 .L0 
     /tmp/ccNAS7gy.s:197    .text:00000000000000dc .L0 
     /tmp/ccNAS7gy.s:202    .text:00000000000000ec .L0 
     /tmp/ccNAS7gy.s:203    .text:00000000000000ec .L0 
     /tmp/ccNAS7gy.s:204    .text:00000000000000ec .L0 
     /tmp/ccNAS7gy.s:205    .text:00000000000000ec .L0 
     /tmp/ccNAS7gy.s:207    .text:00000000000000f0 .L0 
     /tmp/ccNAS7gy.s:210    .text:00000000000000f4 .L0 
     /tmp/ccNAS7gy.s:211    .text:00000000000000f4 .L0 
     /tmp/ccNAS7gy.s:214    .text:00000000000000f8 .L0 
     /tmp/ccNAS7gy.s:215    .text:00000000000000f8 .L0 
     /tmp/ccNAS7gy.s:218    .text:00000000000000fc .L0 
     /tmp/ccNAS7gy.s:219    .text:00000000000000fc .L0 
     /tmp/ccNAS7gy.s:221    .text:0000000000000100 .L0 
     /tmp/ccNAS7gy.s:222    .text:0000000000000100 .L0 
     /tmp/ccNAS7gy.s:224    .text:0000000000000104 .L0 
     /tmp/ccNAS7gy.s:225    .text:0000000000000104 .L0 
     /tmp/ccNAS7gy.s:227    .text:0000000000000108 .L0 
     /tmp/ccNAS7gy.s:229    .text:000000000000010c .L0 
     /tmp/ccNAS7gy.s:230    .text:000000000000010c .L0 
     /tmp/ccNAS7gy.s:232    .text:0000000000000110 .L0 
     /tmp/ccNAS7gy.s:234    .text:0000000000000114 .L0 
     /tmp/ccNAS7gy.s:235    .text:0000000000000114 .L0 
     /tmp/ccNAS7gy.s:239    .text:0000000000000118 .L0 
     /tmp/ccNAS7gy.s:240    .text:0000000000000118 .L0 
     /tmp/ccNAS7gy.s:245    .text:0000000000000128 .L0 
     /tmp/ccNAS7gy.s:247    .text:000000000000012c .L0 
     /tmp/ccNAS7gy.s:249    .text:0000000000000130 .L0 
     /tmp/ccNAS7gy.s:250    .text:0000000000000130 .L0 
     /tmp/ccNAS7gy.s:255    .text:0000000000000140 .L0 
     /tmp/ccNAS7gy.s:257    .text:0000000000000144 .L0 
     /tmp/ccNAS7gy.s:259    .text:0000000000000148 .L0 
     /tmp/ccNAS7gy.s:260    .text:0000000000000148 .L0 
     /tmp/ccNAS7gy.s:262    .text:0000000000000150 .L0 
     /tmp/ccNAS7gy.s:264    .text:0000000000000154 .L0 
     /tmp/ccNAS7gy.s:265    .text:0000000000000154 .L0 
     /tmp/ccNAS7gy.s:267    .text:0000000000000158 .L0 
GAS LISTING /tmp/ccNAS7gy.s 			page 42


     /tmp/ccNAS7gy.s:270    .text:000000000000015c .L0 
     /tmp/ccNAS7gy.s:273    .text:0000000000000160 .L0 
     /tmp/ccNAS7gy.s:275    .text:0000000000000164 .L0 
     /tmp/ccNAS7gy.s:281    .text:0000000000000164 _ZN7AVLTree12leftRotationEPS_
     /tmp/ccNAS7gy.s:284    .text:0000000000000164 .L0 
     /tmp/ccNAS7gy.s:286    .text:0000000000000164 .L0 
     /tmp/ccNAS7gy.s:287    .text:0000000000000168 .L0 
     /tmp/ccNAS7gy.s:292    .text:0000000000000178 .L0 
     /tmp/ccNAS7gy.s:293    .text:0000000000000178 .L0 
     /tmp/ccNAS7gy.s:294    .text:0000000000000178 .L0 
     /tmp/ccNAS7gy.s:295    .text:0000000000000178 .L0 
     /tmp/ccNAS7gy.s:297    .text:000000000000017c .L0 
     /tmp/ccNAS7gy.s:300    .text:0000000000000180 .L0 
     /tmp/ccNAS7gy.s:301    .text:0000000000000180 .L0 
     /tmp/ccNAS7gy.s:304    .text:0000000000000184 .L0 
     /tmp/ccNAS7gy.s:305    .text:0000000000000184 .L0 
     /tmp/ccNAS7gy.s:308    .text:0000000000000188 .L0 
     /tmp/ccNAS7gy.s:309    .text:0000000000000188 .L0 
     /tmp/ccNAS7gy.s:311    .text:000000000000018c .L0 
     /tmp/ccNAS7gy.s:312    .text:000000000000018c .L0 
     /tmp/ccNAS7gy.s:314    .text:0000000000000190 .L0 
     /tmp/ccNAS7gy.s:315    .text:0000000000000190 .L0 
     /tmp/ccNAS7gy.s:317    .text:0000000000000194 .L0 
     /tmp/ccNAS7gy.s:319    .text:0000000000000198 .L0 
     /tmp/ccNAS7gy.s:320    .text:0000000000000198 .L0 
     /tmp/ccNAS7gy.s:322    .text:000000000000019c .L0 
     /tmp/ccNAS7gy.s:324    .text:00000000000001a0 .L0 
     /tmp/ccNAS7gy.s:325    .text:00000000000001a0 .L0 
     /tmp/ccNAS7gy.s:329    .text:00000000000001a4 .L0 
     /tmp/ccNAS7gy.s:330    .text:00000000000001a4 .L0 
     /tmp/ccNAS7gy.s:335    .text:00000000000001b4 .L0 
     /tmp/ccNAS7gy.s:337    .text:00000000000001b8 .L0 
     /tmp/ccNAS7gy.s:339    .text:00000000000001bc .L0 
     /tmp/ccNAS7gy.s:340    .text:00000000000001bc .L0 
     /tmp/ccNAS7gy.s:345    .text:00000000000001cc .L0 
     /tmp/ccNAS7gy.s:347    .text:00000000000001d0 .L0 
     /tmp/ccNAS7gy.s:349    .text:00000000000001d4 .L0 
     /tmp/ccNAS7gy.s:350    .text:00000000000001d4 .L0 
     /tmp/ccNAS7gy.s:352    .text:00000000000001dc .L0 
     /tmp/ccNAS7gy.s:354    .text:00000000000001e0 .L0 
     /tmp/ccNAS7gy.s:355    .text:00000000000001e0 .L0 
     /tmp/ccNAS7gy.s:357    .text:00000000000001e4 .L0 
     /tmp/ccNAS7gy.s:360    .text:00000000000001e8 .L0 
     /tmp/ccNAS7gy.s:363    .text:00000000000001ec .L0 
     /tmp/ccNAS7gy.s:365    .text:00000000000001f0 .L0 
     /tmp/ccNAS7gy.s:371    .text:00000000000001f0 _ZN7AVLTree8containsEPKS_S1_
     /tmp/ccNAS7gy.s:374    .text:00000000000001f0 .L0 
     /tmp/ccNAS7gy.s:376    .text:00000000000001f0 .L0 
     /tmp/ccNAS7gy.s:377    .text:00000000000001f4 .L0 
     /tmp/ccNAS7gy.s:379    .text:00000000000001f8 .L0 
     /tmp/ccNAS7gy.s:381    .text:00000000000001fc .L0 
     /tmp/ccNAS7gy.s:386    .text:0000000000000200 .L0 
     /tmp/ccNAS7gy.s:387    .text:0000000000000200 .L0 
     /tmp/ccNAS7gy.s:391    .text:0000000000000204 .L0 
     /tmp/ccNAS7gy.s:392    .text:0000000000000204 .L0 
     /tmp/ccNAS7gy.s:394    .text:0000000000000208 .L0 
     /tmp/ccNAS7gy.s:396    .text:000000000000020c .L0 
GAS LISTING /tmp/ccNAS7gy.s 			page 43


     /tmp/ccNAS7gy.s:397    .text:000000000000020c .L0 
     /tmp/ccNAS7gy.s:399    .text:0000000000000210 .L0 
     /tmp/ccNAS7gy.s:401    .text:0000000000000214 .L0 
     /tmp/ccNAS7gy.s:403    .text:0000000000000218 .L0 
     /tmp/ccNAS7gy.s:405    .text:000000000000021c .L0 
     /tmp/ccNAS7gy.s:406    .text:000000000000021c .L0 
     /tmp/ccNAS7gy.s:411    .text:0000000000000224 .L0 
     /tmp/ccNAS7gy.s:412    .text:0000000000000224 .L0 
     /tmp/ccNAS7gy.s:417    .text:000000000000022c .L0 
     /tmp/ccNAS7gy.s:421    .text:0000000000000230 .L0 
     /tmp/ccNAS7gy.s:422    .text:0000000000000234 .L0 
     /tmp/ccNAS7gy.s:423    .text:0000000000000234 .L0 
     /tmp/ccNAS7gy.s:424    .text:0000000000000234 .L0 
     /tmp/ccNAS7gy.s:426    .text:0000000000000238 .L0 
     /tmp/ccNAS7gy.s:430    .text:000000000000023c .L0 
     /tmp/ccNAS7gy.s:432    .text:000000000000023c .L0 
     /tmp/ccNAS7gy.s:435    .text:0000000000000244 .L0 
     /tmp/ccNAS7gy.s:441    .text:0000000000000244 _ZN7AVLTree7balanceEPS_
     /tmp/ccNAS7gy.s:444    .text:0000000000000244 .L0 
     /tmp/ccNAS7gy.s:446    .text:0000000000000244 .L0 
     /tmp/ccNAS7gy.s:447    .text:0000000000000248 .L0 
     /tmp/ccNAS7gy.s:456    .text:0000000000000268 .L0 
     /tmp/ccNAS7gy.s:457    .text:0000000000000268 .L0 
     /tmp/ccNAS7gy.s:458    .text:0000000000000268 .L0 
     /tmp/ccNAS7gy.s:459    .text:0000000000000268 .L0 
     /tmp/ccNAS7gy.s:460    .text:0000000000000268 .L0 
     /tmp/ccNAS7gy.s:461    .text:0000000000000268 .L0 
     /tmp/ccNAS7gy.s:462    .text:0000000000000268 .L0 
     /tmp/ccNAS7gy.s:463    .text:0000000000000268 .L0 
     /tmp/ccNAS7gy.s:465    .text:000000000000026c .L0 
     /tmp/ccNAS7gy.s:469    .text:0000000000000270 .L0 
     /tmp/ccNAS7gy.s:470    .text:0000000000000270 .L0 
     /tmp/ccNAS7gy.s:478    .text:0000000000000278 .L0 
     /tmp/ccNAS7gy.s:482    .text:0000000000000280 .L0 
     /tmp/ccNAS7gy.s:491    .text:0000000000000288 .L0 
     /tmp/ccNAS7gy.s:498    .text:0000000000000298 .L0 
     /tmp/ccNAS7gy.s:508    .text:00000000000002a8 .L0 
     /tmp/ccNAS7gy.s:510    .text:00000000000002ac .L0 
     /tmp/ccNAS7gy.s:512    .text:00000000000002b0 .L0 
     /tmp/ccNAS7gy.s:513    .text:00000000000002b0 .L0 
     /tmp/ccNAS7gy.s:519    .text:00000000000002c0 .L0 
     /tmp/ccNAS7gy.s:520    .text:00000000000002c0 .L0 
     /tmp/ccNAS7gy.s:522    .text:00000000000002c4 .L0 
     /tmp/ccNAS7gy.s:524    .text:00000000000002c8 .L0 
     /tmp/ccNAS7gy.s:526    .text:00000000000002cc .L0 
     /tmp/ccNAS7gy.s:529    .text:00000000000002d0 .L0 
     /tmp/ccNAS7gy.s:530    .text:00000000000002d0 .L0 
     /tmp/ccNAS7gy.s:537    .text:00000000000002e0 .L0 
     /tmp/ccNAS7gy.s:541    .text:00000000000002e4 .L0 
     /tmp/ccNAS7gy.s:546    .text:00000000000002ec .L0 
     /tmp/ccNAS7gy.s:547    .text:00000000000002ec .L0 
     /tmp/ccNAS7gy.s:556    .text:0000000000000300 .L0 
     /tmp/ccNAS7gy.s:557    .text:0000000000000300 .L0 
     /tmp/ccNAS7gy.s:561    .text:000000000000030c .L0 
     /tmp/ccNAS7gy.s:562    .text:000000000000030c .L0 
     /tmp/ccNAS7gy.s:564    .text:0000000000000310 .L0 
     /tmp/ccNAS7gy.s:566    .text:0000000000000314 .L0 
GAS LISTING /tmp/ccNAS7gy.s 			page 44


     /tmp/ccNAS7gy.s:568    .text:0000000000000318 .L0 
     /tmp/ccNAS7gy.s:571    .text:000000000000031c .L0 
     /tmp/ccNAS7gy.s:572    .text:000000000000031c .L0 
     /tmp/ccNAS7gy.s:579    .text:000000000000032c .L0 
     /tmp/ccNAS7gy.s:583    .text:0000000000000330 .L0 
     /tmp/ccNAS7gy.s:588    .text:0000000000000338 .L0 
     /tmp/ccNAS7gy.s:589    .text:0000000000000338 .L0 
     /tmp/ccNAS7gy.s:598    .text:000000000000034c .L0 
     /tmp/ccNAS7gy.s:602    .text:0000000000000350 .L0 
     /tmp/ccNAS7gy.s:603    .text:0000000000000350 .L0 
     /tmp/ccNAS7gy.s:604    .text:0000000000000350 .L0 
     /tmp/ccNAS7gy.s:609    .text:0000000000000354 .L0 
     /tmp/ccNAS7gy.s:610    .text:0000000000000354 .L0 
     /tmp/ccNAS7gy.s:613    .text:0000000000000358 .L0 
     /tmp/ccNAS7gy.s:614    .text:0000000000000358 .L0 
     /tmp/ccNAS7gy.s:616    .text:000000000000035c .L0 
     /tmp/ccNAS7gy.s:618    .text:0000000000000360 .L0 
     /tmp/ccNAS7gy.s:623    .text:0000000000000370 .L0 
     /tmp/ccNAS7gy.s:625    .text:0000000000000374 .L0 
     /tmp/ccNAS7gy.s:630    .text:0000000000000378 .L0 
     /tmp/ccNAS7gy.s:631    .text:0000000000000378 .L0 
     /tmp/ccNAS7gy.s:632    .text:0000000000000378 .L0 
     /tmp/ccNAS7gy.s:634    .text:000000000000037c .L0 
     /tmp/ccNAS7gy.s:636    .text:0000000000000380 .L0 
     /tmp/ccNAS7gy.s:639    .text:0000000000000384 .L0 
     /tmp/ccNAS7gy.s:641    .text:0000000000000388 .L0 
     /tmp/ccNAS7gy.s:643    .text:000000000000038c .L0 
     /tmp/ccNAS7gy.s:646    .text:0000000000000390 .L0 
     /tmp/ccNAS7gy.s:654    .text:0000000000000398 .L0 
     /tmp/ccNAS7gy.s:655    .text:0000000000000398 .L0 
     /tmp/ccNAS7gy.s:656    .text:0000000000000398 .L0 
     /tmp/ccNAS7gy.s:658    .text:000000000000039c .L0 
     /tmp/ccNAS7gy.s:660    .text:00000000000003a0 .L0 
     /tmp/ccNAS7gy.s:662    .text:00000000000003a4 .L0 
     /tmp/ccNAS7gy.s:664    .text:00000000000003a8 .L0 
     /tmp/ccNAS7gy.s:667    .text:00000000000003ac .L0 
     /tmp/ccNAS7gy.s:669    .text:00000000000003b0 .L0 
     /tmp/ccNAS7gy.s:671    .text:00000000000003b4 .L0 
     /tmp/ccNAS7gy.s:673    .text:00000000000003b8 .L0 
     /tmp/ccNAS7gy.s:675    .text:00000000000003bc .L0 
     /tmp/ccNAS7gy.s:678    .text:00000000000003c0 .L0 
     /tmp/ccNAS7gy.s:683    .text:00000000000003c4 .L0 
     /tmp/ccNAS7gy.s:684    .text:00000000000003c4 .L0 
     /tmp/ccNAS7gy.s:687    .text:00000000000003c8 .L0 
     /tmp/ccNAS7gy.s:691    .text:00000000000003d0 .L0 
     /tmp/ccNAS7gy.s:695    .text:00000000000003d8 .L0 
     /tmp/ccNAS7gy.s:698    .text:00000000000003e0 .L0 
     /tmp/ccNAS7gy.s:701    .text:00000000000003e4 .L0 
     /tmp/ccNAS7gy.s:704    .text:00000000000003e8 .L0 
     /tmp/ccNAS7gy.s:710    .text:00000000000003f4 .L0 
     /tmp/ccNAS7gy.s:712    .text:00000000000003f8 .L0 
     /tmp/ccNAS7gy.s:713    .text:00000000000003f8 .L0 
     /tmp/ccNAS7gy.s:715    .text:00000000000003fc .L0 
     /tmp/ccNAS7gy.s:717    .text:0000000000000400 .L0 
     /tmp/ccNAS7gy.s:719    .text:0000000000000404 .L0 
     /tmp/ccNAS7gy.s:725    .text:000000000000040c .L0 
     /tmp/ccNAS7gy.s:727    .text:0000000000000414 .L0 
GAS LISTING /tmp/ccNAS7gy.s 			page 45


     /tmp/ccNAS7gy.s:729    .text:0000000000000418 .L0 
     /tmp/ccNAS7gy.s:730    .text:0000000000000418 .L0 
     /tmp/ccNAS7gy.s:732    .text:000000000000041c .L0 
     /tmp/ccNAS7gy.s:735    .text:0000000000000420 .L0 
     /tmp/ccNAS7gy.s:738    .text:0000000000000424 .L0 
     /tmp/ccNAS7gy.s:740    .text:0000000000000428 .L0 
     /tmp/ccNAS7gy.s:742    .text:000000000000042c .L0 
     /tmp/ccNAS7gy.s:744    .text:0000000000000430 .L0 
     /tmp/ccNAS7gy.s:746    .text:0000000000000434 .L0 
     /tmp/ccNAS7gy.s:748    .text:0000000000000438 .L0 
     /tmp/ccNAS7gy.s:754    .text:0000000000000438 _ZN7AVLTree6insertEPS_S0_
     /tmp/ccNAS7gy.s:757    .text:0000000000000438 .L0 
     /tmp/ccNAS7gy.s:759    .text:0000000000000438 .L0 
     /tmp/ccNAS7gy.s:760    .text:0000000000000438 .L0 
     /tmp/ccNAS7gy.s:763    .text:0000000000000440 .L0 
     /tmp/ccNAS7gy.s:765    .text:0000000000000444 .L0 
     /tmp/ccNAS7gy.s:771    .text:000000000000044c .L0 
     /tmp/ccNAS7gy.s:772    .text:000000000000044c .L0 
     /tmp/ccNAS7gy.s:774    .text:0000000000000450 .L0 
     /tmp/ccNAS7gy.s:776    .text:0000000000000454 .L0 
     /tmp/ccNAS7gy.s:777    .text:0000000000000454 .L0 
     /tmp/ccNAS7gy.s:780    .text:0000000000000458 .L0 
     /tmp/ccNAS7gy.s:781    .text:0000000000000458 .L0 
     /tmp/ccNAS7gy.s:783    .text:000000000000045c .L0 
     /tmp/ccNAS7gy.s:785    .text:0000000000000460 .L0 
     /tmp/ccNAS7gy.s:786    .text:0000000000000460 .L0 
     /tmp/ccNAS7gy.s:788    .text:0000000000000464 .L0 
     /tmp/ccNAS7gy.s:789    .text:0000000000000464 .L0 
     /tmp/ccNAS7gy.s:791    .text:0000000000000468 .L0 
     /tmp/ccNAS7gy.s:792    .text:0000000000000468 .L0 
     /tmp/ccNAS7gy.s:798    .text:0000000000000470 .L0 
     /tmp/ccNAS7gy.s:799    .text:0000000000000470 .L0 
     /tmp/ccNAS7gy.s:803    .text:0000000000000474 .L0 
     /tmp/ccNAS7gy.s:808    .text:000000000000047c .L0 
     /tmp/ccNAS7gy.s:809    .text:000000000000047c .L0 
     /tmp/ccNAS7gy.s:811    .text:0000000000000480 .L0 
     /tmp/ccNAS7gy.s:812    .text:0000000000000480 .L0 
     /tmp/ccNAS7gy.s:814    .text:0000000000000484 .L0 
     /tmp/ccNAS7gy.s:816    .text:0000000000000488 .L0 
     /tmp/ccNAS7gy.s:819    .text:000000000000048c .L0 
     /tmp/ccNAS7gy.s:820    .text:000000000000048c .L0 
     /tmp/ccNAS7gy.s:822    .text:0000000000000490 .L0 
     /tmp/ccNAS7gy.s:823    .text:0000000000000490 .L0 
     /tmp/ccNAS7gy.s:829    .text:0000000000000498 .L0 
     /tmp/ccNAS7gy.s:830    .text:000000000000049c .L0 
     /tmp/ccNAS7gy.s:833    .text:00000000000004a4 .L0 
     /tmp/ccNAS7gy.s:834    .text:00000000000004a4 .L0 
     /tmp/ccNAS7gy.s:836    .text:00000000000004a8 .L0 
     /tmp/ccNAS7gy.s:838    .text:00000000000004a8 .L0 
     /tmp/ccNAS7gy.s:839    .text:00000000000004a8 .L0 
     /tmp/ccNAS7gy.s:841    .text:00000000000004ac .L0 
     /tmp/ccNAS7gy.s:844    .text:00000000000004b0 .L0 
     /tmp/ccNAS7gy.s:846    .text:00000000000004b4 .L0 
     /tmp/ccNAS7gy.s:849    .text:00000000000004b8 .L0 
     /tmp/ccNAS7gy.s:850    .text:00000000000004b8 .L0 
     /tmp/ccNAS7gy.s:853    .text:00000000000004bc .L0 
     /tmp/ccNAS7gy.s:854    .text:00000000000004bc .L0 
GAS LISTING /tmp/ccNAS7gy.s 			page 46


     /tmp/ccNAS7gy.s:855    .text:00000000000004bc .L0 
     /tmp/ccNAS7gy.s:856    .text:00000000000004bc .L0 
     /tmp/ccNAS7gy.s:859    .text:00000000000004c4 .L0 
     /tmp/ccNAS7gy.s:860    .text:00000000000004c8 .L0 
     /tmp/ccNAS7gy.s:861    .text:00000000000004c8 .L0 
     /tmp/ccNAS7gy.s:863    .text:00000000000004cc .L0 
     /tmp/ccNAS7gy.s:864    .text:00000000000004cc .L0 
     /tmp/ccNAS7gy.s:866    .text:00000000000004d0 .L0 
     /tmp/ccNAS7gy.s:870    .text:00000000000004d4 .L0 
     /tmp/ccNAS7gy.s:872    .text:00000000000004d4 .L0 
     /tmp/ccNAS7gy.s:876    .text:00000000000004dc .L0 
     /tmp/ccNAS7gy.s:877    .text:00000000000004dc .L0 
     /tmp/ccNAS7gy.s:878    .text:00000000000004dc .L0 
     /tmp/ccNAS7gy.s:880    .text:00000000000004dc .L0 
     /tmp/ccNAS7gy.s:883    .text:00000000000004e0 .L0 
     /tmp/ccNAS7gy.s:884    .text:00000000000004e4 .L0 
     /tmp/ccNAS7gy.s:890    .text:00000000000004e4 _ZN7AVLTree6removeEPS_S0_
     /tmp/ccNAS7gy.s:893    .text:00000000000004e4 .L0 
     /tmp/ccNAS7gy.s:895    .text:00000000000004e4 .L0 
     /tmp/ccNAS7gy.s:896    .text:00000000000004e8 .L0 
     /tmp/ccNAS7gy.s:902    .text:00000000000004fc .L0 
     /tmp/ccNAS7gy.s:903    .text:00000000000004fc .L0 
     /tmp/ccNAS7gy.s:904    .text:00000000000004fc .L0 
     /tmp/ccNAS7gy.s:905    .text:00000000000004fc .L0 
     /tmp/ccNAS7gy.s:906    .text:00000000000004fc .L0 
     /tmp/ccNAS7gy.s:908    .text:0000000000000500 .L0 
     /tmp/ccNAS7gy.s:911    .text:0000000000000504 .L0 
     /tmp/ccNAS7gy.s:914    .text:000000000000050c .L0 
     /tmp/ccNAS7gy.s:915    .text:000000000000050c .L0 
     /tmp/ccNAS7gy.s:917    .text:0000000000000510 .L0 
     /tmp/ccNAS7gy.s:920    .text:0000000000000518 .L0 
     /tmp/ccNAS7gy.s:923    .text:000000000000051c .L0 
     /tmp/ccNAS7gy.s:924    .text:000000000000051c .L0 
     /tmp/ccNAS7gy.s:926    .text:0000000000000520 .L0 
     /tmp/ccNAS7gy.s:929    .text:0000000000000524 .L0 
     /tmp/ccNAS7gy.s:930    .text:0000000000000524 .L0 
     /tmp/ccNAS7gy.s:933    .text:0000000000000528 .L0 
     /tmp/ccNAS7gy.s:936    .text:000000000000052c .L0 
     /tmp/ccNAS7gy.s:939    .text:0000000000000530 .L0 
     /tmp/ccNAS7gy.s:942    .text:0000000000000534 .L0 
     /tmp/ccNAS7gy.s:944    .text:0000000000000538 .L0 
     /tmp/ccNAS7gy.s:945    .text:0000000000000538 .L0 
     /tmp/ccNAS7gy.s:948    .text:000000000000053c .L0 
     /tmp/ccNAS7gy.s:953    .text:0000000000000540 .L0 
     /tmp/ccNAS7gy.s:954    .text:0000000000000540 .L0 
     /tmp/ccNAS7gy.s:955    .text:0000000000000540 .L0 
     /tmp/ccNAS7gy.s:957    .text:0000000000000544 .L0 
     /tmp/ccNAS7gy.s:959    .text:0000000000000548 .L0 
     /tmp/ccNAS7gy.s:961    .text:000000000000054c .L0 
     /tmp/ccNAS7gy.s:967    .text:0000000000000550 .L0 
     /tmp/ccNAS7gy.s:970    .text:0000000000000554 .L0 
     /tmp/ccNAS7gy.s:972    .text:0000000000000558 .L0 
     /tmp/ccNAS7gy.s:973    .text:0000000000000558 .L0 
     /tmp/ccNAS7gy.s:976    .text:000000000000055c .L0 
     /tmp/ccNAS7gy.s:978    .text:0000000000000560 .L0 
     /tmp/ccNAS7gy.s:979    .text:0000000000000560 .L0 
     /tmp/ccNAS7gy.s:982    .text:0000000000000564 .L0 
GAS LISTING /tmp/ccNAS7gy.s 			page 47


     /tmp/ccNAS7gy.s:983    .text:0000000000000564 .L0 
     /tmp/ccNAS7gy.s:985    .text:0000000000000568 .L0 
     /tmp/ccNAS7gy.s:986    .text:0000000000000568 .L0 
     /tmp/ccNAS7gy.s:988    .text:000000000000056c .L0 
     /tmp/ccNAS7gy.s:989    .text:000000000000056c .L0 
     /tmp/ccNAS7gy.s:991    .text:0000000000000570 .L0 
     /tmp/ccNAS7gy.s:992    .text:0000000000000570 .L0 
     /tmp/ccNAS7gy.s:994    .text:0000000000000574 .L0 
     /tmp/ccNAS7gy.s:995    .text:0000000000000574 .L0 
     /tmp/ccNAS7gy.s:1001   .text:0000000000000578 .L0 
     /tmp/ccNAS7gy.s:1003   .text:0000000000000580 .L0 
     /tmp/ccNAS7gy.s:1004   .text:0000000000000580 .L0 
     /tmp/ccNAS7gy.s:1006   .text:0000000000000584 .L0 
     /tmp/ccNAS7gy.s:1007   .text:0000000000000584 .L0 
     /tmp/ccNAS7gy.s:1009   .text:0000000000000588 .L0 
     /tmp/ccNAS7gy.s:1011   .text:000000000000058c .L0 
     /tmp/ccNAS7gy.s:1013   .text:0000000000000590 .L0 
     /tmp/ccNAS7gy.s:1015   .text:0000000000000594 .L0 
     /tmp/ccNAS7gy.s:1019   .text:0000000000000598 .L0 
     /tmp/ccNAS7gy.s:1023   .text:0000000000000598 .L0 
     /tmp/ccNAS7gy.s:1027   .text:00000000000005a0 .L0 
     /tmp/ccNAS7gy.s:1030   .text:00000000000005a4 .L0 
     /tmp/ccNAS7gy.s:1036   .text:00000000000005a8 .L0 
     /tmp/ccNAS7gy.s:1037   .text:00000000000005a8 .L0 
     /tmp/ccNAS7gy.s:1039   .text:00000000000005ac .L0 
     /tmp/ccNAS7gy.s:1041   .text:00000000000005b0 .L0 
     /tmp/ccNAS7gy.s:1042   .text:00000000000005b0 .L0 
     /tmp/ccNAS7gy.s:1044   .text:00000000000005b4 .L0 
     /tmp/ccNAS7gy.s:1045   .text:00000000000005b4 .L0 
     /tmp/ccNAS7gy.s:1048   .text:00000000000005b8 .L0 
     /tmp/ccNAS7gy.s:1050   .text:00000000000005b8 .L0 
     /tmp/ccNAS7gy.s:1051   .text:00000000000005b8 .L0 
     /tmp/ccNAS7gy.s:1053   .text:00000000000005bc .L0 
     /tmp/ccNAS7gy.s:1059   .text:00000000000005c0 .L0 
     /tmp/ccNAS7gy.s:1061   .text:00000000000005c4 .L0 
     /tmp/ccNAS7gy.s:1063   .text:00000000000005c8 .L0 
     /tmp/ccNAS7gy.s:1066   .text:00000000000005cc .L0 
     /tmp/ccNAS7gy.s:1067   .text:00000000000005cc .L0 
     /tmp/ccNAS7gy.s:1073   .text:00000000000005dc .L0 
     /tmp/ccNAS7gy.s:1075   .text:00000000000005e0 .L0 
     /tmp/ccNAS7gy.s:1076   .text:00000000000005e0 .L0 
     /tmp/ccNAS7gy.s:1079   .text:00000000000005e4 .L0 
     /tmp/ccNAS7gy.s:1084   .text:00000000000005e8 .L0 
     /tmp/ccNAS7gy.s:1085   .text:00000000000005e8 .L0 
     /tmp/ccNAS7gy.s:1086   .text:00000000000005e8 .L0 
     /tmp/ccNAS7gy.s:1088   .text:00000000000005ec .L0 
     /tmp/ccNAS7gy.s:1090   .text:00000000000005f0 .L0 
     /tmp/ccNAS7gy.s:1092   .text:00000000000005f4 .L0 
     /tmp/ccNAS7gy.s:1098   .text:00000000000005f8 .L0 
     /tmp/ccNAS7gy.s:1101   .text:00000000000005fc .L0 
     /tmp/ccNAS7gy.s:1102   .text:00000000000005fc .L0 
     /tmp/ccNAS7gy.s:1104   .text:0000000000000600 .L0 
     /tmp/ccNAS7gy.s:1106   .text:0000000000000604 .L0 
     /tmp/ccNAS7gy.s:1107   .text:0000000000000604 .L0 
     /tmp/ccNAS7gy.s:1109   .text:0000000000000608 .L0 
     /tmp/ccNAS7gy.s:1111   .text:000000000000060c .L0 
     /tmp/ccNAS7gy.s:1112   .text:000000000000060c .L0 
GAS LISTING /tmp/ccNAS7gy.s 			page 48


     /tmp/ccNAS7gy.s:1114   .text:0000000000000610 .L0 
     /tmp/ccNAS7gy.s:1116   .text:0000000000000614 .L0 
     /tmp/ccNAS7gy.s:1118   .text:0000000000000618 .L0 
     /tmp/ccNAS7gy.s:1120   .text:000000000000061c .L0 
     /tmp/ccNAS7gy.s:1121   .text:000000000000061c .L0 
     /tmp/ccNAS7gy.s:1123   .text:0000000000000620 .L0 
     /tmp/ccNAS7gy.s:1126   .text:0000000000000624 .L0 
     /tmp/ccNAS7gy.s:1127   .text:0000000000000624 .L0 
     /tmp/ccNAS7gy.s:1129   .text:0000000000000628 .L0 
     /tmp/ccNAS7gy.s:1131   .text:000000000000062c .L0 
     /tmp/ccNAS7gy.s:1132   .text:000000000000062c .L0 
     /tmp/ccNAS7gy.s:1134   .text:0000000000000630 .L0 
     /tmp/ccNAS7gy.s:1136   .text:0000000000000634 .L0 
     /tmp/ccNAS7gy.s:1137   .text:0000000000000634 .L0 
     /tmp/ccNAS7gy.s:1139   .text:0000000000000638 .L0 
     /tmp/ccNAS7gy.s:1146   .text:0000000000000640 .L0 
     /tmp/ccNAS7gy.s:1148   .text:0000000000000644 .L0 
     /tmp/ccNAS7gy.s:1150   .text:0000000000000648 .L0 
     /tmp/ccNAS7gy.s:1151   .text:0000000000000648 .L0 
     /tmp/ccNAS7gy.s:1154   .text:000000000000064c .L0 
     /tmp/ccNAS7gy.s:1159   .text:0000000000000650 .L0 
     /tmp/ccNAS7gy.s:1160   .text:0000000000000650 .L0 
     /tmp/ccNAS7gy.s:1161   .text:0000000000000650 .L0 
     /tmp/ccNAS7gy.s:1163   .text:0000000000000654 .L0 
     /tmp/ccNAS7gy.s:1165   .text:0000000000000658 .L0 
     /tmp/ccNAS7gy.s:1171   .text:000000000000065c .L0 
     /tmp/ccNAS7gy.s:1181   .text:000000000000066c .L0 
     /tmp/ccNAS7gy.s:1182   .text:000000000000066c .L0 
     /tmp/ccNAS7gy.s:1185   .text:0000000000000670 .L0 
     /tmp/ccNAS7gy.s:1188   .text:0000000000000674 .L0 
     /tmp/ccNAS7gy.s:1193   .text:0000000000000678 .L0 
     /tmp/ccNAS7gy.s:1194   .text:0000000000000678 .L0 
     /tmp/ccNAS7gy.s:1195   .text:0000000000000678 .L0 
     /tmp/ccNAS7gy.s:1197   .text:000000000000067c .L0 
     /tmp/ccNAS7gy.s:1199   .text:0000000000000680 .L0 
     /tmp/ccNAS7gy.s:1201   .text:0000000000000684 .L0 
     /tmp/ccNAS7gy.s:1207   .text:0000000000000688 .L0 
     /tmp/ccNAS7gy.s:1209   .text:000000000000068c .L0 
     /tmp/ccNAS7gy.s:1212   .text:0000000000000690 .L0 
     /tmp/ccNAS7gy.s:1217   .text:0000000000000694 .L0 
     /tmp/ccNAS7gy.s:1218   .text:0000000000000694 .L0 
     /tmp/ccNAS7gy.s:1223   .text:00000000000006a0 .L0 
     /tmp/ccNAS7gy.s:1229   .text:00000000000006a4 .L0 
     /tmp/ccNAS7gy.s:1230   .text:00000000000006a4 .L0 
     /tmp/ccNAS7gy.s:1234   .text:00000000000006a8 .L0 
     /tmp/ccNAS7gy.s:1235   .text:00000000000006a8 .L0 
     /tmp/ccNAS7gy.s:1237   .text:00000000000006ac .L0 
     /tmp/ccNAS7gy.s:1242   .text:00000000000006b4 .L0 
     /tmp/ccNAS7gy.s:1247   .text:00000000000006bc .L0 
     /tmp/ccNAS7gy.s:1249   .text:00000000000006c0 .L0 
     /tmp/ccNAS7gy.s:1252   .text:00000000000006c4 .L0 
     /tmp/ccNAS7gy.s:1256   .text:00000000000006cc .L0 
     /tmp/ccNAS7gy.s:1260   .text:00000000000006d4 .L0 
     /tmp/ccNAS7gy.s:1266   .text:00000000000006dc .L0 
     /tmp/ccNAS7gy.s:1267   .text:00000000000006dc .L0 
     /tmp/ccNAS7gy.s:1272   .text:00000000000006e0 .L0 
     /tmp/ccNAS7gy.s:1273   .text:00000000000006e0 .L0 
GAS LISTING /tmp/ccNAS7gy.s 			page 49


     /tmp/ccNAS7gy.s:1274   .text:00000000000006e0 .L0 
     /tmp/ccNAS7gy.s:1276   .text:00000000000006e4 .L0 
     /tmp/ccNAS7gy.s:1278   .text:00000000000006e8 .L0 
     /tmp/ccNAS7gy.s:1280   .text:00000000000006ec .L0 
     /tmp/ccNAS7gy.s:1286   .text:00000000000006f0 .L0 
     /tmp/ccNAS7gy.s:1289   .text:00000000000006f4 .L0 
     /tmp/ccNAS7gy.s:1290   .text:00000000000006f4 .L0 
     /tmp/ccNAS7gy.s:1292   .text:00000000000006f8 .L0 
     /tmp/ccNAS7gy.s:1294   .text:00000000000006fc .L0 
     /tmp/ccNAS7gy.s:1295   .text:00000000000006fc .L0 
     /tmp/ccNAS7gy.s:1297   .text:0000000000000700 .L0 
     /tmp/ccNAS7gy.s:1299   .text:0000000000000704 .L0 
     /tmp/ccNAS7gy.s:1300   .text:0000000000000704 .L0 
     /tmp/ccNAS7gy.s:1302   .text:0000000000000708 .L0 
     /tmp/ccNAS7gy.s:1304   .text:000000000000070c .L0 
     /tmp/ccNAS7gy.s:1305   .text:000000000000070c .L0 
     /tmp/ccNAS7gy.s:1307   .text:0000000000000710 .L0 
     /tmp/ccNAS7gy.s:1309   .text:0000000000000714 .L0 
     /tmp/ccNAS7gy.s:1315   .text:000000000000071c .L0 
     /tmp/ccNAS7gy.s:1320   .text:0000000000000724 .L0 
     /tmp/ccNAS7gy.s:1325   .text:000000000000072c .L0 
     /tmp/ccNAS7gy.s:1331   .text:000000000000072c _ZN7AVLTree6swapLLEPS_S0_S0_
     /tmp/ccNAS7gy.s:1334   .text:000000000000072c .L0 
     /tmp/ccNAS7gy.s:1336   .text:000000000000072c .L0 
     /tmp/ccNAS7gy.s:1337   .text:0000000000000730 .L0 
     /tmp/ccNAS7gy.s:1339   .text:0000000000000734 .L0 
     /tmp/ccNAS7gy.s:1341   .text:0000000000000738 .L0 
     /tmp/ccNAS7gy.s:1346   .text:0000000000000740 .L0 
     /tmp/ccNAS7gy.s:1348   .text:0000000000000744 .L0 
     /tmp/ccNAS7gy.s:1350   .text:0000000000000748 .L0 
     /tmp/ccNAS7gy.s:1352   .text:000000000000074c .L0 
     /tmp/ccNAS7gy.s:1354   .text:0000000000000750 .L0 
     /tmp/ccNAS7gy.s:1356   .text:0000000000000754 .L0 
     /tmp/ccNAS7gy.s:1357   .text:0000000000000754 .L0 
     /tmp/ccNAS7gy.s:1360   .text:0000000000000758 .L0 
     /tmp/ccNAS7gy.s:1361   .text:0000000000000758 .L0 
     /tmp/ccNAS7gy.s:1364   .text:000000000000075c .L0 
     /tmp/ccNAS7gy.s:1365   .text:000000000000075c .L0 
     /tmp/ccNAS7gy.s:1367   .text:0000000000000760 .L0 
     /tmp/ccNAS7gy.s:1368   .text:0000000000000760 .L0 
     /tmp/ccNAS7gy.s:1370   .text:0000000000000764 .L0 
     /tmp/ccNAS7gy.s:1372   .text:0000000000000768 .L0 
     /tmp/ccNAS7gy.s:1373   .text:0000000000000768 .L0 
     /tmp/ccNAS7gy.s:1376   .text:000000000000076c .L0 
     /tmp/ccNAS7gy.s:1377   .text:000000000000076c .L0 
     /tmp/ccNAS7gy.s:1381   .text:0000000000000770 .L0 
     /tmp/ccNAS7gy.s:1382   .text:0000000000000770 .L0 
     /tmp/ccNAS7gy.s:1383   .text:0000000000000774 .L0 
     /tmp/ccNAS7gy.s:1384   .text:0000000000000774 .L0 
     /tmp/ccNAS7gy.s:1385   .text:0000000000000774 .L0 
     /tmp/ccNAS7gy.s:1387   .text:0000000000000778 .L0 
     /tmp/ccNAS7gy.s:1391   .text:000000000000077c .L0 
     /tmp/ccNAS7gy.s:1393   .text:000000000000077c .L0 
     /tmp/ccNAS7gy.s:1394   .text:000000000000077c .L0 
     /tmp/ccNAS7gy.s:1397   .text:0000000000000780 .L0 
     /tmp/ccNAS7gy.s:1399   .text:0000000000000784 .L0 
     /tmp/ccNAS7gy.s:1400   .text:0000000000000784 .L0 
GAS LISTING /tmp/ccNAS7gy.s 			page 50


     /tmp/ccNAS7gy.s:1402   .text:0000000000000788 .L0 
     /tmp/ccNAS7gy.s:1403   .text:0000000000000788 .L0 
     /tmp/ccNAS7gy.s:1405   .text:000000000000078c .L0 
     /tmp/ccNAS7gy.s:1407   .text:0000000000000790 .L0 
     /tmp/ccNAS7gy.s:1408   .text:0000000000000790 .L0 
     /tmp/ccNAS7gy.s:1411   .text:0000000000000794 .L0 
     /tmp/ccNAS7gy.s:1412   .text:0000000000000794 .L0 
     /tmp/ccNAS7gy.s:1415   .text:000000000000079c .L0 
     /tmp/ccNAS7gy.s:1421   .text:000000000000079c _ZN7AVLTree8removeLLEPS_S0_
     /tmp/ccNAS7gy.s:1424   .text:000000000000079c .L0 
     /tmp/ccNAS7gy.s:1426   .text:000000000000079c .L0 
     /tmp/ccNAS7gy.s:1427   .text:00000000000007a0 .L0 
     /tmp/ccNAS7gy.s:1429   .text:00000000000007a4 .L0 
     /tmp/ccNAS7gy.s:1431   .text:00000000000007a8 .L0 
     /tmp/ccNAS7gy.s:1434   .text:00000000000007ac .L0 
     /tmp/ccNAS7gy.s:1438   .text:00000000000007b4 .L0 
     /tmp/ccNAS7gy.s:1440   .text:00000000000007b8 .L0 
     /tmp/ccNAS7gy.s:1442   .text:00000000000007bc .L0 
     /tmp/ccNAS7gy.s:1443   .text:00000000000007bc .L0 
     /tmp/ccNAS7gy.s:1446   .text:00000000000007c0 .L0 
     /tmp/ccNAS7gy.s:1447   .text:00000000000007c0 .L0 
     /tmp/ccNAS7gy.s:1450   .text:00000000000007c4 .L0 
     /tmp/ccNAS7gy.s:1451   .text:00000000000007c4 .L0 
     /tmp/ccNAS7gy.s:1453   .text:00000000000007c8 .L0 
     /tmp/ccNAS7gy.s:1455   .text:00000000000007cc .L0 
     /tmp/ccNAS7gy.s:1456   .text:00000000000007cc .L0 
     /tmp/ccNAS7gy.s:1460   .text:00000000000007d0 .L0 
     /tmp/ccNAS7gy.s:1461   .text:00000000000007d4 .L0 
     /tmp/ccNAS7gy.s:1462   .text:00000000000007d4 .L0 
     /tmp/ccNAS7gy.s:1463   .text:00000000000007d4 .L0 
     /tmp/ccNAS7gy.s:1465   .text:00000000000007d8 .L0 
     /tmp/ccNAS7gy.s:1469   .text:00000000000007dc .L0 
     /tmp/ccNAS7gy.s:1471   .text:00000000000007dc .L0 
     /tmp/ccNAS7gy.s:1472   .text:00000000000007dc .L0 
     /tmp/ccNAS7gy.s:1475   .text:00000000000007e0 .L0 
     /tmp/ccNAS7gy.s:1477   .text:00000000000007e4 .L0 
     /tmp/ccNAS7gy.s:1478   .text:00000000000007e4 .L0 
     /tmp/ccNAS7gy.s:1480   .text:00000000000007e8 .L0 
     /tmp/ccNAS7gy.s:1481   .text:00000000000007e8 .L0 
     /tmp/ccNAS7gy.s:1482   .text:00000000000007ec .L0 
     /tmp/ccNAS7gy.s:1488   .text:00000000000007ec _ZN7AVLTree8insertLLEPS_S0_
     /tmp/ccNAS7gy.s:1491   .text:00000000000007ec .L0 
     /tmp/ccNAS7gy.s:1493   .text:00000000000007ec .L0 
     /tmp/ccNAS7gy.s:1494   .text:00000000000007f0 .L0 
     /tmp/ccNAS7gy.s:1496   .text:00000000000007f4 .L0 
     /tmp/ccNAS7gy.s:1498   .text:00000000000007f8 .L0 
     /tmp/ccNAS7gy.s:1500   .text:00000000000007f8 .L0 
     /tmp/ccNAS7gy.s:1502   .text:00000000000007fc .L0 
     /tmp/ccNAS7gy.s:1504   .text:0000000000000800 .L0 
     /tmp/ccNAS7gy.s:1506   .text:0000000000000804 .L0 
     /tmp/ccNAS7gy.s:1510   .text:0000000000000808 .L0 
     /tmp/ccNAS7gy.s:1511   .text:0000000000000808 .L0 
     /tmp/ccNAS7gy.s:1513   .text:000000000000080c .L0 
     /tmp/ccNAS7gy.s:1516   .text:0000000000000810 .L0 
     /tmp/ccNAS7gy.s:1518   .text:0000000000000814 .L0 
     /tmp/ccNAS7gy.s:1521   .text:0000000000000818 .L0 
     /tmp/ccNAS7gy.s:1522   .text:0000000000000818 .L0 
GAS LISTING /tmp/ccNAS7gy.s 			page 51


     /tmp/ccNAS7gy.s:1524   .text:000000000000081c .L0 
     /tmp/ccNAS7gy.s:1526   .text:0000000000000820 .L0 
     /tmp/ccNAS7gy.s:1527   .text:0000000000000820 .L0 
     /tmp/ccNAS7gy.s:1530   .text:0000000000000824 .L0 
     /tmp/ccNAS7gy.s:1531   .text:0000000000000824 .L0 
     /tmp/ccNAS7gy.s:1533   .text:0000000000000828 .L0 
     /tmp/ccNAS7gy.s:1534   .text:0000000000000828 .L0 
     /tmp/ccNAS7gy.s:1536   .text:000000000000082c .L0 
     /tmp/ccNAS7gy.s:1537   .text:000000000000082c .L0 
     /tmp/ccNAS7gy.s:1541   .text:0000000000000830 .L0 
     /tmp/ccNAS7gy.s:1542   .text:0000000000000834 .L0 
     /tmp/ccNAS7gy.s:1543   .text:0000000000000834 .L0 
     /tmp/ccNAS7gy.s:1544   .text:0000000000000834 .L0 
     /tmp/ccNAS7gy.s:1546   .text:0000000000000838 .L0 
     /tmp/ccNAS7gy.s:1550   .text:000000000000083c .L0 
     /tmp/ccNAS7gy.s:1552   .text:000000000000083c .L0 
     /tmp/ccNAS7gy.s:1553   .text:000000000000083c .L0 
     /tmp/ccNAS7gy.s:1555   .text:0000000000000840 .L0 
     /tmp/ccNAS7gy.s:1556   .text:0000000000000840 .L0 
     /tmp/ccNAS7gy.s:1558   .text:0000000000000844 .L0 
     /tmp/ccNAS7gy.s:1560   .text:0000000000000848 .L0 
     /tmp/ccNAS7gy.s:1561   .text:0000000000000848 .L0 
     /tmp/ccNAS7gy.s:1563   .text:000000000000084c .L0 
     /tmp/ccNAS7gy.s:1564   .text:000000000000084c .L0 
     /tmp/ccNAS7gy.s:1567   .text:0000000000000850 .L0 
     /tmp/ccNAS7gy.s:1570   .text:0000000000000858 .L0 
     /tmp/ccNAS7gy.s:1576   .text:0000000000000858 .L0 
     /tmp/ccNAS7gy.s:34     .text:000000000000001c .L2
     /tmp/ccNAS7gy.s:58     .text:000000000000003c .L1
     /tmp/ccNAS7gy.s:54     .text:0000000000000038 .L6
     /tmp/ccNAS7gy.s:29     .text:0000000000000018 .L4
     /tmp/ccNAS7gy.s:113    .text:0000000000000080 .L15
     /tmp/ccNAS7gy.s:122    .text:000000000000008c .L16
     /tmp/ccNAS7gy.s:93     .text:0000000000000064 .L12
     /tmp/ccNAS7gy.s:131    .text:0000000000000098 .L17
     /tmp/ccNAS7gy.s:103    .text:0000000000000074 .L10
     /tmp/ccNAS7gy.s:85     .text:0000000000000058 .L9
     /tmp/ccNAS7gy.s:88     .text:000000000000005c .L11
     /tmp/ccNAS7gy.s:169    .text:00000000000000c4 .L18
     /tmp/ccNAS7gy.s:179    .text:00000000000000d0 .L22
     /tmp/ccNAS7gy.s:160    .text:00000000000000b8 .L20
     /tmp/ccNAS7gy.s:237    .text:0000000000000118 .L25
     /tmp/ccNAS7gy.s:327    .text:00000000000001a4 .L28
     /tmp/ccNAS7gy.s:389    .text:0000000000000204 .L31
     /tmp/ccNAS7gy.s:415    .text:000000000000022c .L36
     /tmp/ccNAS7gy.s:429    .text:000000000000023c .L37
     /tmp/ccNAS7gy.s:384    .text:0000000000000200 .L39
     /tmp/ccNAS7gy.s:409    .text:0000000000000224 .L35
     /tmp/ccNAS7gy.s:419    .text:0000000000000230 .L32
     /tmp/ccNAS7gy.s:606    .text:0000000000000354 .L56
     /tmp/ccNAS7gy.s:637    .text:0000000000000384 .L42
     /tmp/ccNAS7gy.s:644    .text:0000000000000390 .L43
     /tmp/ccNAS7gy.s:665    .text:00000000000003ac .L44
     /tmp/ccNAS7gy.s:676    .text:00000000000003c0 .L45
     /tmp/ccNAS7gy.s:689    .text:00000000000003d0 .L46
     /tmp/ccNAS7gy.s:539    .text:00000000000002e4 .L47
     /tmp/ccNAS7gy.s:693    .text:00000000000003d8 .L49
GAS LISTING /tmp/ccNAS7gy.s 			page 52


     /tmp/ccNAS7gy.s:527    .text:00000000000002d0 .L48
     /tmp/ccNAS7gy.s:581    .text:0000000000000330 .L51
     /tmp/ccNAS7gy.s:708    .text:00000000000003f4 .L53
     /tmp/ccNAS7gy.s:569    .text:000000000000031c .L52
     /tmp/ccNAS7gy.s:722    .text:000000000000040c .L40
     /tmp/ccNAS7gy.s:473    .text:0000000000000278 .L57
     /tmp/ccNAS7gy.s:480    .text:0000000000000280 .L58
     /tmp/ccNAS7gy.s:485    .text:0000000000000288 .L59
     /tmp/ccNAS7gy.s:493    .text:0000000000000290 .L60
     /tmp/ccNAS7gy.s:496    .text:0000000000000298 .L61
     /tmp/ccNAS7gy.s:500    .text:00000000000002a0 .L62
     /tmp/ccNAS7gy.s:504    .text:00000000000002a8 .L65
     /tmp/ccNAS7gy.s:544    .text:00000000000002ec .L66
     /tmp/ccNAS7gy.s:702    .text:00000000000003e8 .L50
     /tmp/ccNAS7gy.s:554    .text:0000000000000300 .L67
     /tmp/ccNAS7gy.s:586    .text:0000000000000338 .L68
     /tmp/ccNAS7gy.s:599    .text:0000000000000350 .L54
     /tmp/ccNAS7gy.s:596    .text:000000000000034c .L55
     /tmp/ccNAS7gy.s:875    .text:00000000000004dc .L79
     /tmp/ccNAS7gy.s:806    .text:000000000000047c .L71
     /tmp/ccNAS7gy.s:778    .text:0000000000000458 .L74
     /tmp/ccNAS7gy.s:827    .text:0000000000000498 .L72
     /tmp/ccNAS7gy.s:769    .text:000000000000044c .L83
     /tmp/ccNAS7gy.s:796    .text:0000000000000470 .L75
     /tmp/ccNAS7gy.s:801    .text:0000000000000474 .L76
     /tmp/ccNAS7gy.s:869    .text:00000000000004d4 .L77
     /tmp/ccNAS7gy.s:847    .text:00000000000004b8 .L78
     /tmp/ccNAS7gy.s:997    .text:0000000000000578 .L85
     /tmp/ccNAS7gy.s:1032   .text:00000000000005a8 .L86
     /tmp/ccNAS7gy.s:946    .text:000000000000053c .L87
     /tmp/ccNAS7gy.s:968    .text:0000000000000554 .L88
     /tmp/ccNAS7gy.s:962    .text:0000000000000550 .L89
     /tmp/ccNAS7gy.s:1018   .text:0000000000000598 .L90
     /tmp/ccNAS7gy.s:974    .text:000000000000055c .L91
     /tmp/ccNAS7gy.s:980    .text:0000000000000564 .L92
     /tmp/ccNAS7gy.s:1025   .text:00000000000005a0 .L119
     /tmp/ccNAS7gy.s:1046   .text:00000000000005b8 .L94
     /tmp/ccNAS7gy.s:1142   .text:0000000000000640 .L120
     /tmp/ccNAS7gy.s:1178   .text:000000000000066c .L99
     /tmp/ccNAS7gy.s:1263   .text:00000000000006dc .L121
     /tmp/ccNAS7gy.s:1099   .text:00000000000005fc .L112
     /tmp/ccNAS7gy.s:1093   .text:00000000000005f8 .L113
     /tmp/ccNAS7gy.s:1318   .text:0000000000000724 .L114
     /tmp/ccNAS7gy.s:1124   .text:0000000000000624 .L115
     /tmp/ccNAS7gy.s:1213   .text:0000000000000694 .L96
     /tmp/ccNAS7gy.s:1054   .text:00000000000005c0 .L95
     /tmp/ccNAS7gy.s:1166   .text:000000000000065c .L97
     /tmp/ccNAS7gy.s:1174   .text:0000000000000664 .L98
     /tmp/ccNAS7gy.s:1225   .text:00000000000006a4 .L122
     /tmp/ccNAS7gy.s:1202   .text:0000000000000688 .L103
     /tmp/ccNAS7gy.s:1245   .text:00000000000006bc .L104
     /tmp/ccNAS7gy.s:1258   .text:00000000000006d4 .L123
     /tmp/ccNAS7gy.s:1240   .text:00000000000006b4 .L124
     /tmp/ccNAS7gy.s:1186   .text:0000000000000674 .L101
     /tmp/ccNAS7gy.s:1231   .text:00000000000006a8 .L102
     /tmp/ccNAS7gy.s:1254   .text:00000000000006cc .L125
     /tmp/ccNAS7gy.s:1250   .text:00000000000006c4 .L107
GAS LISTING /tmp/ccNAS7gy.s 			page 53


     /tmp/ccNAS7gy.s:1210   .text:0000000000000690 .L105
     /tmp/ccNAS7gy.s:1287   .text:00000000000006f4 .L109
     /tmp/ccNAS7gy.s:1281   .text:00000000000006f0 .L110
     /tmp/ccNAS7gy.s:1313   .text:000000000000071c .L111
     /tmp/ccNAS7gy.s:1380   .text:0000000000000770 .L127
     /tmp/ccNAS7gy.s:1390   .text:000000000000077c .L132
     /tmp/ccNAS7gy.s:1374   .text:000000000000076c .L130
     /tmp/ccNAS7gy.s:1409   .text:0000000000000794 .L129
     /tmp/ccNAS7gy.s:1458   .text:00000000000007d0 .L134
     /tmp/ccNAS7gy.s:1468   .text:00000000000007dc .L139
     /tmp/ccNAS7gy.s:1565   .text:0000000000000850 .L147
     /tmp/ccNAS7gy.s:1549   .text:000000000000083c .L142
     /tmp/ccNAS7gy.s:1519   .text:0000000000000818 .L145
     /tmp/ccNAS7gy.s:1507   .text:0000000000000808 .L143
     /tmp/ccNAS7gy.s:1528   .text:0000000000000824 .L146
     /tmp/ccNAS7gy.s:1539   .text:0000000000000830 .L140
     /tmp/ccNAS7gy.s:2734   .debug_abbrev:0000000000000000 .Ldebug_abbrev0
     /tmp/ccNAS7gy.s:4500   .debug_str:0000000000000350 .LASF73
     /tmp/ccNAS7gy.s:4496   .debug_str:0000000000000337 .LASF74
     /tmp/ccNAS7gy.s:4530   .debug_str:0000000000000508 .LASF75
     /tmp/ccNAS7gy.s:5      .text:0000000000000000 .Ltext0
     /tmp/ccNAS7gy.s:1573   .text:0000000000000858 .Letext0
     /tmp/ccNAS7gy.s:4374   .debug_line:0000000000000000 .Ldebug_line0
     /tmp/ccNAS7gy.s:4444   .debug_str:00000000000001df .LASF0
     /tmp/ccNAS7gy.s:4456   .debug_str:000000000000023b .LASF1
     /tmp/ccNAS7gy.s:4438   .debug_str:00000000000001a2 .LASF2
     /tmp/ccNAS7gy.s:4426   .debug_str:0000000000000149 .LASF4
     /tmp/ccNAS7gy.s:4482   .debug_str:00000000000002de .LASF3
     /tmp/ccNAS7gy.s:4390   .debug_str:0000000000000057 .LASF5
     /tmp/ccNAS7gy.s:4458   .debug_str:000000000000024e .LASF6
     /tmp/ccNAS7gy.s:4442   .debug_str:00000000000001cc .LASF7
     /tmp/ccNAS7gy.s:4514   .debug_str:0000000000000486 .LASF8
     /tmp/ccNAS7gy.s:4418   .debug_str:000000000000010a .LASF9
     /tmp/ccNAS7gy.s:4468   .debug_str:0000000000000286 .LASF10
     /tmp/ccNAS7gy.s:4504   .debug_str:000000000000041d .LASF11
     /tmp/ccNAS7gy.s:4392   .debug_str:000000000000005e .LASF12
     /tmp/ccNAS7gy.s:4376   .debug_str:0000000000000000 .LASF13
     /tmp/ccNAS7gy.s:4394   .debug_str:000000000000006e .LASF14
     /tmp/ccNAS7gy.s:4476   .debug_str:00000000000002b1 .LASF15
     /tmp/ccNAS7gy.s:4402   .debug_str:0000000000000090 .LASF16
     /tmp/ccNAS7gy.s:4490   .debug_str:000000000000031d .LASF40
     /tmp/ccNAS7gy.s:4446   .debug_str:00000000000001ec .LASF76
     /tmp/ccNAS7gy.s:4452   .debug_str:0000000000000228 .LASF17
     /tmp/ccNAS7gy.s:4398   .debug_str:0000000000000083 .LASF18
     /tmp/ccNAS7gy.s:4424   .debug_str:000000000000013e .LASF19
     /tmp/ccNAS7gy.s:4516   .debug_str:0000000000000496 .LASF21
     /tmp/ccNAS7gy.s:4448   .debug_str:00000000000001f8 .LASF77
     /tmp/ccNAS7gy.s:4526   .debug_str:00000000000004f8 .LASF20
     /tmp/ccNAS7gy.s:4488   .debug_str:0000000000000300 .LASF22
     /tmp/ccNAS7gy.s:4474   .debug_str:00000000000002a3 .LASF23
     /tmp/ccNAS7gy.s:4522   .debug_str:00000000000004bd .LASF24
     /tmp/ccNAS7gy.s:4404   .debug_str:00000000000000a6 .LASF25
     /tmp/ccNAS7gy.s:4410   .debug_str:00000000000000c4 .LASF26
     /tmp/ccNAS7gy.s:4436   .debug_str:0000000000000195 .LASF27
     /tmp/ccNAS7gy.s:4388   .debug_str:0000000000000039 .LASF28
     /tmp/ccNAS7gy.s:4460   .debug_str:0000000000000261 .LASF29
     /tmp/ccNAS7gy.s:4450   .debug_str:0000000000000210 .LASF30
GAS LISTING /tmp/ccNAS7gy.s 			page 54


     /tmp/ccNAS7gy.s:4466   .debug_str:0000000000000281 .LASF31
     /tmp/ccNAS7gy.s:4380   .debug_str:0000000000000017 .LASF32
     /tmp/ccNAS7gy.s:4408   .debug_str:00000000000000bd .LASF33
     /tmp/ccNAS7gy.s:4510   .debug_str:000000000000045f .LASF34
     /tmp/ccNAS7gy.s:4494   .debug_str:000000000000032a .LASF35
     /tmp/ccNAS7gy.s:4528   .debug_str:0000000000000503 .LASF36
     /tmp/ccNAS7gy.s:4520   .debug_str:00000000000004b8 .LASF37
     /tmp/ccNAS7gy.s:4472   .debug_str:000000000000029c .LASF38
     /tmp/ccNAS7gy.s:4480   .debug_str:00000000000002d7 .LASF39
     /tmp/ccNAS7gy.s:4478   .debug_str:00000000000002c7 .LASF42
     /tmp/ccNAS7gy.s:4386   .debug_str:0000000000000030 .LASF41
     /tmp/ccNAS7gy.s:4506   .debug_str:000000000000042c .LASF43
     /tmp/ccNAS7gy.s:4508   .debug_str:0000000000000453 .LASF44
     /tmp/ccNAS7gy.s:4434   .debug_str:0000000000000177 .LASF45
     /tmp/ccNAS7gy.s:4470   .debug_str:0000000000000295 .LASF46
     /tmp/ccNAS7gy.s:4430   .debug_str:0000000000000158 .LASF47
     /tmp/ccNAS7gy.s:4484   .debug_str:00000000000002f0 .LASF48
     /tmp/ccNAS7gy.s:4512   .debug_str:000000000000046c .LASF49
     /tmp/ccNAS7gy.s:4396   .debug_str:000000000000007a .LASF50
     /tmp/ccNAS7gy.s:4420   .debug_str:0000000000000118 .LASF51
     /tmp/ccNAS7gy.s:4378   .debug_str:0000000000000010 .LASF52
     /tmp/ccNAS7gy.s:4414   .debug_str:00000000000000e8 .LASF53
     /tmp/ccNAS7gy.s:4498   .debug_str:0000000000000347 .LASF54
     /tmp/ccNAS7gy.s:4524   .debug_str:00000000000004dc .LASF55
     /tmp/ccNAS7gy.s:4486   .debug_str:00000000000002f7 .LASF56
     /tmp/ccNAS7gy.s:4440   .debug_str:00000000000001b0 .LASF57
     /tmp/ccNAS7gy.s:4416   .debug_str:0000000000000105 .LASF58
     /tmp/ccNAS7gy.s:1489   .text:00000000000007ec .LFB17
     /tmp/ccNAS7gy.s:1571   .text:0000000000000858 .LFE17
     /tmp/ccNAS7gy.s:4406   .debug_str:00000000000000b4 .LASF59
     /tmp/ccNAS7gy.s:3477   .debug_loc:0000000000000000 .LLST46
     /tmp/ccNAS7gy.s:4412   .debug_str:00000000000000e3 .LASF60
     /tmp/ccNAS7gy.s:3502   .debug_loc:0000000000000062 .LLST47
     /tmp/ccNAS7gy.s:1422   .text:000000000000079c .LFB16
     /tmp/ccNAS7gy.s:1483   .text:00000000000007ec .LFE16
     /tmp/ccNAS7gy.s:4518   .debug_str:00000000000004b2 .LASF61
     /tmp/ccNAS7gy.s:3513   .debug_loc:0000000000000098 .LLST42
     /tmp/ccNAS7gy.s:3535   .debug_loc:00000000000000f7 .LLST43
     /tmp/ccNAS7gy.s:4502   .debug_str:0000000000000414 .LASF62
     /tmp/ccNAS7gy.s:3546   .debug_loc:000000000000012d .LLST44
     /tmp/ccNAS7gy.s:4422   .debug_str:0000000000000135 .LASF63
     /tmp/ccNAS7gy.s:3553   .debug_loc:0000000000000150 .LLST45
     /tmp/ccNAS7gy.s:1332   .text:000000000000072c .LFB15
     /tmp/ccNAS7gy.s:1416   .text:000000000000079c .LFE15
     /tmp/ccNAS7gy.s:4382   .debug_str:000000000000001d .LASF64
     /tmp/ccNAS7gy.s:3560   .debug_loc:0000000000000173 .LLST38
     /tmp/ccNAS7gy.s:4400   .debug_str:000000000000008b .LASF65
     /tmp/ccNAS7gy.s:3589   .debug_loc:00000000000001e8 .LLST39
     /tmp/ccNAS7gy.s:3604   .debug_loc:0000000000000231 .LLST40
     /tmp/ccNAS7gy.s:3611   .debug_loc:0000000000000254 .LLST41
     /tmp/ccNAS7gy.s:442    .text:0000000000000244 .LFB14
     /tmp/ccNAS7gy.s:749    .text:0000000000000438 .LFE14
     /tmp/ccNAS7gy.s:3618   .debug_loc:0000000000000277 .LLST13
     /tmp/ccNAS7gy.s:3657   .debug_loc:0000000000000332 .LLST14
     /tmp/ccNAS7gy.s:4342   .debug_ranges:0000000000000000 .Ldebug_ranges0
     /tmp/ccNAS7gy.s:4462   .debug_str:0000000000000269 .LASF66
     /tmp/ccNAS7gy.s:3709   .debug_loc:0000000000000427 .LLST15
GAS LISTING /tmp/ccNAS7gy.s 			page 55


     /tmp/ccNAS7gy.s:4384   .debug_str:0000000000000024 .LASF67
     /tmp/ccNAS7gy.s:3728   .debug_loc:0000000000000483 .LLST16
     /tmp/ccNAS7gy.s:4464   .debug_str:0000000000000274 .LASF68
     /tmp/ccNAS7gy.s:3739   .debug_loc:00000000000004b9 .LLST17
     /tmp/ccNAS7gy.s:475    .text:0000000000000278 .LBB23
     /tmp/ccNAS7gy.s:3750   .debug_loc:00000000000004ef .LLST18
     /tmp/ccNAS7gy.s:488    .text:0000000000000288 .LBB26
     /tmp/ccNAS7gy.s:3761   .debug_loc:0000000000000525 .LLST19
     /tmp/ccNAS7gy.s:515    .text:00000000000002bc .LVL51
     /tmp/ccNAS7gy.s:533    .text:00000000000002dc .LVL54
     /tmp/ccNAS7gy.s:549    .text:00000000000002f8 .LVL58
     /tmp/ccNAS7gy.s:559    .text:000000000000030c .LVL61
     /tmp/ccNAS7gy.s:575    .text:0000000000000328 .LVL63
     /tmp/ccNAS7gy.s:591    .text:0000000000000344 .LVL67
     /tmp/ccNAS7gy.s:621    .text:0000000000000370 .LVL72
     /tmp/ccNAS7gy.s:372    .text:00000000000001f0 .LFB13
     /tmp/ccNAS7gy.s:436    .text:0000000000000244 .LFE13
     /tmp/ccNAS7gy.s:3772   .debug_loc:000000000000055b .LLST11
     /tmp/ccNAS7gy.s:4432   .debug_str:0000000000000172 .LASF69
     /tmp/ccNAS7gy.s:3786   .debug_loc:0000000000000594 .LLST12
     /tmp/ccNAS7gy.s:891    .text:00000000000004e4 .LFB12
     /tmp/ccNAS7gy.s:1326   .text:000000000000072c .LFE12
     /tmp/ccNAS7gy.s:3797   .debug_loc:00000000000005ca .LLST24
     /tmp/ccNAS7gy.s:3841   .debug_loc:000000000000067b .LLST25
     /tmp/ccNAS7gy.s:4454   .debug_str:0000000000000230 .LASF70
     /tmp/ccNAS7gy.s:3863   .debug_loc:00000000000006da .LLST26
     /tmp/ccNAS7gy.s:3898   .debug_loc:0000000000000782 .LLST27
     /tmp/ccNAS7gy.s:3909   .debug_loc:00000000000007b8 .LLST28
     /tmp/ccNAS7gy.s:3920   .debug_loc:00000000000007ee .LLST29
     /tmp/ccNAS7gy.s:3931   .debug_loc:0000000000000824 .LLST30
     /tmp/ccNAS7gy.s:3942   .debug_loc:000000000000085a .LLST31
     /tmp/ccNAS7gy.s:951    .text:0000000000000540 .LBB34
     /tmp/ccNAS7gy.s:965    .text:0000000000000550 .LBE34
     /tmp/ccNAS7gy.s:3953   .debug_loc:0000000000000890 .LLST32
     /tmp/ccNAS7gy.s:3960   .debug_loc:00000000000008b3 .LLST33
     /tmp/ccNAS7gy.s:1082   .text:00000000000005e8 .LBB41
     /tmp/ccNAS7gy.s:1096   .text:00000000000005f8 .LBE41
     /tmp/ccNAS7gy.s:3987   .debug_loc:0000000000000935 .LLST34
     /tmp/ccNAS7gy.s:1270   .text:00000000000006e0 .LBB43
     /tmp/ccNAS7gy.s:1284   .text:00000000000006f0 .LBE43
     /tmp/ccNAS7gy.s:3994   .debug_loc:0000000000000958 .LLST35
     /tmp/ccNAS7gy.s:1069   .text:00000000000005d8 .LVL110
     /tmp/ccNAS7gy.s:1191   .text:0000000000000678 .LBB45
     /tmp/ccNAS7gy.s:1205   .text:0000000000000688 .LBE45
     /tmp/ccNAS7gy.s:4001   .debug_loc:000000000000097b .LLST36
     /tmp/ccNAS7gy.s:1157   .text:0000000000000650 .LBB48
     /tmp/ccNAS7gy.s:1169   .text:000000000000065c .LBE48
     /tmp/ccNAS7gy.s:4008   .debug_loc:000000000000099e .LLST37
     /tmp/ccNAS7gy.s:918    .text:0000000000000518 .LVL99
     /tmp/ccNAS7gy.s:1219   .text:000000000000069c .LVL124
     /tmp/ccNAS7gy.s:282    .text:0000000000000164 .LFB11
     /tmp/ccNAS7gy.s:366    .text:00000000000001f0 .LFE11
     /tmp/ccNAS7gy.s:4015   .debug_loc:00000000000009c1 .LLST8
     /tmp/ccNAS7gy.s:4033   .debug_loc:0000000000000a0d .LLST9
     /tmp/ccNAS7gy.s:4044   .debug_loc:0000000000000a43 .LLST10
     /tmp/ccNAS7gy.s:333    .text:00000000000001b4 .LVL34
     /tmp/ccNAS7gy.s:343    .text:00000000000001cc .LVL35
GAS LISTING /tmp/ccNAS7gy.s 			page 56


     /tmp/ccNAS7gy.s:192    .text:00000000000000d8 .LFB10
     /tmp/ccNAS7gy.s:276    .text:0000000000000164 .LFE10
     /tmp/ccNAS7gy.s:4051   .debug_loc:0000000000000a66 .LLST5
     /tmp/ccNAS7gy.s:4069   .debug_loc:0000000000000ab2 .LLST6
     /tmp/ccNAS7gy.s:4080   .debug_loc:0000000000000ae8 .LLST7
     /tmp/ccNAS7gy.s:243    .text:0000000000000128 .LVL26
     /tmp/ccNAS7gy.s:253    .text:0000000000000140 .LVL27
     /tmp/ccNAS7gy.s:144    .text:00000000000000a0 .LFB9
     /tmp/ccNAS7gy.s:186    .text:00000000000000d8 .LFE9
     /tmp/ccNAS7gy.s:4087   .debug_loc:0000000000000b0b .LLST4
     /tmp/ccNAS7gy.s:73     .text:0000000000000048 .LFB7
     /tmp/ccNAS7gy.s:138    .text:00000000000000a0 .LFE7
     /tmp/ccNAS7gy.s:4113   .debug_loc:0000000000000b7d .LLST3
     /tmp/ccNAS7gy.s:755    .text:0000000000000438 .LFB5
     /tmp/ccNAS7gy.s:885    .text:00000000000004e4 .LFE5
     /tmp/ccNAS7gy.s:4160   .debug_loc:0000000000000c31 .LLST20
     /tmp/ccNAS7gy.s:4193   .debug_loc:0000000000000cb9 .LLST21
     /tmp/ccNAS7gy.s:4211   .debug_loc:0000000000000d05 .LLST22
     /tmp/ccNAS7gy.s:4239   .debug_loc:0000000000000d88 .LLST23
     /tmp/ccNAS7gy.s:857    .text:00000000000004c4 .LVL94
     /tmp/ccNAS7gy.s:10     .text:0000000000000000 .LFB4
     /tmp/ccNAS7gy.s:67     .text:0000000000000048 .LFE4
     /tmp/ccNAS7gy.s:4271   .debug_loc:0000000000000e1e .LLST0
     /tmp/ccNAS7gy.s:4492   .debug_str:0000000000000325 .LASF71
     /tmp/ccNAS7gy.s:4289   .debug_loc:0000000000000e6a .LLST1
     /tmp/ccNAS7gy.s:4428   .debug_str:0000000000000150 .LASF72
     /tmp/ccNAS7gy.s:4309   .debug_loc:0000000000000ec7 .LLST2
     /tmp/ccNAS7gy.s:1492   .text:00000000000007ec .LVL151
     /tmp/ccNAS7gy.s:1538   .text:0000000000000830 .LVL154
     /tmp/ccNAS7gy.s:1548   .text:000000000000083c .LVL155
     /tmp/ccNAS7gy.s:1568   .text:0000000000000854 .LVL156
     /tmp/ccNAS7gy.s:1508   .text:0000000000000808 .LVL152
     /tmp/ccNAS7gy.s:1514   .text:0000000000000810 .LVL153
     /tmp/ccNAS7gy.s:1425   .text:000000000000079c .LVL144
     /tmp/ccNAS7gy.s:1436   .text:00000000000007b4 .LVL145
     /tmp/ccNAS7gy.s:1448   .text:00000000000007c4 .LVL147
     /tmp/ccNAS7gy.s:1467   .text:00000000000007dc .LVL149
     /tmp/ccNAS7gy.s:1457   .text:00000000000007d0 .LVL148
     /tmp/ccNAS7gy.s:1444   .text:00000000000007c0 .LVL146
     /tmp/ccNAS7gy.s:1335   .text:000000000000072c .LVL136
     /tmp/ccNAS7gy.s:1344   .text:0000000000000740 .LVL137
     /tmp/ccNAS7gy.s:1362   .text:000000000000075c .LVL139
     /tmp/ccNAS7gy.s:1389   .text:000000000000077c .LVL141
     /tmp/ccNAS7gy.s:1395   .text:0000000000000780 .LVL142
     /tmp/ccNAS7gy.s:1413   .text:0000000000000798 .LVL143
     /tmp/ccNAS7gy.s:1358   .text:0000000000000758 .LVL138
     /tmp/ccNAS7gy.s:1379   .text:0000000000000770 .LVL140
     /tmp/ccNAS7gy.s:445    .text:0000000000000244 .LVL46
     /tmp/ccNAS7gy.s:472    .text:0000000000000278 .LVL48
     /tmp/ccNAS7gy.s:577    .text:000000000000032c .LVL64
     /tmp/ccNAS7gy.s:580    .text:0000000000000330 .LVL65
     /tmp/ccNAS7gy.s:593    .text:0000000000000348 .LVL68
     /tmp/ccNAS7gy.s:595    .text:000000000000034c .LVL69
     /tmp/ccNAS7gy.s:605    .text:0000000000000354 .LVL71
     /tmp/ccNAS7gy.s:707    .text:00000000000003f4 .LVL78
     /tmp/ccNAS7gy.s:721    .text:000000000000040c .LVL79
     /tmp/ccNAS7gy.s:733    .text:000000000000041c .LVL80
GAS LISTING /tmp/ccNAS7gy.s 			page 57


     /tmp/ccNAS7gy.s:468    .text:0000000000000270 .LVL47
     /tmp/ccNAS7gy.s:517    .text:00000000000002c0 .LVL52
     /tmp/ccNAS7gy.s:531    .text:00000000000002d4 .LVL53
     /tmp/ccNAS7gy.s:538    .text:00000000000002e4 .LVL56
     /tmp/ccNAS7gy.s:543    .text:00000000000002ec .LVL57
     /tmp/ccNAS7gy.s:573    .text:0000000000000320 .LVL62
     /tmp/ccNAS7gy.s:585    .text:0000000000000338 .LVL66
     /tmp/ccNAS7gy.s:601    .text:0000000000000350 .LVL70
     /tmp/ccNAS7gy.s:736    .text:0000000000000420 .LVL81
     /tmp/ccNAS7gy.s:484    .text:0000000000000288 .LVL49
     /tmp/ccNAS7gy.s:553    .text:0000000000000300 .LVL60
     /tmp/ccNAS7gy.s:648    .text:0000000000000398 .LVL74
     /tmp/ccNAS7gy.s:699    .text:00000000000003e4 .LVL77
     /tmp/ccNAS7gy.s:503    .text:00000000000002a8 .LVL50
     /tmp/ccNAS7gy.s:679    .text:00000000000003c4 .LVL75
     /tmp/ccNAS7gy.s:685    .text:00000000000003c8 .LVL76
     /tmp/ccNAS7gy.s:627    .text:0000000000000378 .LVL73
     /tmp/ccNAS7gy.s:375    .text:00000000000001f0 .LVL38
     /tmp/ccNAS7gy.s:383    .text:0000000000000200 .LVL39
     /tmp/ccNAS7gy.s:418    .text:0000000000000230 .LVL43
     /tmp/ccNAS7gy.s:428    .text:000000000000023c .LVL44
     /tmp/ccNAS7gy.s:433    .text:0000000000000240 .LVL45
     /tmp/ccNAS7gy.s:894    .text:00000000000004e4 .LVL98
     /tmp/ccNAS7gy.s:996    .text:0000000000000578 .LVL106
     /tmp/ccNAS7gy.s:1017   .text:0000000000000598 .LVL107
     /tmp/ccNAS7gy.s:1028   .text:00000000000005a4 .LVL108
     /tmp/ccNAS7gy.s:1031   .text:00000000000005a8 .LVL109
     /tmp/ccNAS7gy.s:1221   .text:00000000000006a0 .LVL125
     /tmp/ccNAS7gy.s:1224   .text:00000000000006a4 .LVL126
     /tmp/ccNAS7gy.s:1077   .text:00000000000005e4 .LVL112
     /tmp/ccNAS7gy.s:1141   .text:0000000000000640 .LVL115
     /tmp/ccNAS7gy.s:1152   .text:000000000000064c .LVL116
     /tmp/ccNAS7gy.s:1177   .text:000000000000066c .LVL120
     /tmp/ccNAS7gy.s:1183   .text:0000000000000670 .LVL121
     /tmp/ccNAS7gy.s:1232   .text:00000000000006a8 .LVL127
     /tmp/ccNAS7gy.s:1239   .text:00000000000006b4 .LVL128
     /tmp/ccNAS7gy.s:1310   .text:0000000000000718 .LVL133
     /tmp/ccNAS7gy.s:1312   .text:000000000000071c .LVL134
     /tmp/ccNAS7gy.s:931    .text:0000000000000528 .LVL100
     /tmp/ccNAS7gy.s:934    .text:000000000000052c .LVL101
     /tmp/ccNAS7gy.s:937    .text:0000000000000530 .LVL102
     /tmp/ccNAS7gy.s:940    .text:0000000000000534 .LVL103
     /tmp/ccNAS7gy.s:950    .text:0000000000000540 .LVL104
     /tmp/ccNAS7gy.s:963    .text:0000000000000550 .LVL105
     /tmp/ccNAS7gy.s:1071   .text:00000000000005dc .LVL111
     /tmp/ccNAS7gy.s:1262   .text:00000000000006dc .LVL130
     /tmp/ccNAS7gy.s:1317   .text:0000000000000724 .LVL135
     /tmp/ccNAS7gy.s:1081   .text:00000000000005e8 .LVL113
     /tmp/ccNAS7gy.s:1094   .text:00000000000005f8 .LVL114
     /tmp/ccNAS7gy.s:1269   .text:00000000000006e0 .LVL131
     /tmp/ccNAS7gy.s:1282   .text:00000000000006f0 .LVL132
     /tmp/ccNAS7gy.s:1190   .text:0000000000000678 .LVL122
     /tmp/ccNAS7gy.s:1203   .text:0000000000000688 .LVL123
     /tmp/ccNAS7gy.s:1156   .text:0000000000000650 .LVL117
     /tmp/ccNAS7gy.s:1167   .text:000000000000065c .LVL118
     /tmp/ccNAS7gy.s:285    .text:0000000000000164 .LVL30
     /tmp/ccNAS7gy.s:326    .text:00000000000001a4 .LVL33
GAS LISTING /tmp/ccNAS7gy.s 			page 58


     /tmp/ccNAS7gy.s:358    .text:00000000000001e4 .LVL36
     /tmp/ccNAS7gy.s:302    .text:0000000000000184 .LVL31
     /tmp/ccNAS7gy.s:361    .text:00000000000001e8 .LVL37
     /tmp/ccNAS7gy.s:306    .text:0000000000000188 .LVL32
     /tmp/ccNAS7gy.s:195    .text:00000000000000d8 .LVL22
     /tmp/ccNAS7gy.s:236    .text:0000000000000118 .LVL25
     /tmp/ccNAS7gy.s:268    .text:0000000000000158 .LVL28
     /tmp/ccNAS7gy.s:212    .text:00000000000000f8 .LVL23
     /tmp/ccNAS7gy.s:271    .text:000000000000015c .LVL29
     /tmp/ccNAS7gy.s:216    .text:00000000000000fc .LVL24
     /tmp/ccNAS7gy.s:147    .text:00000000000000a0 .LVL16
     /tmp/ccNAS7gy.s:161    .text:00000000000000b8 .LVL17
     /tmp/ccNAS7gy.s:166    .text:00000000000000c0 .LVL18
     /tmp/ccNAS7gy.s:168    .text:00000000000000c4 .LVL19
     /tmp/ccNAS7gy.s:178    .text:00000000000000d0 .LVL20
     /tmp/ccNAS7gy.s:183    .text:00000000000000d4 .LVL21
     /tmp/ccNAS7gy.s:76     .text:0000000000000048 .LVL8
     /tmp/ccNAS7gy.s:99     .text:000000000000006c .LVL9
     /tmp/ccNAS7gy.s:112    .text:0000000000000080 .LVL10
     /tmp/ccNAS7gy.s:119    .text:0000000000000088 .LVL11
     /tmp/ccNAS7gy.s:121    .text:000000000000008c .LVL12
     /tmp/ccNAS7gy.s:128    .text:0000000000000094 .LVL13
     /tmp/ccNAS7gy.s:130    .text:0000000000000098 .LVL14
     /tmp/ccNAS7gy.s:135    .text:000000000000009c .LVL15
     /tmp/ccNAS7gy.s:758    .text:0000000000000438 .LVL82
     /tmp/ccNAS7gy.s:766    .text:0000000000000448 .LVL83
     /tmp/ccNAS7gy.s:868    .text:00000000000004d4 .LVL95
     /tmp/ccNAS7gy.s:874    .text:00000000000004dc .LVL96
     /tmp/ccNAS7gy.s:881    .text:00000000000004e0 .LVL97
     /tmp/ccNAS7gy.s:768    .text:000000000000044c .LVL84
     /tmp/ccNAS7gy.s:800    .text:0000000000000474 .LVL87
     /tmp/ccNAS7gy.s:805    .text:000000000000047c .LVL88
     /tmp/ccNAS7gy.s:824    .text:0000000000000494 .LVL90
     /tmp/ccNAS7gy.s:826    .text:0000000000000498 .LVL91
     /tmp/ccNAS7gy.s:842    .text:00000000000004b0 .LVL92
     /tmp/ccNAS7gy.s:852    .text:00000000000004bc .LVL93
     /tmp/ccNAS7gy.s:793    .text:000000000000046c .LVL85
     /tmp/ccNAS7gy.s:795    .text:0000000000000470 .LVL86
     /tmp/ccNAS7gy.s:818    .text:000000000000048c .LVL89
     /tmp/ccNAS7gy.s:14     .text:0000000000000000 .LVL0
     /tmp/ccNAS7gy.s:26     .text:0000000000000014 .LVL2
     /tmp/ccNAS7gy.s:28     .text:0000000000000018 .LVL3
     /tmp/ccNAS7gy.s:23     .text:0000000000000010 .LVL1
     /tmp/ccNAS7gy.s:46     .text:000000000000002c .LVL5
     /tmp/ccNAS7gy.s:52     .text:0000000000000034 .LVL6
     /tmp/ccNAS7gy.s:57     .text:000000000000003c .LVL7
     /tmp/ccNAS7gy.s:1577   .debug_info:0000000000000000 .Ldebug_info0
     /tmp/ccNAS7gy.s:474    .text:0000000000000278 .LBB22
     /tmp/ccNAS7gy.s:607    .text:0000000000000354 .LBE22
     /tmp/ccNAS7gy.s:611    .text:0000000000000358 .LBB31
     /tmp/ccNAS7gy.s:723    .text:000000000000040c .LBE31
     /tmp/ccNAS7gy.s:487    .text:0000000000000288 .LBE23
     /tmp/ccNAS7gy.s:628    .text:0000000000000378 .LBB29
     /tmp/ccNAS7gy.s:650    .text:0000000000000398 .LBE29
     /tmp/ccNAS7gy.s:506    .text:00000000000002a8 .LBE26
     /tmp/ccNAS7gy.s:652    .text:0000000000000398 .LBB30
     /tmp/ccNAS7gy.s:681    .text:00000000000003c4 .LBE30
GAS LISTING /tmp/ccNAS7gy.s 			page 59


     /tmp/ccNAS7gy.s:927    .text:0000000000000524 .LBB33
     /tmp/ccNAS7gy.s:998    .text:0000000000000578 .LBE33
     /tmp/ccNAS7gy.s:1021   .text:0000000000000598 .LBB36
     /tmp/ccNAS7gy.s:1033   .text:00000000000005a8 .LBE36
     /tmp/ccNAS7gy.s:1064   .text:00000000000005cc .LBB40
     /tmp/ccNAS7gy.s:1143   .text:0000000000000640 .LBE40
     /tmp/ccNAS7gy.s:1264   .text:00000000000006dc .LBB47
     /tmp/ccNAS7gy.s:1322   .text:000000000000072c .LBE47

NO UNDEFINED SYMBOLS
