GAS LISTING /tmp/ccVzmaGV.s 			page 1


   1              		.file	"AVLTree.cpp"
   2              		.option pic
   3              		.option norelax
   4              		.text
   5              	.Ltext0:
   6              		.align	2
   7              		.globl	_ZN7AVLTree11findFreeSegEPS_m
   9              	_ZN7AVLTree11findFreeSegEPS_m:
  10              	.LFB4:
  11              		.file 1 "src/AVLTree.cpp"
   1:src/AVLTree.cpp **** //
   2:src/AVLTree.cpp **** // Created by os on 5/1/24.
   3:src/AVLTree.cpp **** //
   4:src/AVLTree.cpp **** 
   5:src/AVLTree.cpp **** #include "../h/AVLTree.h"
   6:src/AVLTree.cpp **** 
   7:src/AVLTree.cpp **** AVLTree* AVLTree::findFreeSeg(AVLTree* root, size_t size) {
  12              		.loc 1 7 59
  13              		.cfi_startproc
  14              	.LVL0:
  15 0000 130101FF 		addi	sp,sp,-16
  16              		.cfi_def_cfa_offset 16
  17 0004 23348100 		sd	s0,8(sp)
  18              		.cfi_offset 8, -8
  19 0008 13040101 		addi	s0,sp,16
  20              		.cfi_def_cfa 8, 0
  21 000c 93070500 		mv	a5,a0
   8:src/AVLTree.cpp ****     AVLTree* cur = root, *BestFit = nullptr;
  22              		.loc 1 8 5
  23              	.LVL1:
  24              		.loc 1 8 27 is_stmt 0
  25 0010 13050000 		li	a0,0
  26              	.LVL2:
  27 0014 6F008000 		j	.L2
  28              	.LVL3:
  29              	.L4:
   9:src/AVLTree.cpp ****     while(cur) {
  10:src/AVLTree.cpp ****         if (cur->sz == size)
  11:src/AVLTree.cpp ****             return cur;
  12:src/AVLTree.cpp ****         if (cur->sz > size) {
  13:src/AVLTree.cpp ****             BestFit = cur; cur = cur->left;
  14:src/AVLTree.cpp ****         } else
  15:src/AVLTree.cpp ****             cur = cur->right;
  30              		.loc 1 15 13 is_stmt 1
  31              		.loc 1 15 17 is_stmt 0
  32 0018 83B78700 		ld	a5,8(a5)
  33              	.LVL4:
  34              	.L2:
   9:src/AVLTree.cpp ****     while(cur) {
  35              		.loc 1 9 5 is_stmt 1
   9:src/AVLTree.cpp ****     while(cur) {
  36              		.loc 1 9 11
  37 001c 63800702 		beqz	a5,.L1
  10:src/AVLTree.cpp ****             return cur;
  38              		.loc 1 10 9
  10:src/AVLTree.cpp ****             return cur;
  39              		.loc 1 10 18 is_stmt 0
GAS LISTING /tmp/ccVzmaGV.s 			page 2


  40 0020 03B70703 		ld	a4,48(a5)
  10:src/AVLTree.cpp ****             return cur;
  41              		.loc 1 10 9
  42 0024 630AB700 		beq	a4,a1,.L6
  12:src/AVLTree.cpp ****             BestFit = cur; cur = cur->left;
  43              		.loc 1 12 9 is_stmt 1
  44 0028 E3F8E5FE 		bleu	a4,a1,.L4
  13:src/AVLTree.cpp ****         } else
  45              		.loc 1 13 13
  46              	.LVL5:
  13:src/AVLTree.cpp ****         } else
  47              		.loc 1 13 28
  13:src/AVLTree.cpp ****         } else
  48              		.loc 1 13 21 is_stmt 0
  49 002c 13850700 		mv	a0,a5
  13:src/AVLTree.cpp ****         } else
  50              		.loc 1 13 32
  51 0030 83B70700 		ld	a5,0(a5)
  52              	.LVL6:
  53 0034 6FF09FFE 		j	.L2
  54              	.L6:
  11:src/AVLTree.cpp ****         if (cur->sz > size) {
  55              		.loc 1 11 20
  56 0038 13850700 		mv	a0,a5
  57              	.LVL7:
  58              	.L1:
  16:src/AVLTree.cpp ****     }
  17:src/AVLTree.cpp ****     return BestFit;
  18:src/AVLTree.cpp **** }
  59              		.loc 1 18 1
  60 003c 03348100 		ld	s0,8(sp)
  61              		.cfi_restore 8
  62              		.cfi_def_cfa 2, 16
  63 0040 13010101 		addi	sp,sp,16
  64              		.cfi_def_cfa_offset 0
  65 0044 67800000 		jr	ra
  66              		.cfi_endproc
  67              	.LFE4:
  69              		.align	2
  70              		.globl	_ZN7AVLTree3maxEPKS_S1_
  72              	_ZN7AVLTree3maxEPKS_S1_:
  73              	.LFB7:
  19:src/AVLTree.cpp **** 
  20:src/AVLTree.cpp **** AVLTree* AVLTree::insert(AVLTree *root, AVLTree *node) {
  21:src/AVLTree.cpp **** 
  22:src/AVLTree.cpp ****     // Performing Insert in BST
  23:src/AVLTree.cpp ****     if (!root) {
  24:src/AVLTree.cpp ****         return node;
  25:src/AVLTree.cpp ****     }
  26:src/AVLTree.cpp **** 
  27:src/AVLTree.cpp ****     AVLTree* cur = root, *prev = nullptr;
  28:src/AVLTree.cpp ****     while(cur) {
  29:src/AVLTree.cpp ****         if (node->sz == cur->sz) {
  30:src/AVLTree.cpp ****             cur->sameSize = node;
  31:src/AVLTree.cpp ****             return root;
  32:src/AVLTree.cpp ****         }
  33:src/AVLTree.cpp ****         prev = cur;
GAS LISTING /tmp/ccVzmaGV.s 			page 3


  34:src/AVLTree.cpp ****         if (node->sz > cur->sz)
  35:src/AVLTree.cpp ****             cur = cur->right;
  36:src/AVLTree.cpp ****         else
  37:src/AVLTree.cpp ****             cur = cur->left;
  38:src/AVLTree.cpp ****     }
  39:src/AVLTree.cpp **** 
  40:src/AVLTree.cpp ****     (node->sz > prev->sz ? prev->right : prev->left) = node;
  41:src/AVLTree.cpp ****     node->parent = prev;
  42:src/AVLTree.cpp ****     cur = prev;
  43:src/AVLTree.cpp ****     prev = nullptr;
  44:src/AVLTree.cpp **** 
  45:src/AVLTree.cpp ****     // Iterating through parents and balancing
  46:src/AVLTree.cpp ****     return AVLTree::balance(cur);
  47:src/AVLTree.cpp **** }
  48:src/AVLTree.cpp **** 
  49:src/AVLTree.cpp **** inline int AVLTree::getBalance(AVLTree *node) {
  50:src/AVLTree.cpp ****     return (node && node->right ? 1+node->right->height : 0) - (node && node->left ? 1+node->left->
  51:src/AVLTree.cpp **** }
  52:src/AVLTree.cpp **** 
  53:src/AVLTree.cpp **** int AVLTree::max(const AVLTree *n1, const AVLTree *n2) {
  74              		.loc 1 53 56 is_stmt 1
  75              		.cfi_startproc
  76              	.LVL8:
  77 0048 130101FF 		addi	sp,sp,-16
  78              		.cfi_def_cfa_offset 16
  79 004c 23348100 		sd	s0,8(sp)
  80              		.cfi_offset 8, -8
  81 0050 13040101 		addi	s0,sp,16
  82              		.cfi_def_cfa 8, 0
  54:src/AVLTree.cpp ****     if (!n1 && !n2)
  83              		.loc 1 54 5
  84 0054 63060502 		beqz	a0,.L15
  85              	.L9:
  55:src/AVLTree.cpp ****         return -1;
  56:src/AVLTree.cpp ****     if (!n1 && n2)
  86              		.loc 1 56 5
  87 0058 630A0502 		beqz	a0,.L16
  88              	.L11:
  57:src/AVLTree.cpp ****         return n2->height;
  58:src/AVLTree.cpp ****     if (n1 && !n2)
  89              		.loc 1 58 5
  90 005c 63040500 		beqz	a0,.L12
  91              		.loc 1 58 12 is_stmt 0 discriminator 1
  92 0060 638C0502 		beqz	a1,.L17
  93              	.L12:
  59:src/AVLTree.cpp ****         return n1->height;
  60:src/AVLTree.cpp ****     return (n1->height > n2->height) ? n1->height : n2->height;
  94              		.loc 1 60 5 is_stmt 1
  95              		.loc 1 60 17 is_stmt 0
  96 0064 83278503 		lw	a5,56(a0)
  97              		.loc 1 60 30
  98 0068 03A58503 		lw	a0,56(a1)
  99              	.LVL9:
 100              		.loc 1 60 38
 101 006c 6354F500 		ble	a5,a0,.L10
 102 0070 13850700 		mv	a0,a5
 103              	.L10:
GAS LISTING /tmp/ccVzmaGV.s 			page 4


  61:src/AVLTree.cpp **** }
 104              		.loc 1 61 1
 105 0074 03348100 		ld	s0,8(sp)
 106              		.cfi_remember_state
 107              		.cfi_restore 8
 108              		.cfi_def_cfa 2, 16
 109 0078 13010101 		addi	sp,sp,16
 110              		.cfi_def_cfa_offset 0
 111 007c 67800000 		jr	ra
 112              	.LVL10:
 113              	.L15:
 114              		.cfi_restore_state
  54:src/AVLTree.cpp ****         return -1;
 115              		.loc 1 54 13 discriminator 1
 116 0080 E39C05FC 		bnez	a1,.L9
  55:src/AVLTree.cpp ****     if (!n1 && n2)
 117              		.loc 1 55 17
 118 0084 1305F0FF 		li	a0,-1
 119              	.LVL11:
 120 0088 6FF0DFFE 		j	.L10
 121              	.LVL12:
 122              	.L16:
  56:src/AVLTree.cpp ****         return n2->height;
 123              		.loc 1 56 13 discriminator 1
 124 008c E38805FC 		beqz	a1,.L11
  57:src/AVLTree.cpp ****     if (n1 && !n2)
 125              		.loc 1 57 9 is_stmt 1
  57:src/AVLTree.cpp ****     if (n1 && !n2)
 126              		.loc 1 57 20 is_stmt 0
 127 0090 03A58503 		lw	a0,56(a1)
 128              	.LVL13:
 129 0094 6FF01FFE 		j	.L10
 130              	.LVL14:
 131              	.L17:
  59:src/AVLTree.cpp ****     return (n1->height > n2->height) ? n1->height : n2->height;
 132              		.loc 1 59 9 is_stmt 1
  59:src/AVLTree.cpp ****     return (n1->height > n2->height) ? n1->height : n2->height;
 133              		.loc 1 59 20 is_stmt 0
 134 0098 03258503 		lw	a0,56(a0)
 135              	.LVL15:
 136 009c 6FF09FFD 		j	.L10
 137              		.cfi_endproc
 138              	.LFE7:
 140              		.align	2
 141              		.globl	_ZN7AVLTree13findSuccessorEPS_
 143              	_ZN7AVLTree13findSuccessorEPS_:
 144              	.LFB9:
  62:src/AVLTree.cpp **** 
  63:src/AVLTree.cpp **** inline bool AVLTree::isRightSon(const AVLTree* node) {
  64:src/AVLTree.cpp ****     return (node->parent && node->parent->right == node);
  65:src/AVLTree.cpp **** }
  66:src/AVLTree.cpp **** 
  67:src/AVLTree.cpp **** AVLTree* AVLTree::findSuccessor(AVLTree* node){
 145              		.loc 1 67 47 is_stmt 1
 146              		.cfi_startproc
 147              	.LVL16:
 148 00a0 130101FF 		addi	sp,sp,-16
GAS LISTING /tmp/ccVzmaGV.s 			page 5


 149              		.cfi_def_cfa_offset 16
 150 00a4 23348100 		sd	s0,8(sp)
 151              		.cfi_offset 8, -8
 152 00a8 13040101 		addi	s0,sp,16
 153              		.cfi_def_cfa 8, 0
  68:src/AVLTree.cpp ****     if (!node || !node->right) return nullptr;
 154              		.loc 1 68 5
 155 00ac 630C0500 		beqz	a0,.L18
 156              		.loc 1 68 25 is_stmt 0 discriminator 2
 157 00b0 83378500 		ld	a5,8(a0)
 158              		.loc 1 68 15 discriminator 2
 159 00b4 638E0700 		beqz	a5,.L22
 160              	.L20:
 161              	.LVL17:
  69:src/AVLTree.cpp ****     node = node->right;
  70:src/AVLTree.cpp ****     while(node->left)
 162              		.loc 1 70 5 is_stmt 1
 163              		.loc 1 70 17
 164 00b8 13850700 		mv	a0,a5
 165 00bc 83B70700 		ld	a5,0(a5)
 166              	.LVL18:
 167 00c0 E39C07FE 		bnez	a5,.L20
 168              	.LVL19:
 169              	.L18:
  71:src/AVLTree.cpp ****         node = node->left;
  72:src/AVLTree.cpp ****     return node;
  73:src/AVLTree.cpp **** }
 170              		.loc 1 73 1 is_stmt 0
 171 00c4 03348100 		ld	s0,8(sp)
 172              		.cfi_remember_state
 173              		.cfi_restore 8
 174              		.cfi_def_cfa 2, 16
 175 00c8 13010101 		addi	sp,sp,16
 176              		.cfi_def_cfa_offset 0
 177 00cc 67800000 		jr	ra
 178              	.LVL20:
 179              	.L22:
 180              		.cfi_restore_state
  68:src/AVLTree.cpp ****     node = node->right;
 181              		.loc 1 68 39
 182 00d0 13850700 		mv	a0,a5
 183              	.LVL21:
 184 00d4 6FF01FFF 		j	.L18
 185              		.cfi_endproc
 186              	.LFE9:
 188              		.align	2
 189              		.globl	_ZN7AVLTree13rightRotationEPS_
 191              	_ZN7AVLTree13rightRotationEPS_:
 192              	.LFB10:
  74:src/AVLTree.cpp **** 
  75:src/AVLTree.cpp **** AVLTree* AVLTree::rightRotation(AVLTree *y) {
 193              		.loc 1 75 45 is_stmt 1
 194              		.cfi_startproc
 195              	.LVL22:
 196 00d8 130101FE 		addi	sp,sp,-32
 197              		.cfi_def_cfa_offset 32
 198 00dc 233C1100 		sd	ra,24(sp)
GAS LISTING /tmp/ccVzmaGV.s 			page 6


 199 00e0 23388100 		sd	s0,16(sp)
 200 00e4 23349100 		sd	s1,8(sp)
 201 00e8 23302101 		sd	s2,0(sp)
 202              		.cfi_offset 1, -8
 203              		.cfi_offset 8, -16
 204              		.cfi_offset 9, -24
 205              		.cfi_offset 18, -32
 206 00ec 13040102 		addi	s0,sp,32
 207              		.cfi_def_cfa 8, 0
 208 00f0 93040500 		mv	s1,a0
  76:src/AVLTree.cpp ****     AVLTree* x = y->left;
 209              		.loc 1 76 5
 210              		.loc 1 76 14 is_stmt 0
 211 00f4 03390500 		ld	s2,0(a0)
 212              	.LVL23:
  77:src/AVLTree.cpp ****     AVLTree* t2 = x->right;
 213              		.loc 1 77 5 is_stmt 1
 214              		.loc 1 77 14 is_stmt 0
 215 00f8 83378900 		ld	a5,8(s2)
 216              	.LVL24:
  78:src/AVLTree.cpp **** 
  79:src/AVLTree.cpp ****     x->right = y;
 217              		.loc 1 79 5 is_stmt 1
 218              		.loc 1 79 14 is_stmt 0
 219 00fc 2334A900 		sd	a0,8(s2)
  80:src/AVLTree.cpp ****     y->left = t2;
 220              		.loc 1 80 5 is_stmt 1
 221              		.loc 1 80 13 is_stmt 0
 222 0100 2330F500 		sd	a5,0(a0)
  81:src/AVLTree.cpp **** 
  82:src/AVLTree.cpp ****     x->parent = y->parent;
 223              		.loc 1 82 5 is_stmt 1
 224              		.loc 1 82 20 is_stmt 0
 225 0104 03370501 		ld	a4,16(a0)
 226              		.loc 1 82 15
 227 0108 2338E900 		sd	a4,16(s2)
  83:src/AVLTree.cpp ****     y->parent = x;
 228              		.loc 1 83 5 is_stmt 1
 229              		.loc 1 83 15 is_stmt 0
 230 010c 23382501 		sd	s2,16(a0)
  84:src/AVLTree.cpp ****     if (t2) t2->parent = y;
 231              		.loc 1 84 5 is_stmt 1
 232 0110 63840700 		beqz	a5,.L25
 233              		.loc 1 84 13 discriminator 1
 234              		.loc 1 84 24 is_stmt 0 discriminator 1
 235 0114 23B8A700 		sd	a0,16(a5)
 236              	.LVL25:
 237              	.L25:
  85:src/AVLTree.cpp **** 
  86:src/AVLTree.cpp ****     y->height = 1+max(y->left, y->right);
 238              		.loc 1 86 5 is_stmt 1
 239              		.loc 1 86 22 is_stmt 0
 240 0118 83B58400 		ld	a1,8(s1)
 241 011c 03B50400 		ld	a0,0(s1)
 242 0120 97000000 		call	_ZN7AVLTree3maxEPKS_S1_
 242      E7800000 
 243              	.LVL26:
GAS LISTING /tmp/ccVzmaGV.s 			page 7


 244              		.loc 1 86 18
 245 0128 1B051500 		addiw	a0,a0,1
 246              		.loc 1 86 15
 247 012c 23ACA402 		sw	a0,56(s1)
  87:src/AVLTree.cpp ****     x->height = 1+max(x->left, x->right);
 248              		.loc 1 87 5 is_stmt 1
 249              		.loc 1 87 22 is_stmt 0
 250 0130 83358900 		ld	a1,8(s2)
 251 0134 03350900 		ld	a0,0(s2)
 252 0138 97000000 		call	_ZN7AVLTree3maxEPKS_S1_
 252      E7800000 
 253              	.LVL27:
 254              		.loc 1 87 18
 255 0140 1B051500 		addiw	a0,a0,1
 256              		.loc 1 87 15
 257 0144 232CA902 		sw	a0,56(s2)
  88:src/AVLTree.cpp ****     return x;
 258              		.loc 1 88 5 is_stmt 1
  89:src/AVLTree.cpp **** 
  90:src/AVLTree.cpp **** }
 259              		.loc 1 90 1 is_stmt 0
 260 0148 13050900 		mv	a0,s2
 261 014c 83308101 		ld	ra,24(sp)
 262              		.cfi_restore 1
 263 0150 03340101 		ld	s0,16(sp)
 264              		.cfi_restore 8
 265              		.cfi_def_cfa 2, 32
 266 0154 83348100 		ld	s1,8(sp)
 267              		.cfi_restore 9
 268              	.LVL28:
 269 0158 03390100 		ld	s2,0(sp)
 270              		.cfi_restore 18
 271              	.LVL29:
 272 015c 13010102 		addi	sp,sp,32
 273              		.cfi_def_cfa_offset 0
 274 0160 67800000 		jr	ra
 275              		.cfi_endproc
 276              	.LFE10:
 278              		.align	2
 279              		.globl	_ZN7AVLTree12leftRotationEPS_
 281              	_ZN7AVLTree12leftRotationEPS_:
 282              	.LFB11:
  91:src/AVLTree.cpp **** 
  92:src/AVLTree.cpp **** /*
  93:src/AVLTree.cpp ****          y                    x
  94:src/AVLTree.cpp ****        /  \    RightRot     /  \
  95:src/AVLTree.cpp ****       x   t3   ------->   t1    y
  96:src/AVLTree.cpp ****      / \       <-------        / \
  97:src/AVLTree.cpp ****     t1  t2      LeftRot       t2  t3
  98:src/AVLTree.cpp **** */
  99:src/AVLTree.cpp **** AVLTree* AVLTree::leftRotation(AVLTree *x) {
 283              		.loc 1 99 44 is_stmt 1
 284              		.cfi_startproc
 285              	.LVL30:
 286 0164 130101FE 		addi	sp,sp,-32
 287              		.cfi_def_cfa_offset 32
 288 0168 233C1100 		sd	ra,24(sp)
GAS LISTING /tmp/ccVzmaGV.s 			page 8


 289 016c 23388100 		sd	s0,16(sp)
 290 0170 23349100 		sd	s1,8(sp)
 291 0174 23302101 		sd	s2,0(sp)
 292              		.cfi_offset 1, -8
 293              		.cfi_offset 8, -16
 294              		.cfi_offset 9, -24
 295              		.cfi_offset 18, -32
 296 0178 13040102 		addi	s0,sp,32
 297              		.cfi_def_cfa 8, 0
 298 017c 93040500 		mv	s1,a0
 100:src/AVLTree.cpp ****     AVLTree* y = x->right;
 299              		.loc 1 100 5
 300              		.loc 1 100 14 is_stmt 0
 301 0180 03398500 		ld	s2,8(a0)
 302              	.LVL31:
 101:src/AVLTree.cpp ****     AVLTree* t2 = y->left;
 303              		.loc 1 101 5 is_stmt 1
 304              		.loc 1 101 14 is_stmt 0
 305 0184 83370900 		ld	a5,0(s2)
 306              	.LVL32:
 102:src/AVLTree.cpp **** 
 103:src/AVLTree.cpp ****     y->left = x;
 307              		.loc 1 103 5 is_stmt 1
 308              		.loc 1 103 13 is_stmt 0
 309 0188 2330A900 		sd	a0,0(s2)
 104:src/AVLTree.cpp ****     x->right = t2;
 310              		.loc 1 104 5 is_stmt 1
 311              		.loc 1 104 14 is_stmt 0
 312 018c 2334F500 		sd	a5,8(a0)
 105:src/AVLTree.cpp **** 
 106:src/AVLTree.cpp ****     y->parent = x->parent;
 313              		.loc 1 106 5 is_stmt 1
 314              		.loc 1 106 20 is_stmt 0
 315 0190 03370501 		ld	a4,16(a0)
 316              		.loc 1 106 15
 317 0194 2338E900 		sd	a4,16(s2)
 107:src/AVLTree.cpp ****     x->parent = y;
 318              		.loc 1 107 5 is_stmt 1
 319              		.loc 1 107 15 is_stmt 0
 320 0198 23382501 		sd	s2,16(a0)
 108:src/AVLTree.cpp ****     if (t2) t2->parent = x;
 321              		.loc 1 108 5 is_stmt 1
 322 019c 63840700 		beqz	a5,.L28
 323              		.loc 1 108 13 discriminator 1
 324              		.loc 1 108 24 is_stmt 0 discriminator 1
 325 01a0 23B8A700 		sd	a0,16(a5)
 326              	.LVL33:
 327              	.L28:
 109:src/AVLTree.cpp **** 
 110:src/AVLTree.cpp ****     x->height = 1+max(x->left, x->right);
 328              		.loc 1 110 5 is_stmt 1
 329              		.loc 1 110 22 is_stmt 0
 330 01a4 83B58400 		ld	a1,8(s1)
 331 01a8 03B50400 		ld	a0,0(s1)
 332 01ac 97000000 		call	_ZN7AVLTree3maxEPKS_S1_
 332      E7800000 
 333              	.LVL34:
GAS LISTING /tmp/ccVzmaGV.s 			page 9


 334              		.loc 1 110 18
 335 01b4 1B051500 		addiw	a0,a0,1
 336              		.loc 1 110 15
 337 01b8 23ACA402 		sw	a0,56(s1)
 111:src/AVLTree.cpp ****     y->height = 1+max(y->left, y->right);
 338              		.loc 1 111 5 is_stmt 1
 339              		.loc 1 111 22 is_stmt 0
 340 01bc 83358900 		ld	a1,8(s2)
 341 01c0 03350900 		ld	a0,0(s2)
 342 01c4 97000000 		call	_ZN7AVLTree3maxEPKS_S1_
 342      E7800000 
 343              	.LVL35:
 344              		.loc 1 111 18
 345 01cc 1B051500 		addiw	a0,a0,1
 346              		.loc 1 111 15
 347 01d0 232CA902 		sw	a0,56(s2)
 112:src/AVLTree.cpp **** 
 113:src/AVLTree.cpp **** 
 114:src/AVLTree.cpp ****     return y;
 348              		.loc 1 114 5 is_stmt 1
 115:src/AVLTree.cpp **** }
 349              		.loc 1 115 1 is_stmt 0
 350 01d4 13050900 		mv	a0,s2
 351 01d8 83308101 		ld	ra,24(sp)
 352              		.cfi_restore 1
 353 01dc 03340101 		ld	s0,16(sp)
 354              		.cfi_restore 8
 355              		.cfi_def_cfa 2, 32
 356 01e0 83348100 		ld	s1,8(sp)
 357              		.cfi_restore 9
 358              	.LVL36:
 359 01e4 03390100 		ld	s2,0(sp)
 360              		.cfi_restore 18
 361              	.LVL37:
 362 01e8 13010102 		addi	sp,sp,32
 363              		.cfi_def_cfa_offset 0
 364 01ec 67800000 		jr	ra
 365              		.cfi_endproc
 366              	.LFE11:
 368              		.align	2
 369              		.globl	_ZN7AVLTree8containsEPKS_S1_
 371              	_ZN7AVLTree8containsEPKS_S1_:
 372              	.LFB13:
 116:src/AVLTree.cpp **** 
 117:src/AVLTree.cpp **** AVLTree* AVLTree::remove(AVLTree* root, AVLTree* node) {
 118:src/AVLTree.cpp ****     if (!root) return nullptr;
 119:src/AVLTree.cpp ****     if (!node || !contains(root, node)) return root;
 120:src/AVLTree.cpp **** 
 121:src/AVLTree.cpp ****     if (node->sameSize) {
 122:src/AVLTree.cpp ****         (isRightSon(node) ? node->parent->right : node->parent->left) = node->sameSize;
 123:src/AVLTree.cpp ****         node->sameSize->right = node->right;
 124:src/AVLTree.cpp ****         node->sameSize->left = node->left;
 125:src/AVLTree.cpp ****         node->sameSize->parent = node->parent;
 126:src/AVLTree.cpp ****         return root;
 127:src/AVLTree.cpp ****     }
 128:src/AVLTree.cpp **** 
 129:src/AVLTree.cpp ****     AVLTree* updateFrom;
GAS LISTING /tmp/ccVzmaGV.s 			page 10


 130:src/AVLTree.cpp **** 
 131:src/AVLTree.cpp ****     if (!node->left && !node->right) { // no children
 132:src/AVLTree.cpp ****         updateFrom = node->parent;
 133:src/AVLTree.cpp ****         if (node != root) (isRightSon(node) ? node->parent->right : node->parent->left) = nullptr;
 134:src/AVLTree.cpp ****     } else if (!node->left || !node->right) { // one child
 135:src/AVLTree.cpp ****         updateFrom = node->parent;
 136:src/AVLTree.cpp ****         if (node == root) {updateFrom = (node->left) ? node->left : node->right; updateFrom->parent
 137:src/AVLTree.cpp ****         if (node != root) (isRightSon(node) ? node->parent->right : node->parent->left) = ((node->r
 138:src/AVLTree.cpp ****     } else { //two children
 139:src/AVLTree.cpp ****         AVLTree* swap = findSuccessor(node);
 140:src/AVLTree.cpp **** 
 141:src/AVLTree.cpp **** 
 142:src/AVLTree.cpp ****         if (swap == node->right) {
 143:src/AVLTree.cpp ****             updateFrom = swap;
 144:src/AVLTree.cpp ****             if (node != root) (isRightSon(node) ? node->parent->right : node->parent->left) = swap;
 145:src/AVLTree.cpp ****             node->right->parent = nullptr;
 146:src/AVLTree.cpp ****             node->left->parent = swap;
 147:src/AVLTree.cpp **** 
 148:src/AVLTree.cpp ****             swap->left = node->left;
 149:src/AVLTree.cpp ****             swap->parent = node->parent;
 150:src/AVLTree.cpp ****             // no change to swap->right
 151:src/AVLTree.cpp ****         } else {
 152:src/AVLTree.cpp ****             updateFrom = swap->parent; // updating starts from swapped node
 153:src/AVLTree.cpp ****             if (node != root) (isRightSon(node) ? node->parent->right : node->parent->left) = swap;
 154:src/AVLTree.cpp ****             node->left->parent = swap;
 155:src/AVLTree.cpp ****             node->right->parent = swap;
 156:src/AVLTree.cpp **** 
 157:src/AVLTree.cpp ****             swap->parent->left = swap->right;
 158:src/AVLTree.cpp ****             if (swap->right) swap->right->parent = swap->parent;
 159:src/AVLTree.cpp **** 
 160:src/AVLTree.cpp ****             swap->left = node->left;
 161:src/AVLTree.cpp ****             swap->right = node->right;
 162:src/AVLTree.cpp ****             swap->parent = node->parent;
 163:src/AVLTree.cpp ****         }
 164:src/AVLTree.cpp ****     }
 165:src/AVLTree.cpp **** 
 166:src/AVLTree.cpp ****     // Perform balancing
 167:src/AVLTree.cpp ****     return AVLTree::balance(updateFrom);
 168:src/AVLTree.cpp **** }
 169:src/AVLTree.cpp **** 
 170:src/AVLTree.cpp **** bool AVLTree::contains(const AVLTree* root, const AVLTree* node) {
 373              		.loc 1 170 66 is_stmt 1
 374              		.cfi_startproc
 375              	.LVL38:
 376 01f0 130101FF 		addi	sp,sp,-16
 377              		.cfi_def_cfa_offset 16
 378 01f4 23348100 		sd	s0,8(sp)
 379              		.cfi_offset 8, -8
 380 01f8 13040101 		addi	s0,sp,16
 381              		.cfi_def_cfa 8, 0
 382 01fc 6F008000 		j	.L31
 383              	.LVL39:
 384              	.L33:
 171:src/AVLTree.cpp ****     const AVLTree* cur = root;
 172:src/AVLTree.cpp ****     while(cur) {
 173:src/AVLTree.cpp ****         if (cur == node)
 174:src/AVLTree.cpp ****             return true;
GAS LISTING /tmp/ccVzmaGV.s 			page 11


 175:src/AVLTree.cpp ****         if (cur->sz < node->sz)
 176:src/AVLTree.cpp ****             cur = cur->right;
 177:src/AVLTree.cpp ****         else
 178:src/AVLTree.cpp ****             cur = cur->left;
 385              		.loc 1 178 13
 386              		.loc 1 178 17 is_stmt 0
 387 0200 03350500 		ld	a0,0(a0)
 388              	.LVL40:
 389              	.L31:
 172:src/AVLTree.cpp ****         if (cur == node)
 390              		.loc 1 172 5 is_stmt 1
 172:src/AVLTree.cpp ****         if (cur == node)
 391              		.loc 1 172 11
 392 0204 630E0500 		beqz	a0,.L35
 173:src/AVLTree.cpp ****             return true;
 393              		.loc 1 173 9
 394 0208 6304B502 		beq	a0,a1,.L36
 175:src/AVLTree.cpp ****             cur = cur->right;
 395              		.loc 1 175 9
 175:src/AVLTree.cpp ****             cur = cur->right;
 396              		.loc 1 175 18 is_stmt 0
 397 020c 03370503 		ld	a4,48(a0)
 175:src/AVLTree.cpp ****             cur = cur->right;
 398              		.loc 1 175 29
 399 0210 83B70503 		ld	a5,48(a1)
 175:src/AVLTree.cpp ****             cur = cur->right;
 400              		.loc 1 175 9
 401 0214 E376F7FE 		bgeu	a4,a5,.L33
 176:src/AVLTree.cpp ****         else
 402              		.loc 1 176 13 is_stmt 1
 176:src/AVLTree.cpp ****         else
 403              		.loc 1 176 17 is_stmt 0
 404 0218 03358500 		ld	a0,8(a0)
 405              	.LVL41:
 406 021c 6FF09FFE 		j	.L31
 407              	.L35:
 179:src/AVLTree.cpp ****     }
 180:src/AVLTree.cpp **** 
 181:src/AVLTree.cpp ****     return false;
 408              		.loc 1 181 12
 409 0220 13050000 		li	a0,0
 410              	.LVL42:
 411              	.L32:
 182:src/AVLTree.cpp **** }
 412              		.loc 1 182 1
 413 0224 03348100 		ld	s0,8(sp)
 414              		.cfi_remember_state
 415              		.cfi_restore 8
 416              		.cfi_def_cfa 2, 16
 417 0228 13010101 		addi	sp,sp,16
 418              		.cfi_def_cfa_offset 0
 419 022c 67800000 		jr	ra
 420              	.LVL43:
 421              	.L36:
 422              		.cfi_restore_state
 174:src/AVLTree.cpp ****         if (cur->sz < node->sz)
 423              		.loc 1 174 20
GAS LISTING /tmp/ccVzmaGV.s 			page 12


 424 0230 13051000 		li	a0,1
 425              	.LVL44:
 426 0234 6FF01FFF 		j	.L32
 427              		.cfi_endproc
 428              	.LFE13:
 430              		.align	2
 431              		.globl	_ZN7AVLTree7balanceEPS_
 433              	_ZN7AVLTree7balanceEPS_:
 434              	.LFB14:
 183:src/AVLTree.cpp **** 
 184:src/AVLTree.cpp **** AVLTree* AVLTree::balance(AVLTree* cur) {
 435              		.loc 1 184 41 is_stmt 1
 436              		.cfi_startproc
 437              	.LVL45:
 438 0238 130101FC 		addi	sp,sp,-64
 439              		.cfi_def_cfa_offset 64
 440 023c 233C1102 		sd	ra,56(sp)
 441 0240 23388102 		sd	s0,48(sp)
 442 0244 23349102 		sd	s1,40(sp)
 443 0248 23302103 		sd	s2,32(sp)
 444 024c 233C3101 		sd	s3,24(sp)
 445 0250 23384101 		sd	s4,16(sp)
 446 0254 23345101 		sd	s5,8(sp)
 447 0258 23306101 		sd	s6,0(sp)
 448              		.cfi_offset 1, -8
 449              		.cfi_offset 8, -16
 450              		.cfi_offset 9, -24
 451              		.cfi_offset 18, -32
 452              		.cfi_offset 19, -40
 453              		.cfi_offset 20, -48
 454              		.cfi_offset 21, -56
 455              		.cfi_offset 22, -64
 456 025c 13040104 		addi	s0,sp,64
 457              		.cfi_def_cfa 8, 0
 458 0260 93040500 		mv	s1,a0
 185:src/AVLTree.cpp ****     AVLTree* prev = nullptr;
 459              		.loc 1 185 5
 460              	.LVL46:
 461              		.loc 1 185 14 is_stmt 0
 462 0264 13090000 		li	s2,0
 463 0268 6F00000E 		j	.L54
 464              	.LVL47:
 465              	.L55:
 466              	.LBB20:
 467              	.LBB21:
 468              	.LBB22:
  50:src/AVLTree.cpp **** }
 469              		.loc 1 50 33
 470 026c 93090000 		li	s3,0
 471 0270 6F008010 		j	.L40
 472              	.L56:
  50:src/AVLTree.cpp **** }
 473              		.loc 1 50 84
 474 0274 93070000 		li	a5,0
 475 0278 6F00C010 		j	.L41
 476              	.LVL48:
 477              	.L57:
GAS LISTING /tmp/ccVzmaGV.s 			page 13


 478              	.LBE22:
 479              	.LBE21:
 480              	.LBB24:
 481              	.LBB25:
  50:src/AVLTree.cpp **** }
 482              		.loc 1 50 33
 483 027c 130A0000 		li	s4,0
 484 0280 6F000012 		j	.L42
 485              	.L58:
 486 0284 130A0000 		li	s4,0
 487 0288 6F008011 		j	.L42
 488              	.L59:
  50:src/AVLTree.cpp **** }
 489              		.loc 1 50 84
 490 028c 93070000 		li	a5,0
 491 0290 6F004012 		j	.L43
 492              	.L60:
 493 0294 93070000 		li	a5,0
 494 0298 6F00C011 		j	.L43
 495              	.LVL49:
 496              	.L63:
 497              	.LBE25:
 498              	.LBE24:
 186:src/AVLTree.cpp ****     while(cur) {
 187:src/AVLTree.cpp ****         cur->height = 1 + max(cur->left, cur->right);
 188:src/AVLTree.cpp ****         int curBalance = AVLTree::getBalance(cur);
 189:src/AVLTree.cpp ****         int prevBalance = AVLTree::getBalance(prev);
 190:src/AVLTree.cpp **** 
 191:src/AVLTree.cpp ****         AVLTree* oldCurParent = cur->parent;
 192:src/AVLTree.cpp **** 
 193:src/AVLTree.cpp ****         if (curBalance < -1 && prevBalance * curBalance < 0) {
 499              		.loc 1 193 44 discriminator 1
 500 029c BB073A03 		mulw	a5,s4,s3
 501              		.loc 1 193 29 discriminator 1
 502 02a0 63D20712 		bgez	a5,.L44
 194:src/AVLTree.cpp ****             prev = AVLTree::leftRotation(prev);
 503              		.loc 1 194 13 is_stmt 1
 504              		.loc 1 194 41 is_stmt 0
 505 02a4 13050900 		mv	a0,s2
 506 02a8 97000000 		call	_ZN7AVLTree12leftRotationEPS_
 506      E7800000 
 507              	.LVL50:
 508 02b0 13090500 		mv	s2,a0
 509              	.LVL51:
 195:src/AVLTree.cpp ****             ((cur->sz < prev->sz) ? cur->right : cur->left) = prev;
 510              		.loc 1 195 13 is_stmt 1
 511              		.loc 1 195 20 is_stmt 0
 512 02b4 03B70403 		ld	a4,48(s1)
 513              		.loc 1 195 31
 514 02b8 83370503 		ld	a5,48(a0)
 515              		.loc 1 195 61
 516 02bc 637EF700 		bgeu	a4,a5,.L45
 517              		.loc 1 195 61 discriminator 1
 518 02c0 23B4A400 		sd	a0,8(s1)
 519              	.L46:
 196:src/AVLTree.cpp ****             cur = AVLTree::rightRotation(cur);
 520              		.loc 1 196 13 is_stmt 1
GAS LISTING /tmp/ccVzmaGV.s 			page 14


 521              		.loc 1 196 41 is_stmt 0
 522 02c4 13850400 		mv	a0,s1
 523              	.LVL52:
 524 02c8 97000000 		call	_ZN7AVLTree13rightRotationEPS_
 524      E7800000 
 525              	.LVL53:
 526 02d0 93040500 		mv	s1,a0
 527              	.LVL54:
 528              		.loc 1 196 17
 529 02d4 6F00800F 		j	.L47
 530              	.LVL55:
 531              	.L45:
 195:src/AVLTree.cpp ****             ((cur->sz < prev->sz) ? cur->right : cur->left) = prev;
 532              		.loc 1 195 61 discriminator 2
 533 02d8 23B0A400 		sd	a0,0(s1)
 534 02dc 6FF09FFE 		j	.L46
 535              	.LVL56:
 536              	.L64:
 197:src/AVLTree.cpp ****         }else if (curBalance < -1) {
 198:src/AVLTree.cpp ****             cur = AVLTree::rightRotation(cur);
 537              		.loc 1 198 13 is_stmt 1
 538              		.loc 1 198 41 is_stmt 0
 539 02e0 13850400 		mv	a0,s1
 540 02e4 97000000 		call	_ZN7AVLTree13rightRotationEPS_
 540      E7800000 
 541              	.LVL57:
 542 02ec 93040500 		mv	s1,a0
 543              	.LVL58:
 544 02f0 6F00C00D 		j	.L47
 545              	.LVL59:
 546              	.L65:
 199:src/AVLTree.cpp ****         }
 200:src/AVLTree.cpp ****         if (curBalance > 1 && prevBalance * curBalance < 0) {
 201:src/AVLTree.cpp ****             prev = AVLTree::rightRotation(prev);
 547              		.loc 1 201 13 is_stmt 1
 548              		.loc 1 201 42 is_stmt 0
 549 02f4 13050900 		mv	a0,s2
 550 02f8 97000000 		call	_ZN7AVLTree13rightRotationEPS_
 550      E7800000 
 551              	.LVL60:
 202:src/AVLTree.cpp ****             ((cur->sz < prev->sz) ? cur->right : cur->left) = prev;
 552              		.loc 1 202 13 is_stmt 1
 553              		.loc 1 202 20 is_stmt 0
 554 0300 03B70403 		ld	a4,48(s1)
 555              		.loc 1 202 31
 556 0304 83370503 		ld	a5,48(a0)
 557              		.loc 1 202 61
 558 0308 637EF700 		bgeu	a4,a5,.L49
 559              		.loc 1 202 61 discriminator 1
 560 030c 23B4A400 		sd	a0,8(s1)
 561              	.L50:
 203:src/AVLTree.cpp ****             cur = AVLTree::leftRotation(cur);
 562              		.loc 1 203 13 is_stmt 1
 563              		.loc 1 203 40 is_stmt 0
 564 0310 13850400 		mv	a0,s1
 565              	.LVL61:
 566 0314 97000000 		call	_ZN7AVLTree12leftRotationEPS_
GAS LISTING /tmp/ccVzmaGV.s 			page 15


 566      E7800000 
 567              	.LVL62:
 568 031c 13090500 		mv	s2,a0
 569              	.LVL63:
 570              		.loc 1 203 17
 571 0320 6F00800C 		j	.L51
 572              	.LVL64:
 573              	.L49:
 202:src/AVLTree.cpp ****             ((cur->sz < prev->sz) ? cur->right : cur->left) = prev;
 574              		.loc 1 202 61 discriminator 2
 575 0324 23B0A400 		sd	a0,0(s1)
 576 0328 6FF09FFE 		j	.L50
 577              	.LVL65:
 578              	.L66:
 204:src/AVLTree.cpp ****         }else if (curBalance > 1) {
 205:src/AVLTree.cpp ****             cur = AVLTree::leftRotation(cur);
 579              		.loc 1 205 13 is_stmt 1
 580              		.loc 1 205 40 is_stmt 0
 581 032c 13850400 		mv	a0,s1
 582 0330 97000000 		call	_ZN7AVLTree12leftRotationEPS_
 582      E7800000 
 583              	.LVL66:
 584 0338 13090500 		mv	s2,a0
 585              	.LVL67:
 586 033c 6F00C00A 		j	.L51
 587              	.LVL68:
 588              	.L53:
 206:src/AVLTree.cpp ****         }
 207:src/AVLTree.cpp **** 
 208:src/AVLTree.cpp ****         if (oldCurParent) ((oldCurParent->sz < cur->sz) ? oldCurParent->right : oldCurParent->left)
 589              		.loc 1 208 101 discriminator 3
 590 0340 23302B01 		sd	s2,0(s6)
 591              	.L52:
 209:src/AVLTree.cpp **** 
 210:src/AVLTree.cpp ****         prev = cur;
 592              		.loc 1 210 9 is_stmt 1
 593              	.LVL69:
 211:src/AVLTree.cpp ****         cur = cur->parent;
 594              		.loc 1 211 9
 595              		.loc 1 211 13 is_stmt 0
 596 0344 83340901 		ld	s1,16(s2)
 597              	.LVL70:
 598              	.L54:
 599              	.LBE20:
 186:src/AVLTree.cpp ****         cur->height = 1 + max(cur->left, cur->right);
 600              		.loc 1 186 5 is_stmt 1
 186:src/AVLTree.cpp ****         cur->height = 1 + max(cur->left, cur->right);
 601              		.loc 1 186 11
 602 0348 638C040A 		beqz	s1,.L38
 603              	.LBB29:
 187:src/AVLTree.cpp ****         int curBalance = AVLTree::getBalance(cur);
 604              		.loc 1 187 9
 187:src/AVLTree.cpp ****         int curBalance = AVLTree::getBalance(cur);
 605              		.loc 1 187 36 is_stmt 0
 606 034c 03BA0400 		ld	s4,0(s1)
 187:src/AVLTree.cpp ****         int curBalance = AVLTree::getBalance(cur);
 607              		.loc 1 187 47
GAS LISTING /tmp/ccVzmaGV.s 			page 16


 608 0350 83B98400 		ld	s3,8(s1)
 187:src/AVLTree.cpp ****         int curBalance = AVLTree::getBalance(cur);
 609              		.loc 1 187 30
 610 0354 93850900 		mv	a1,s3
 611 0358 13050A00 		mv	a0,s4
 612 035c 97000000 		call	_ZN7AVLTree3maxEPKS_S1_
 612      E7800000 
 613              	.LVL71:
 187:src/AVLTree.cpp ****         int curBalance = AVLTree::getBalance(cur);
 614              		.loc 1 187 25
 615 0364 1B051500 		addiw	a0,a0,1
 187:src/AVLTree.cpp ****         int curBalance = AVLTree::getBalance(cur);
 616              		.loc 1 187 21
 617 0368 23ACA402 		sw	a0,56(s1)
 188:src/AVLTree.cpp ****         int prevBalance = AVLTree::getBalance(prev);
 618              		.loc 1 188 9 is_stmt 1
 619              	.LVL72:
 620              	.LBB27:
 621              	.LBB23:
  50:src/AVLTree.cpp **** }
 622              		.loc 1 50 5
  50:src/AVLTree.cpp **** }
 623              		.loc 1 50 18 is_stmt 0
 624 036c E38009F0 		beqz	s3,.L55
  50:src/AVLTree.cpp **** }
 625              		.loc 1 50 50
 626 0370 83A98903 		lw	s3,56(s3)
  50:src/AVLTree.cpp **** }
 627              		.loc 1 50 33
 628 0374 9B891900 		addiw	s3,s3,1
 629              	.L40:
  50:src/AVLTree.cpp **** }
 630              		.loc 1 50 70
 631 0378 E30E0AEE 		beqz	s4,.L56
  50:src/AVLTree.cpp **** }
 632              		.loc 1 50 100
 633 037c 83278A03 		lw	a5,56(s4)
  50:src/AVLTree.cpp **** }
 634              		.loc 1 50 84
 635 0380 9B871700 		addiw	a5,a5,1
 636              	.L41:
  50:src/AVLTree.cpp **** }
 637              		.loc 1 50 110
 638 0384 BB89F940 		subw	s3,s3,a5
 639 0388 9B8A0900 		sext.w	s5,s3
 640              	.LVL73:
 641              	.LBE23:
 642              	.LBE27:
 189:src/AVLTree.cpp **** 
 643              		.loc 1 189 9 is_stmt 1
 644              	.LBB28:
 645              	.LBB26:
  50:src/AVLTree.cpp **** }
 646              		.loc 1 50 5
  50:src/AVLTree.cpp **** }
 647              		.loc 1 50 33 is_stmt 0
 648 038c E30809EE 		beqz	s2,.L57
GAS LISTING /tmp/ccVzmaGV.s 			page 17


  50:src/AVLTree.cpp **** }
 649              		.loc 1 50 27
 650 0390 83378900 		ld	a5,8(s2)
  50:src/AVLTree.cpp **** }
 651              		.loc 1 50 18
 652 0394 E38807EE 		beqz	a5,.L58
  50:src/AVLTree.cpp **** }
 653              		.loc 1 50 50
 654 0398 03AA8703 		lw	s4,56(a5)
  50:src/AVLTree.cpp **** }
 655              		.loc 1 50 33
 656 039c 1B0A1A00 		addiw	s4,s4,1
 657              	.L42:
  50:src/AVLTree.cpp **** }
 658              		.loc 1 50 84
 659 03a0 E30609EE 		beqz	s2,.L59
  50:src/AVLTree.cpp **** }
 660              		.loc 1 50 79
 661 03a4 83370900 		ld	a5,0(s2)
  50:src/AVLTree.cpp **** }
 662              		.loc 1 50 70
 663 03a8 E38607EE 		beqz	a5,.L60
  50:src/AVLTree.cpp **** }
 664              		.loc 1 50 100
 665 03ac 83A78703 		lw	a5,56(a5)
  50:src/AVLTree.cpp **** }
 666              		.loc 1 50 84
 667 03b0 9B871700 		addiw	a5,a5,1
 668              	.L43:
  50:src/AVLTree.cpp **** }
 669              		.loc 1 50 110
 670 03b4 3B0AFA40 		subw	s4,s4,a5
 671              	.LVL74:
 672              	.LBE26:
 673              	.LBE28:
 191:src/AVLTree.cpp **** 
 674              		.loc 1 191 9 is_stmt 1
 191:src/AVLTree.cpp **** 
 675              		.loc 1 191 18 is_stmt 0
 676 03b8 03BB0401 		ld	s6,16(s1)
 677              	.LVL75:
 193:src/AVLTree.cpp ****             prev = AVLTree::leftRotation(prev);
 678              		.loc 1 193 9 is_stmt 1
 679 03bc 9307F0FF 		li	a5,-1
 680 03c0 E3CEFAEC 		blt	s5,a5,.L63
 681              	.L44:
 197:src/AVLTree.cpp ****             cur = AVLTree::rightRotation(cur);
 682              		.loc 1 197 15
 683 03c4 9307F0FF 		li	a5,-1
 684 03c8 E3CCFAF0 		blt	s5,a5,.L64
 685              	.L47:
 200:src/AVLTree.cpp ****             prev = AVLTree::rightRotation(prev);
 686              		.loc 1 200 9
 687 03cc 93071000 		li	a5,1
 688 03d0 63D65701 		ble	s5,a5,.L48
 200:src/AVLTree.cpp ****             prev = AVLTree::rightRotation(prev);
 689              		.loc 1 200 43 is_stmt 0 discriminator 1
GAS LISTING /tmp/ccVzmaGV.s 			page 18


 690 03d4 BB093A03 		mulw	s3,s4,s3
 691              	.LVL76:
 200:src/AVLTree.cpp ****             prev = AVLTree::rightRotation(prev);
 692              		.loc 1 200 28 discriminator 1
 693 03d8 E3CE09F0 		bltz	s3,.L65
 694              	.L48:
 204:src/AVLTree.cpp ****             cur = AVLTree::leftRotation(cur);
 695              		.loc 1 204 15 is_stmt 1
 696 03dc 93071000 		li	a5,1
 697 03e0 E3C657F5 		bgt	s5,a5,.L66
 698 03e4 13890400 		mv	s2,s1
 699              	.LVL77:
 700              	.L51:
 208:src/AVLTree.cpp **** 
 701              		.loc 1 208 9
 702 03e8 E30E0BF4 		beqz	s6,.L52
 208:src/AVLTree.cpp **** 
 703              		.loc 1 208 27 discriminator 1
 208:src/AVLTree.cpp **** 
 704              		.loc 1 208 43 is_stmt 0 discriminator 1
 705 03ec 03370B03 		ld	a4,48(s6)
 208:src/AVLTree.cpp **** 
 706              		.loc 1 208 53 discriminator 1
 707 03f0 83370903 		ld	a5,48(s2)
 208:src/AVLTree.cpp **** 
 708              		.loc 1 208 101 discriminator 1
 709 03f4 E376F7F4 		bgeu	a4,a5,.L53
 208:src/AVLTree.cpp **** 
 710              		.loc 1 208 101 discriminator 2
 711 03f8 23342B01 		sd	s2,8(s6)
 712 03fc 6FF09FF4 		j	.L52
 713              	.LVL78:
 714              	.L38:
 715              	.LBE29:
 212:src/AVLTree.cpp ****     }
 213:src/AVLTree.cpp ****     return prev;
 214:src/AVLTree.cpp **** }
 716              		.loc 1 214 1
 717 0400 13050900 		mv	a0,s2
 718 0404 83308103 		ld	ra,56(sp)
 719              		.cfi_restore 1
 720 0408 03340103 		ld	s0,48(sp)
 721              		.cfi_restore 8
 722              		.cfi_def_cfa 2, 64
 723 040c 83348102 		ld	s1,40(sp)
 724              		.cfi_restore 9
 725              	.LVL79:
 726 0410 03390102 		ld	s2,32(sp)
 727              		.cfi_restore 18
 728              	.LVL80:
 729 0414 83398101 		ld	s3,24(sp)
 730              		.cfi_restore 19
 731 0418 033A0101 		ld	s4,16(sp)
 732              		.cfi_restore 20
 733 041c 833A8100 		ld	s5,8(sp)
 734              		.cfi_restore 21
 735 0420 033B0100 		ld	s6,0(sp)
GAS LISTING /tmp/ccVzmaGV.s 			page 19


 736              		.cfi_restore 22
 737 0424 13010104 		addi	sp,sp,64
 738              		.cfi_def_cfa_offset 0
 739 0428 67800000 		jr	ra
 740              		.cfi_endproc
 741              	.LFE14:
 743              		.align	2
 744              		.globl	_ZN7AVLTree6insertEPS_S0_
 746              	_ZN7AVLTree6insertEPS_S0_:
 747              	.LFB5:
  20:src/AVLTree.cpp **** 
 748              		.loc 1 20 56 is_stmt 1
 749              		.cfi_startproc
 750              	.LVL81:
  23:src/AVLTree.cpp ****         return node;
 751              		.loc 1 23 5
 752 042c 63060508 		beqz	a0,.L76
 753 0430 13060500 		mv	a2,a0
  27:src/AVLTree.cpp ****     while(cur) {
 754              		.loc 1 27 14 is_stmt 0
 755 0434 93070500 		mv	a5,a0
  27:src/AVLTree.cpp ****     while(cur) {
 756              		.loc 1 27 27
 757 0438 13050000 		li	a0,0
 758              	.LVL82:
 759 043c 6F00C001 		j	.L69
 760              	.LVL83:
 761              	.L80:
  30:src/AVLTree.cpp ****             return root;
 762              		.loc 1 30 13 is_stmt 1
  30:src/AVLTree.cpp ****             return root;
 763              		.loc 1 30 27 is_stmt 0
 764 0440 23BCB700 		sd	a1,24(a5)
  31:src/AVLTree.cpp ****         }
 765              		.loc 1 31 13 is_stmt 1
  31:src/AVLTree.cpp ****         }
 766              		.loc 1 31 20 is_stmt 0
 767 0444 13050600 		mv	a0,a2
 768              	.LVL84:
 769 0448 67800000 		ret
 770              	.LVL85:
 771              	.L72:
  37:src/AVLTree.cpp ****     }
 772              		.loc 1 37 13 is_stmt 1
  37:src/AVLTree.cpp ****     }
 773              		.loc 1 37 17 is_stmt 0
 774 044c 03B70700 		ld	a4,0(a5)
 775              	.LVL86:
 776              	.L73:
  20:src/AVLTree.cpp **** 
 777              		.loc 1 20 56
 778 0450 13850700 		mv	a0,a5
 779 0454 93070700 		mv	a5,a4
 780              	.LVL87:
 781              	.L69:
  28:src/AVLTree.cpp ****         if (node->sz == cur->sz) {
 782              		.loc 1 28 5 is_stmt 1
GAS LISTING /tmp/ccVzmaGV.s 			page 20


  28:src/AVLTree.cpp ****         if (node->sz == cur->sz) {
 783              		.loc 1 28 11
 784 0458 638E0700 		beqz	a5,.L70
  29:src/AVLTree.cpp ****             cur->sameSize = node;
 785              		.loc 1 29 9
  29:src/AVLTree.cpp ****             cur->sameSize = node;
 786              		.loc 1 29 19 is_stmt 0
 787 045c 83B60503 		ld	a3,48(a1)
  29:src/AVLTree.cpp ****             cur->sameSize = node;
 788              		.loc 1 29 30
 789 0460 03B70703 		ld	a4,48(a5)
  29:src/AVLTree.cpp ****             cur->sameSize = node;
 790              		.loc 1 29 9
 791 0464 E38EE6FC 		beq	a3,a4,.L80
  33:src/AVLTree.cpp ****         if (node->sz > cur->sz)
 792              		.loc 1 33 9 is_stmt 1
 793              	.LVL88:
  34:src/AVLTree.cpp ****             cur = cur->right;
 794              		.loc 1 34 9
 795 0468 E372D7FE 		bleu	a3,a4,.L72
  35:src/AVLTree.cpp ****         else
 796              		.loc 1 35 13
  35:src/AVLTree.cpp ****         else
 797              		.loc 1 35 17 is_stmt 0
 798 046c 03B78700 		ld	a4,8(a5)
 799              	.LVL89:
 800 0470 6FF01FFE 		j	.L73
 801              	.LVL90:
 802              	.L70:
  20:src/AVLTree.cpp **** 
 803              		.loc 1 20 56
 804 0474 130101FF 		addi	sp,sp,-16
 805              		.cfi_def_cfa_offset 16
 806 0478 23341100 		sd	ra,8(sp)
 807 047c 23308100 		sd	s0,0(sp)
 808              		.cfi_offset 1, -8
 809              		.cfi_offset 8, -16
 810 0480 13040101 		addi	s0,sp,16
 811              		.cfi_def_cfa 8, 0
  40:src/AVLTree.cpp ****     node->parent = prev;
 812              		.loc 1 40 5 is_stmt 1
  40:src/AVLTree.cpp ****     node->parent = prev;
 813              		.loc 1 40 12 is_stmt 0
 814 0484 03B70503 		ld	a4,48(a1)
  40:src/AVLTree.cpp ****     node->parent = prev;
 815              		.loc 1 40 23
 816 0488 83370503 		ld	a5,48(a0)
 817              	.LVL91:
  40:src/AVLTree.cpp ****     node->parent = prev;
 818              		.loc 1 40 54
 819 048c 63F2E702 		bleu	a4,a5,.L74
  40:src/AVLTree.cpp ****     node->parent = prev;
 820              		.loc 1 40 54 discriminator 1
 821 0490 2334B500 		sd	a1,8(a0)
 822              	.L75:
  41:src/AVLTree.cpp ****     cur = prev;
 823              		.loc 1 41 5 is_stmt 1
GAS LISTING /tmp/ccVzmaGV.s 			page 21


  41:src/AVLTree.cpp ****     cur = prev;
 824              		.loc 1 41 18 is_stmt 0
 825 0494 23B8A500 		sd	a0,16(a1)
  42:src/AVLTree.cpp ****     prev = nullptr;
 826              		.loc 1 42 5 is_stmt 1
 827              	.LVL92:
  43:src/AVLTree.cpp **** 
 828              		.loc 1 43 5
  46:src/AVLTree.cpp **** }
 829              		.loc 1 46 5
  46:src/AVLTree.cpp **** }
 830              		.loc 1 46 28 is_stmt 0
 831 0498 97000000 		call	_ZN7AVLTree7balanceEPS_
 831      E7800000 
 832              	.LVL93:
  47:src/AVLTree.cpp **** 
 833              		.loc 1 47 1
 834 04a0 83308100 		ld	ra,8(sp)
 835              		.cfi_remember_state
 836              		.cfi_restore 1
 837 04a4 03340100 		ld	s0,0(sp)
 838              		.cfi_restore 8
 839              		.cfi_def_cfa 2, 16
 840 04a8 13010101 		addi	sp,sp,16
 841              		.cfi_def_cfa_offset 0
 842 04ac 67800000 		jr	ra
 843              	.LVL94:
 844              	.L74:
 845              		.cfi_restore_state
  40:src/AVLTree.cpp ****     node->parent = prev;
 846              		.loc 1 40 54 discriminator 2
 847 04b0 2330B500 		sd	a1,0(a0)
 848 04b4 6FF01FFE 		j	.L75
 849              	.LVL95:
 850              	.L76:
 851              		.cfi_def_cfa_register 2
 852              		.cfi_restore 1
 853              		.cfi_restore 8
  24:src/AVLTree.cpp ****     }
 854              		.loc 1 24 16
 855 04b8 13850500 		mv	a0,a1
 856              	.LVL96:
  47:src/AVLTree.cpp **** 
 857              		.loc 1 47 1
 858 04bc 67800000 		ret
 859              		.cfi_endproc
 860              	.LFE5:
 862              		.align	2
 863              		.globl	_ZN7AVLTree6removeEPS_S0_
 865              	_ZN7AVLTree6removeEPS_S0_:
 866              	.LFB12:
 117:src/AVLTree.cpp ****     if (!root) return nullptr;
 867              		.loc 1 117 56 is_stmt 1
 868              		.cfi_startproc
 869              	.LVL97:
 870 04c0 130101FD 		addi	sp,sp,-48
 871              		.cfi_def_cfa_offset 48
GAS LISTING /tmp/ccVzmaGV.s 			page 22


 872 04c4 23341102 		sd	ra,40(sp)
 873 04c8 23308102 		sd	s0,32(sp)
 874 04cc 233C9100 		sd	s1,24(sp)
 875 04d0 23382101 		sd	s2,16(sp)
 876 04d4 23343101 		sd	s3,8(sp)
 877              		.cfi_offset 1, -8
 878              		.cfi_offset 8, -16
 879              		.cfi_offset 9, -24
 880              		.cfi_offset 18, -32
 881              		.cfi_offset 19, -40
 882 04d8 13040103 		addi	s0,sp,48
 883              		.cfi_def_cfa 8, 0
 884 04dc 13090500 		mv	s2,a0
 118:src/AVLTree.cpp ****     if (!node || !contains(root, node)) return root;
 885              		.loc 1 118 5
 886 04e0 630C0504 		beqz	a0,.L82
 887 04e4 93840500 		mv	s1,a1
 119:src/AVLTree.cpp **** 
 888              		.loc 1 119 5
 119:src/AVLTree.cpp **** 
 889              		.loc 1 119 15 is_stmt 0
 890 04e8 63880504 		beqz	a1,.L82
 119:src/AVLTree.cpp **** 
 891              		.loc 1 119 27 discriminator 2
 892 04ec 97000000 		call	_ZN7AVLTree8containsEPKS_S1_
 892      E7800000 
 893              	.LVL98:
 119:src/AVLTree.cpp **** 
 894              		.loc 1 119 15 discriminator 2
 895 04f4 63020504 		beqz	a0,.L82
 121:src/AVLTree.cpp ****         (isRightSon(node) ? node->parent->right : node->parent->left) = node->sameSize;
 896              		.loc 1 121 5 is_stmt 1
 121:src/AVLTree.cpp ****         (isRightSon(node) ? node->parent->right : node->parent->left) = node->sameSize;
 897              		.loc 1 121 15 is_stmt 0
 898 04f8 83B78401 		ld	a5,24(s1)
 121:src/AVLTree.cpp ****         (isRightSon(node) ? node->parent->right : node->parent->left) = node->sameSize;
 899              		.loc 1 121 5
 900 04fc 63820706 		beqz	a5,.L83
 122:src/AVLTree.cpp ****         node->sameSize->right = node->right;
 901              		.loc 1 122 9 is_stmt 1
 902              	.LVL99:
 903              	.LBB30:
 904              	.LBB31:
  64:src/AVLTree.cpp **** }
 905              		.loc 1 64 5
  64:src/AVLTree.cpp **** }
 906              		.loc 1 64 19 is_stmt 0
 907 0500 03B70401 		ld	a4,16(s1)
  64:src/AVLTree.cpp **** }
 908              		.loc 1 64 26
 909 0504 63060700 		beqz	a4,.L84
  64:src/AVLTree.cpp **** }
 910              		.loc 1 64 43
 911 0508 83368700 		ld	a3,8(a4)
  64:src/AVLTree.cpp **** }
 912              		.loc 1 64 26
 913 050c 6386D404 		beq	s1,a3,.L85
GAS LISTING /tmp/ccVzmaGV.s 			page 23


 914              	.L84:
 915              	.LVL100:
 916              	.LBE31:
 917              	.LBE30:
 122:src/AVLTree.cpp ****         node->sameSize->right = node->right;
 918              		.loc 1 122 71
 919 0510 2330F700 		sd	a5,0(a4)
 920              	.L86:
 123:src/AVLTree.cpp ****         node->sameSize->left = node->left;
 921              		.loc 1 123 9 is_stmt 1
 123:src/AVLTree.cpp ****         node->sameSize->left = node->left;
 922              		.loc 1 123 15 is_stmt 0
 923 0514 83B78401 		ld	a5,24(s1)
 123:src/AVLTree.cpp ****         node->sameSize->left = node->left;
 924              		.loc 1 123 39
 925 0518 03B78400 		ld	a4,8(s1)
 123:src/AVLTree.cpp ****         node->sameSize->left = node->left;
 926              		.loc 1 123 31
 927 051c 23B4E700 		sd	a4,8(a5)
 124:src/AVLTree.cpp ****         node->sameSize->parent = node->parent;
 928              		.loc 1 124 9 is_stmt 1
 124:src/AVLTree.cpp ****         node->sameSize->parent = node->parent;
 929              		.loc 1 124 15 is_stmt 0
 930 0520 83B78401 		ld	a5,24(s1)
 124:src/AVLTree.cpp ****         node->sameSize->parent = node->parent;
 931              		.loc 1 124 38
 932 0524 03B70400 		ld	a4,0(s1)
 124:src/AVLTree.cpp ****         node->sameSize->parent = node->parent;
 933              		.loc 1 124 30
 934 0528 23B0E700 		sd	a4,0(a5)
 125:src/AVLTree.cpp ****         return root;
 935              		.loc 1 125 9 is_stmt 1
 125:src/AVLTree.cpp ****         return root;
 936              		.loc 1 125 15 is_stmt 0
 937 052c 83B78401 		ld	a5,24(s1)
 125:src/AVLTree.cpp ****         return root;
 938              		.loc 1 125 40
 939 0530 03B70401 		ld	a4,16(s1)
 125:src/AVLTree.cpp ****         return root;
 940              		.loc 1 125 32
 941 0534 23B8E700 		sd	a4,16(a5)
 126:src/AVLTree.cpp ****     }
 942              		.loc 1 126 9 is_stmt 1
 943              	.LVL101:
 944              	.L82:
 168:src/AVLTree.cpp **** 
 945              		.loc 1 168 1 is_stmt 0
 946 0538 13050900 		mv	a0,s2
 947 053c 83308102 		ld	ra,40(sp)
 948              		.cfi_remember_state
 949              		.cfi_restore 1
 950 0540 03340102 		ld	s0,32(sp)
 951              		.cfi_restore 8
 952              		.cfi_def_cfa 2, 48
 953 0544 83348101 		ld	s1,24(sp)
 954              		.cfi_restore 9
 955 0548 03390101 		ld	s2,16(sp)
GAS LISTING /tmp/ccVzmaGV.s 			page 24


 956              		.cfi_restore 18
 957 054c 83398100 		ld	s3,8(sp)
 958              		.cfi_restore 19
 959 0550 13010103 		addi	sp,sp,48
 960              		.cfi_def_cfa_offset 0
 961 0554 67800000 		jr	ra
 962              	.LVL102:
 963              	.L85:
 964              		.cfi_restore_state
 122:src/AVLTree.cpp ****         node->sameSize->right = node->right;
 965              		.loc 1 122 71
 966 0558 2334F700 		sd	a5,8(a4)
 967 055c 6FF09FFB 		j	.L86
 968              	.L83:
 129:src/AVLTree.cpp **** 
 969              		.loc 1 129 5 is_stmt 1
 131:src/AVLTree.cpp ****         updateFrom = node->parent;
 970              		.loc 1 131 5
 971              	.LBB32:
 131:src/AVLTree.cpp ****         updateFrom = node->parent;
 972              		.loc 1 131 16 is_stmt 0
 973 0560 83B70400 		ld	a5,0(s1)
 131:src/AVLTree.cpp ****         updateFrom = node->parent;
 974              		.loc 1 131 5
 975 0564 63820708 		beqz	a5,.L110
 976              	.L87:
 977              	.LBE32:
 134:src/AVLTree.cpp ****         updateFrom = node->parent;
 978              		.loc 1 134 12 is_stmt 1
 979              	.LBB46:
 980              	.LBB33:
 981 0568 6386070A 		beqz	a5,.L91
 134:src/AVLTree.cpp ****         updateFrom = node->parent;
 982              		.loc 1 134 38 is_stmt 0 discriminator 1
 983 056c 83B98400 		ld	s3,8(s1)
 134:src/AVLTree.cpp ****         updateFrom = node->parent;
 984              		.loc 1 134 28 discriminator 1
 985 0570 6382090A 		beqz	s3,.L91
 986              	.LBB34:
 139:src/AVLTree.cpp **** 
 987              		.loc 1 139 9 is_stmt 1
 139:src/AVLTree.cpp **** 
 988              		.loc 1 139 38 is_stmt 0
 989 0574 13850400 		mv	a0,s1
 990 0578 97000000 		call	_ZN7AVLTree13findSuccessorEPS_
 990      E7800000 
 991              	.LVL103:
 992 0580 93070500 		mv	a5,a0
 993              	.LVL104:
 142:src/AVLTree.cpp ****             updateFrom = swap;
 994              		.loc 1 142 9 is_stmt 1
 995 0584 6380A910 		beq	s3,a0,.L111
 152:src/AVLTree.cpp ****             if (node != root) (isRightSon(node) ? node->parent->right : node->parent->left) = swap;
 996              		.loc 1 152 13
 152:src/AVLTree.cpp ****             if (node != root) (isRightSon(node) ? node->parent->right : node->parent->left) = swap;
 997              		.loc 1 152 24 is_stmt 0
 998 0588 03350501 		ld	a0,16(a0)
GAS LISTING /tmp/ccVzmaGV.s 			page 25


 999              	.LVL105:
 153:src/AVLTree.cpp ****             node->left->parent = swap;
 1000              		.loc 1 153 13 is_stmt 1
 1001 058c 630C9900 		beq	s2,s1,.L104
 153:src/AVLTree.cpp ****             node->left->parent = swap;
 1002              		.loc 1 153 31
 1003              	.LVL106:
 1004              	.LBB35:
 1005              	.LBB36:
  64:src/AVLTree.cpp **** }
 1006              		.loc 1 64 5
  64:src/AVLTree.cpp **** }
 1007              		.loc 1 64 19 is_stmt 0
 1008 0590 03B70401 		ld	a4,16(s1)
  64:src/AVLTree.cpp **** }
 1009              		.loc 1 64 26
 1010 0594 63060700 		beqz	a4,.L105
  64:src/AVLTree.cpp **** }
 1011              		.loc 1 64 43
 1012 0598 83368700 		ld	a3,8(a4)
  64:src/AVLTree.cpp **** }
 1013              		.loc 1 64 26
 1014 059c 6388D412 		beq	s1,a3,.L106
 1015              	.L105:
 1016              	.LVL107:
 1017              	.LBE36:
 1018              	.LBE35:
 153:src/AVLTree.cpp ****             node->left->parent = swap;
 1019              		.loc 1 153 93
 1020 05a0 2330F700 		sd	a5,0(a4)
 1021              	.L104:
 154:src/AVLTree.cpp ****             node->right->parent = swap;
 1022              		.loc 1 154 13 is_stmt 1
 154:src/AVLTree.cpp ****             node->right->parent = swap;
 1023              		.loc 1 154 19 is_stmt 0
 1024 05a4 03B70400 		ld	a4,0(s1)
 154:src/AVLTree.cpp ****             node->right->parent = swap;
 1025              		.loc 1 154 32
 1026 05a8 2338F700 		sd	a5,16(a4)
 155:src/AVLTree.cpp **** 
 1027              		.loc 1 155 13 is_stmt 1
 155:src/AVLTree.cpp **** 
 1028              		.loc 1 155 19 is_stmt 0
 1029 05ac 03B78400 		ld	a4,8(s1)
 155:src/AVLTree.cpp **** 
 1030              		.loc 1 155 33
 1031 05b0 2338F700 		sd	a5,16(a4)
 157:src/AVLTree.cpp ****             if (swap->right) swap->right->parent = swap->parent;
 1032              		.loc 1 157 13 is_stmt 1
 157:src/AVLTree.cpp ****             if (swap->right) swap->right->parent = swap->parent;
 1033              		.loc 1 157 19 is_stmt 0
 1034 05b4 83B60701 		ld	a3,16(a5)
 157:src/AVLTree.cpp ****             if (swap->right) swap->right->parent = swap->parent;
 1035              		.loc 1 157 40
 1036 05b8 03B78700 		ld	a4,8(a5)
 157:src/AVLTree.cpp ****             if (swap->right) swap->right->parent = swap->parent;
 1037              		.loc 1 157 32
GAS LISTING /tmp/ccVzmaGV.s 			page 26


 1038 05bc 23B0E600 		sd	a4,0(a3)
 158:src/AVLTree.cpp **** 
 1039              		.loc 1 158 13 is_stmt 1
 1040 05c0 63060700 		beqz	a4,.L107
 158:src/AVLTree.cpp **** 
 1041              		.loc 1 158 30 discriminator 1
 158:src/AVLTree.cpp **** 
 1042              		.loc 1 158 58 is_stmt 0 discriminator 1
 1043 05c4 83B60701 		ld	a3,16(a5)
 158:src/AVLTree.cpp **** 
 1044              		.loc 1 158 50 discriminator 1
 1045 05c8 2338D700 		sd	a3,16(a4)
 1046              	.L107:
 160:src/AVLTree.cpp ****             swap->right = node->right;
 1047              		.loc 1 160 13 is_stmt 1
 160:src/AVLTree.cpp ****             swap->right = node->right;
 1048              		.loc 1 160 32 is_stmt 0
 1049 05cc 03B70400 		ld	a4,0(s1)
 160:src/AVLTree.cpp ****             swap->right = node->right;
 1050              		.loc 1 160 24
 1051 05d0 23B0E700 		sd	a4,0(a5)
 161:src/AVLTree.cpp ****             swap->parent = node->parent;
 1052              		.loc 1 161 13 is_stmt 1
 161:src/AVLTree.cpp ****             swap->parent = node->parent;
 1053              		.loc 1 161 33 is_stmt 0
 1054 05d4 03B78400 		ld	a4,8(s1)
 161:src/AVLTree.cpp ****             swap->parent = node->parent;
 1055              		.loc 1 161 25
 1056 05d8 23B4E700 		sd	a4,8(a5)
 162:src/AVLTree.cpp ****         }
 1057              		.loc 1 162 13 is_stmt 1
 162:src/AVLTree.cpp ****         }
 1058              		.loc 1 162 34 is_stmt 0
 1059 05dc 03B70401 		ld	a4,16(s1)
 162:src/AVLTree.cpp ****         }
 1060              		.loc 1 162 26
 1061 05e0 23B8E700 		sd	a4,16(a5)
 1062 05e4 6F008005 		j	.L88
 1063              	.LVL108:
 1064              	.L110:
 1065              	.LBE34:
 1066              	.LBE33:
 131:src/AVLTree.cpp ****         updateFrom = node->parent;
 1067              		.loc 1 131 31 discriminator 1
 1068 05e8 03B78400 		ld	a4,8(s1)
 131:src/AVLTree.cpp ****         updateFrom = node->parent;
 1069              		.loc 1 131 21 discriminator 1
 1070 05ec E31E07F6 		bnez	a4,.L87
 132:src/AVLTree.cpp ****         if (node != root) (isRightSon(node) ? node->parent->right : node->parent->left) = nullptr;
 1071              		.loc 1 132 9 is_stmt 1
 132:src/AVLTree.cpp ****         if (node != root) (isRightSon(node) ? node->parent->right : node->parent->left) = nullptr;
 1072              		.loc 1 132 20 is_stmt 0
 1073 05f0 03B50401 		ld	a0,16(s1)
 1074              	.LVL109:
 133:src/AVLTree.cpp ****     } else if (!node->left || !node->right) { // one child
 1075              		.loc 1 133 9 is_stmt 1
 1076 05f4 63049904 		beq	s2,s1,.L88
GAS LISTING /tmp/ccVzmaGV.s 			page 27


 133:src/AVLTree.cpp ****     } else if (!node->left || !node->right) { // one child
 1077              		.loc 1 133 27
 1078              	.LVL110:
 1079              	.LBB42:
 1080              	.LBB43:
  64:src/AVLTree.cpp **** }
 1081              		.loc 1 64 5
  64:src/AVLTree.cpp **** }
 1082              		.loc 1 64 26 is_stmt 0
 1083 05f8 63060500 		beqz	a0,.L89
  64:src/AVLTree.cpp **** }
 1084              		.loc 1 64 43
 1085 05fc 83378500 		ld	a5,8(a0)
  64:src/AVLTree.cpp **** }
 1086              		.loc 1 64 26
 1087 0600 6386F400 		beq	s1,a5,.L90
 1088              	.L89:
 1089              	.LVL111:
 1090              	.LBE43:
 1091              	.LBE42:
 133:src/AVLTree.cpp ****     } else if (!node->left || !node->right) { // one child
 1092              		.loc 1 133 89
 1093 0604 23300500 		sd	zero,0(a0)
 1094 0608 6F004003 		j	.L88
 1095              	.LVL112:
 1096              	.L90:
 1097 060c 23340500 		sd	zero,8(a0)
 1098 0610 6F00C002 		j	.L88
 1099              	.LVL113:
 1100              	.L91:
 1101              	.LBB44:
 135:src/AVLTree.cpp ****         if (node == root) {updateFrom = (node->left) ? node->left : node->right; updateFrom->parent
 1102              		.loc 1 135 9 is_stmt 1
 135:src/AVLTree.cpp ****         if (node == root) {updateFrom = (node->left) ? node->left : node->right; updateFrom->parent
 1103              		.loc 1 135 20 is_stmt 0
 1104 0614 03B50401 		ld	a0,16(s1)
 1105              	.LVL114:
 136:src/AVLTree.cpp ****         if (node != root) (isRightSon(node) ? node->parent->right : node->parent->left) = ((node->r
 1106              		.loc 1 136 9 is_stmt 1
 1107 0618 630A9902 		beq	s2,s1,.L112
 1108              	.L93:
 137:src/AVLTree.cpp ****     } else { //two children
 1109              		.loc 1 137 9
 1110 061c 63009902 		beq	s2,s1,.L88
 137:src/AVLTree.cpp ****     } else { //two children
 1111              		.loc 1 137 27
 1112              	.LVL115:
 1113              	.LBB39:
 1114              	.LBB40:
  64:src/AVLTree.cpp **** }
 1115              		.loc 1 64 5
  64:src/AVLTree.cpp **** }
 1116              		.loc 1 64 19 is_stmt 0
 1117 0620 83B70401 		ld	a5,16(s1)
  64:src/AVLTree.cpp **** }
 1118              		.loc 1 64 26
 1119 0624 63860700 		beqz	a5,.L95
GAS LISTING /tmp/ccVzmaGV.s 			page 28


  64:src/AVLTree.cpp **** }
 1120              		.loc 1 64 43
 1121 0628 03B78700 		ld	a4,8(a5)
  64:src/AVLTree.cpp **** }
 1122              		.loc 1 64 26
 1123 062c 638CE402 		beq	s1,a4,.L96
 1124              	.L95:
 1125              	.LVL116:
 1126              	.LBE40:
 1127              	.LBE39:
 137:src/AVLTree.cpp ****     } else { //two children
 1128              		.loc 1 137 99
 1129 0630 03B78400 		ld	a4,8(s1)
 137:src/AVLTree.cpp ****     } else { //two children
 1130              		.loc 1 137 106
 1131 0634 63040704 		beqz	a4,.L113
 1132              	.L97:
 137:src/AVLTree.cpp ****     } else { //two children
 1133              		.loc 1 137 89 discriminator 11
 1134 0638 23B0E700 		sd	a4,0(a5)
 1135              	.L88:
 1136              	.LBE44:
 1137              	.LBE46:
 167:src/AVLTree.cpp **** }
 1138              		.loc 1 167 5 is_stmt 1
 167:src/AVLTree.cpp **** }
 1139              		.loc 1 167 28 is_stmt 0
 1140 063c 97000000 		call	_ZN7AVLTree7balanceEPS_
 1140      E7800000 
 1141              	.LVL117:
 1142 0644 13090500 		mv	s2,a0
 1143              	.LVL118:
 167:src/AVLTree.cpp **** }
 1144              		.loc 1 167 39
 1145 0648 6FF01FEF 		j	.L82
 1146              	.LVL119:
 1147              	.L112:
 1148              	.LBB47:
 1149              	.LBB45:
 136:src/AVLTree.cpp ****         if (node != root) (isRightSon(node) ? node->parent->right : node->parent->left) = ((node->r
 1150              		.loc 1 136 28 is_stmt 1 discriminator 1
 136:src/AVLTree.cpp ****         if (node != root) (isRightSon(node) ? node->parent->right : node->parent->left) = ((node->r
 1151              		.loc 1 136 54 is_stmt 0 discriminator 1
 1152 064c 63880700 		beqz	a5,.L114
 1153              	.L94:
 1154              	.LVL120:
 136:src/AVLTree.cpp ****         if (node != root) (isRightSon(node) ? node->parent->right : node->parent->left) = ((node->r
 1155              		.loc 1 136 82 is_stmt 1 discriminator 5
 136:src/AVLTree.cpp ****         if (node != root) (isRightSon(node) ? node->parent->right : node->parent->left) = ((node->r
 1156              		.loc 1 136 101 is_stmt 0 discriminator 5
 1157 0650 23B80700 		sd	zero,16(a5)
 136:src/AVLTree.cpp ****         if (node != root) (isRightSon(node) ? node->parent->right : node->parent->left) = ((node->r
 1158              		.loc 1 136 39 discriminator 5
 1159 0654 13850700 		mv	a0,a5
 1160 0658 6FF05FFC 		j	.L93
 1161              	.LVL121:
 1162              	.L114:
GAS LISTING /tmp/ccVzmaGV.s 			page 29


 136:src/AVLTree.cpp ****         if (node != root) (isRightSon(node) ? node->parent->right : node->parent->left) = ((node->r
 1163              		.loc 1 136 54 discriminator 3
 1164 065c 83B78400 		ld	a5,8(s1)
 1165 0660 6FF01FFF 		j	.L94
 1166              	.LVL122:
 1167              	.L96:
 137:src/AVLTree.cpp ****     } else { //two children
 1168              		.loc 1 137 99
 1169 0664 03B78400 		ld	a4,8(s1)
 137:src/AVLTree.cpp ****     } else { //two children
 1170              		.loc 1 137 106
 1171 0668 63060700 		beqz	a4,.L115
 1172              	.L99:
 137:src/AVLTree.cpp ****     } else { //two children
 1173              		.loc 1 137 89 discriminator 7
 1174 066c 23B4E700 		sd	a4,8(a5)
 1175 0670 6FF0DFFC 		j	.L88
 1176              	.L115:
 137:src/AVLTree.cpp ****     } else { //two children
 1177              		.loc 1 137 106 discriminator 5
 1178 0674 03B70400 		ld	a4,0(s1)
 1179 0678 6FF05FFF 		j	.L99
 1180              	.L113:
 137:src/AVLTree.cpp ****     } else { //two children
 1181              		.loc 1 137 106 discriminator 9
 1182 067c 03B70400 		ld	a4,0(s1)
 1183 0680 6FF09FFB 		j	.L97
 1184              	.LVL123:
 1185              	.L111:
 1186              	.LBB41:
 143:src/AVLTree.cpp ****             if (node != root) (isRightSon(node) ? node->parent->right : node->parent->left) = swap;
 1187              		.loc 1 143 13 is_stmt 1
 144:src/AVLTree.cpp ****             node->right->parent = nullptr;
 1188              		.loc 1 144 13
 1189 0684 630C9900 		beq	s2,s1,.L101
 144:src/AVLTree.cpp ****             node->right->parent = nullptr;
 1190              		.loc 1 144 31
 1191              	.LVL124:
 1192              	.LBB37:
 1193              	.LBB38:
  64:src/AVLTree.cpp **** }
 1194              		.loc 1 64 5
  64:src/AVLTree.cpp **** }
 1195              		.loc 1 64 19 is_stmt 0
 1196 0688 03B70401 		ld	a4,16(s1)
  64:src/AVLTree.cpp **** }
 1197              		.loc 1 64 26
 1198 068c 63060700 		beqz	a4,.L102
  64:src/AVLTree.cpp **** }
 1199              		.loc 1 64 43
 1200 0690 83368700 		ld	a3,8(a4)
  64:src/AVLTree.cpp **** }
 1201              		.loc 1 64 26
 1202 0694 6388D402 		beq	s1,a3,.L103
 1203              	.L102:
 1204              	.LVL125:
 1205              	.LBE38:
GAS LISTING /tmp/ccVzmaGV.s 			page 30


 1206              	.LBE37:
 144:src/AVLTree.cpp ****             node->right->parent = nullptr;
 1207              		.loc 1 144 93
 1208 0698 2330F700 		sd	a5,0(a4)
 1209              	.L101:
 145:src/AVLTree.cpp ****             node->left->parent = swap;
 1210              		.loc 1 145 13 is_stmt 1
 145:src/AVLTree.cpp ****             node->left->parent = swap;
 1211              		.loc 1 145 19 is_stmt 0
 1212 069c 03B78400 		ld	a4,8(s1)
 145:src/AVLTree.cpp ****             node->left->parent = swap;
 1213              		.loc 1 145 33
 1214 06a0 23380700 		sd	zero,16(a4)
 146:src/AVLTree.cpp **** 
 1215              		.loc 1 146 13 is_stmt 1
 146:src/AVLTree.cpp **** 
 1216              		.loc 1 146 19 is_stmt 0
 1217 06a4 03B70400 		ld	a4,0(s1)
 146:src/AVLTree.cpp **** 
 1218              		.loc 1 146 32
 1219 06a8 2338F700 		sd	a5,16(a4)
 148:src/AVLTree.cpp ****             swap->parent = node->parent;
 1220              		.loc 1 148 13 is_stmt 1
 148:src/AVLTree.cpp ****             swap->parent = node->parent;
 1221              		.loc 1 148 32 is_stmt 0
 1222 06ac 03B70400 		ld	a4,0(s1)
 148:src/AVLTree.cpp ****             swap->parent = node->parent;
 1223              		.loc 1 148 24
 1224 06b0 23B0E700 		sd	a4,0(a5)
 149:src/AVLTree.cpp ****             // no change to swap->right
 1225              		.loc 1 149 13 is_stmt 1
 149:src/AVLTree.cpp ****             // no change to swap->right
 1226              		.loc 1 149 34 is_stmt 0
 1227 06b4 03B70401 		ld	a4,16(s1)
 149:src/AVLTree.cpp ****             // no change to swap->right
 1228              		.loc 1 149 26
 1229 06b8 23B8E700 		sd	a4,16(a5)
 143:src/AVLTree.cpp ****             if (node != root) (isRightSon(node) ? node->parent->right : node->parent->left) = swap;
 1230              		.loc 1 143 24
 1231 06bc 13850700 		mv	a0,a5
 1232              	.LVL126:
 1233 06c0 6FF0DFF7 		j	.L88
 1234              	.LVL127:
 1235              	.L103:
 144:src/AVLTree.cpp ****             node->right->parent = nullptr;
 1236              		.loc 1 144 93
 1237 06c4 2334A700 		sd	a0,8(a4)
 1238 06c8 6FF05FFD 		j	.L101
 1239              	.LVL128:
 1240              	.L106:
 153:src/AVLTree.cpp ****             node->left->parent = swap;
 1241              		.loc 1 153 93
 1242 06cc 2334F700 		sd	a5,8(a4)
 1243 06d0 6FF05FED 		j	.L104
 1244              	.LBE41:
 1245              	.LBE45:
 1246              	.LBE47:
GAS LISTING /tmp/ccVzmaGV.s 			page 31


 1247              		.cfi_endproc
 1248              	.LFE12:
 1250              		.align	2
 1251              		.globl	_ZN7AVLTree6swapLLEPS_S0_S0_
 1253              	_ZN7AVLTree6swapLLEPS_S0_S0_:
 1254              	.LFB15:
 215:src/AVLTree.cpp **** 
 216:src/AVLTree.cpp **** AVLTree *AVLTree::swapLL(AVLTree *toSwap, AVLTree *swap, AVLTree* root) {
 1255              		.loc 1 216 73 is_stmt 1
 1256              		.cfi_startproc
 1257              	.LVL129:
 1258 06d4 130101FF 		addi	sp,sp,-16
 1259              		.cfi_def_cfa_offset 16
 1260 06d8 23348100 		sd	s0,8(sp)
 1261              		.cfi_offset 8, -8
 1262 06dc 13040101 		addi	s0,sp,16
 1263              		.cfi_def_cfa 8, 0
 1264 06e0 93070500 		mv	a5,a0
 1265 06e4 13050600 		mv	a0,a2
 1266              	.LVL130:
 217:src/AVLTree.cpp ****     if (!toSwap || !swap || !root || toSwap == swap)
 1267              		.loc 1 217 5
 1268 06e8 63880702 		beqz	a5,.L117
 1269              		.loc 1 217 17 is_stmt 0 discriminator 1
 1270 06ec 63860502 		beqz	a1,.L117
 1271              		.loc 1 217 26 discriminator 2
 1272 06f0 63040602 		beqz	a2,.L117
 1273              		.loc 1 217 35 discriminator 3
 1274 06f4 6382B702 		beq	a5,a1,.L117
 218:src/AVLTree.cpp ****         return root;
 219:src/AVLTree.cpp **** 
 220:src/AVLTree.cpp ****     if (toSwap == root) {
 1275              		.loc 1 220 5 is_stmt 1
 1276 06f8 6386C702 		beq	a5,a2,.L122
 221:src/AVLTree.cpp ****         swap->next = root->next;
 222:src/AVLTree.cpp ****         swap->prev = nullptr;
 223:src/AVLTree.cpp ****         if (root->next) root->next->prev = swap;
 224:src/AVLTree.cpp ****         return swap;
 225:src/AVLTree.cpp ****     }
 226:src/AVLTree.cpp **** 
 227:src/AVLTree.cpp ****     AVLTree* prevNode = toSwap->prev;
 1277              		.loc 1 227 5
 1278              		.loc 1 227 14 is_stmt 0
 1279 06fc 03B78702 		ld	a4,40(a5)
 1280              	.LVL131:
 228:src/AVLTree.cpp ****     AVLTree* nextNode = toSwap->next;
 1281              		.loc 1 228 5 is_stmt 1
 1282              		.loc 1 228 14 is_stmt 0
 1283 0700 83B70702 		ld	a5,32(a5)
 1284              	.LVL132:
 229:src/AVLTree.cpp ****     prevNode->next = swap;
 1285              		.loc 1 229 5 is_stmt 1
 1286              		.loc 1 229 20 is_stmt 0
 1287 0704 2330B702 		sd	a1,32(a4)
 230:src/AVLTree.cpp ****     swap->prev = prevNode;
 1288              		.loc 1 230 5 is_stmt 1
 1289              		.loc 1 230 16 is_stmt 0
GAS LISTING /tmp/ccVzmaGV.s 			page 32


 1290 0708 23B4E502 		sd	a4,40(a1)
 231:src/AVLTree.cpp ****     if (nextNode) nextNode->prev = swap;
 1291              		.loc 1 231 5 is_stmt 1
 1292 070c 63840700 		beqz	a5,.L120
 1293              		.loc 1 231 19 discriminator 1
 1294              		.loc 1 231 34 is_stmt 0 discriminator 1
 1295 0710 23B4B702 		sd	a1,40(a5)
 1296              	.L120:
 232:src/AVLTree.cpp ****     swap->next = nextNode;
 1297              		.loc 1 232 5 is_stmt 1
 1298              		.loc 1 232 16 is_stmt 0
 1299 0714 23B0F502 		sd	a5,32(a1)
 233:src/AVLTree.cpp **** 
 234:src/AVLTree.cpp ****     return root;
 1300              		.loc 1 234 5 is_stmt 1
 1301              	.LVL133:
 1302              	.L117:
 235:src/AVLTree.cpp **** 
 236:src/AVLTree.cpp **** }
 1303              		.loc 1 236 1 is_stmt 0
 1304 0718 03348100 		ld	s0,8(sp)
 1305              		.cfi_remember_state
 1306              		.cfi_restore 8
 1307              		.cfi_def_cfa 2, 16
 1308 071c 13010101 		addi	sp,sp,16
 1309              		.cfi_def_cfa_offset 0
 1310 0720 67800000 		jr	ra
 1311              	.LVL134:
 1312              	.L122:
 1313              		.cfi_restore_state
 221:src/AVLTree.cpp ****         swap->prev = nullptr;
 1314              		.loc 1 221 9 is_stmt 1
 221:src/AVLTree.cpp ****         swap->prev = nullptr;
 1315              		.loc 1 221 28 is_stmt 0
 1316 0724 83370602 		ld	a5,32(a2)
 1317              	.LVL135:
 221:src/AVLTree.cpp ****         swap->prev = nullptr;
 1318              		.loc 1 221 20
 1319 0728 23B0F502 		sd	a5,32(a1)
 222:src/AVLTree.cpp ****         if (root->next) root->next->prev = swap;
 1320              		.loc 1 222 9 is_stmt 1
 222:src/AVLTree.cpp ****         if (root->next) root->next->prev = swap;
 1321              		.loc 1 222 20 is_stmt 0
 1322 072c 23B40502 		sd	zero,40(a1)
 223:src/AVLTree.cpp ****         return swap;
 1323              		.loc 1 223 9 is_stmt 1
 223:src/AVLTree.cpp ****         return swap;
 1324              		.loc 1 223 19 is_stmt 0
 1325 0730 83370602 		ld	a5,32(a2)
 223:src/AVLTree.cpp ****         return swap;
 1326              		.loc 1 223 9
 1327 0734 63840700 		beqz	a5,.L119
 223:src/AVLTree.cpp ****         return swap;
 1328              		.loc 1 223 25 is_stmt 1 discriminator 1
 223:src/AVLTree.cpp ****         return swap;
 1329              		.loc 1 223 42 is_stmt 0 discriminator 1
 1330 0738 23B4B702 		sd	a1,40(a5)
GAS LISTING /tmp/ccVzmaGV.s 			page 33


 1331              	.L119:
 224:src/AVLTree.cpp ****     }
 1332              		.loc 1 224 9 is_stmt 1
 224:src/AVLTree.cpp ****     }
 1333              		.loc 1 224 16 is_stmt 0
 1334 073c 13850500 		mv	a0,a1
 1335              	.LVL136:
 1336 0740 6FF09FFD 		j	.L117
 1337              		.cfi_endproc
 1338              	.LFE15:
 1340              		.align	2
 1341              		.globl	_ZN7AVLTree8removeLLEPS_S0_
 1343              	_ZN7AVLTree8removeLLEPS_S0_:
 1344              	.LFB16:
 237:src/AVLTree.cpp **** 
 238:src/AVLTree.cpp **** AVLTree *AVLTree::removeLL(AVLTree *toRem, AVLTree *root) {
 1345              		.loc 1 238 59 is_stmt 1
 1346              		.cfi_startproc
 1347              	.LVL137:
 1348 0744 130101FF 		addi	sp,sp,-16
 1349              		.cfi_def_cfa_offset 16
 1350 0748 23348100 		sd	s0,8(sp)
 1351              		.cfi_offset 8, -8
 1352 074c 13040101 		addi	s0,sp,16
 1353              		.cfi_def_cfa 8, 0
 1354 0750 93070500 		mv	a5,a0
 239:src/AVLTree.cpp ****     if (!root) return toRem;
 1355              		.loc 1 239 5
 1356 0754 63820502 		beqz	a1,.L124
 1357 0758 13850500 		mv	a0,a1
 1358              	.LVL138:
 240:src/AVLTree.cpp ****     if (!toRem) return root;
 1359              		.loc 1 240 5
 1360 075c 638E0700 		beqz	a5,.L124
 241:src/AVLTree.cpp ****     if (root == toRem) {
 1361              		.loc 1 241 5
 1362 0760 6382F502 		beq	a1,a5,.L129
 242:src/AVLTree.cpp ****         root = root->next;
 243:src/AVLTree.cpp ****         if (root) root->prev = nullptr;
 244:src/AVLTree.cpp ****         return root;
 245:src/AVLTree.cpp ****     }
 246:src/AVLTree.cpp ****     AVLTree* prevNode = toRem->prev;
 1363              		.loc 1 246 5
 1364              		.loc 1 246 14 is_stmt 0
 1365 0764 03B78702 		ld	a4,40(a5)
 1366              	.LVL139:
 247:src/AVLTree.cpp ****     AVLTree* nextNode = toRem->next;
 1367              		.loc 1 247 5 is_stmt 1
 1368              		.loc 1 247 14 is_stmt 0
 1369 0768 83B70702 		ld	a5,32(a5)
 1370              	.LVL140:
 248:src/AVLTree.cpp ****     prevNode->next = nextNode;
 1371              		.loc 1 248 5 is_stmt 1
 1372              		.loc 1 248 20 is_stmt 0
 1373 076c 2330F702 		sd	a5,32(a4)
 249:src/AVLTree.cpp ****     if (nextNode)
 1374              		.loc 1 249 5 is_stmt 1
GAS LISTING /tmp/ccVzmaGV.s 			page 34


 1375 0770 63840700 		beqz	a5,.L124
 250:src/AVLTree.cpp ****         nextNode->prev = prevNode;
 1376              		.loc 1 250 9
 1377              		.loc 1 250 24 is_stmt 0
 1378 0774 23B4E702 		sd	a4,40(a5)
 1379              	.LVL141:
 1380              	.L124:
 251:src/AVLTree.cpp **** 
 252:src/AVLTree.cpp ****     return root;
 253:src/AVLTree.cpp **** }
 1381              		.loc 1 253 1
 1382 0778 03348100 		ld	s0,8(sp)
 1383              		.cfi_remember_state
 1384              		.cfi_restore 8
 1385              		.cfi_def_cfa 2, 16
 1386 077c 13010101 		addi	sp,sp,16
 1387              		.cfi_def_cfa_offset 0
 1388 0780 67800000 		jr	ra
 1389              	.LVL142:
 1390              	.L129:
 1391              		.cfi_restore_state
 242:src/AVLTree.cpp ****         if (root) root->prev = nullptr;
 1392              		.loc 1 242 9 is_stmt 1
 242:src/AVLTree.cpp ****         if (root) root->prev = nullptr;
 1393              		.loc 1 242 14 is_stmt 0
 1394 0784 03B50502 		ld	a0,32(a1)
 1395              	.LVL143:
 243:src/AVLTree.cpp ****         return root;
 1396              		.loc 1 243 9 is_stmt 1
 1397 0788 E30805FE 		beqz	a0,.L124
 243:src/AVLTree.cpp ****         return root;
 1398              		.loc 1 243 19 discriminator 1
 243:src/AVLTree.cpp ****         return root;
 1399              		.loc 1 243 30 is_stmt 0 discriminator 1
 1400 078c 23340502 		sd	zero,40(a0)
 244:src/AVLTree.cpp ****     }
 1401              		.loc 1 244 9 is_stmt 1 discriminator 1
 244:src/AVLTree.cpp ****     }
 1402              		.loc 1 244 16 is_stmt 0 discriminator 1
 1403 0790 6FF09FFE 		j	.L124
 1404              		.cfi_endproc
 1405              	.LFE16:
 1407              		.align	2
 1408              		.globl	_ZN7AVLTree15findPredecessorEPS_
 1410              	_ZN7AVLTree15findPredecessorEPS_:
 1411              	.LFB17:
 254:src/AVLTree.cpp **** 
 255:src/AVLTree.cpp **** AVLTree *AVLTree::findPredecessor(AVLTree *node) {
 1412              		.loc 1 255 50 is_stmt 1
 1413              		.cfi_startproc
 1414              	.LVL144:
 1415 0794 130101FF 		addi	sp,sp,-16
 1416              		.cfi_def_cfa_offset 16
 1417 0798 23348100 		sd	s0,8(sp)
 1418              		.cfi_offset 8, -8
 1419 079c 13040101 		addi	s0,sp,16
 1420              		.cfi_def_cfa 8, 0
GAS LISTING /tmp/ccVzmaGV.s 			page 35


 256:src/AVLTree.cpp ****     if (!node || !node->left) return nullptr;
 1421              		.loc 1 256 5
 1422 07a0 630C0500 		beqz	a0,.L130
 1423              		.loc 1 256 25 is_stmt 0 discriminator 2
 1424 07a4 83370500 		ld	a5,0(a0)
 1425              		.loc 1 256 15 discriminator 2
 1426 07a8 638E0700 		beqz	a5,.L134
 1427              	.L132:
 1428              	.LVL145:
 257:src/AVLTree.cpp ****     node = node->left;
 258:src/AVLTree.cpp ****     while(node->right)
 1429              		.loc 1 258 5 is_stmt 1
 1430              		.loc 1 258 17
 1431 07ac 13850700 		mv	a0,a5
 1432 07b0 83B78700 		ld	a5,8(a5)
 1433              	.LVL146:
 1434 07b4 E39C07FE 		bnez	a5,.L132
 1435              	.LVL147:
 1436              	.L130:
 259:src/AVLTree.cpp ****         node = node->right;
 260:src/AVLTree.cpp ****     return node;
 261:src/AVLTree.cpp **** }
 1437              		.loc 1 261 1 is_stmt 0
 1438 07b8 03348100 		ld	s0,8(sp)
 1439              		.cfi_remember_state
 1440              		.cfi_restore 8
 1441              		.cfi_def_cfa 2, 16
 1442 07bc 13010101 		addi	sp,sp,16
 1443              		.cfi_def_cfa_offset 0
 1444 07c0 67800000 		jr	ra
 1445              	.LVL148:
 1446              	.L134:
 1447              		.cfi_restore_state
 256:src/AVLTree.cpp ****     node = node->left;
 1448              		.loc 1 256 38
 1449 07c4 13850700 		mv	a0,a5
 1450              	.LVL149:
 1451 07c8 6FF01FFF 		j	.L130
 1452              		.cfi_endproc
 1453              	.LFE17:
 1455              		.align	2
 1456              		.globl	_ZN7AVLTree8insertLLEPS_S0_
 1458              	_ZN7AVLTree8insertLLEPS_S0_:
 1459              	.LFB18:
 262:src/AVLTree.cpp **** 
 263:src/AVLTree.cpp **** AVLTree *AVLTree::insertLL(AVLTree *toInsert, AVLTree *root) {
 1460              		.loc 1 263 62 is_stmt 1
 1461              		.cfi_startproc
 1462              	.LVL150:
 1463 07cc 130101FF 		addi	sp,sp,-16
 1464              		.cfi_def_cfa_offset 16
 1465 07d0 23348100 		sd	s0,8(sp)
 1466              		.cfi_offset 8, -8
 1467 07d4 13040101 		addi	s0,sp,16
 1468              		.cfi_def_cfa 8, 0
 264:src/AVLTree.cpp ****     if (!toInsert) return root;
 1469              		.loc 1 264 5
GAS LISTING /tmp/ccVzmaGV.s 			page 36


 1470 07d8 630C0504 		beqz	a0,.L143
 265:src/AVLTree.cpp ****     if (!root || toInsert < root) {
 1471              		.loc 1 265 5
 1472 07dc 63800504 		beqz	a1,.L138
 1473              		.loc 1 265 15 is_stmt 0 discriminator 1
 1474 07e0 636EB502 		bltu	a0,a1,.L138
 266:src/AVLTree.cpp ****         toInsert->next = root;
 267:src/AVLTree.cpp ****         toInsert->prev = nullptr;
 268:src/AVLTree.cpp ****         if (root) root->prev = toInsert;
 269:src/AVLTree.cpp ****         return toInsert;
 270:src/AVLTree.cpp ****     }
 271:src/AVLTree.cpp **** 
 272:src/AVLTree.cpp ****     AVLTree* cur = root;
 1475              		.loc 1 272 14
 1476 07e4 93870500 		mv	a5,a1
 1477              	.L139:
 1478              	.LVL151:
 273:src/AVLTree.cpp ****     for (; cur->next && (cur->next < toInsert); cur = cur->next);
 1479              		.loc 1 273 5 is_stmt 1 discriminator 3
 1480              		.loc 1 273 22 discriminator 3
 1481 07e8 13870700 		mv	a4,a5
 1482              		.loc 1 273 17 is_stmt 0 discriminator 3
 1483 07ec 83B70702 		ld	a5,32(a5)
 1484              	.LVL152:
 1485              		.loc 1 273 22 discriminator 3
 1486 07f0 63840700 		beqz	a5,.L141
 1487              		.loc 1 273 22 discriminator 1
 1488 07f4 E3EAA7FE 		bltu	a5,a0,.L139
 1489              	.L141:
 274:src/AVLTree.cpp **** 
 275:src/AVLTree.cpp ****     toInsert->next = cur->next;
 1490              		.loc 1 275 5 is_stmt 1
 1491              		.loc 1 275 20 is_stmt 0
 1492 07f8 2330F502 		sd	a5,32(a0)
 276:src/AVLTree.cpp ****     if(cur->next) cur->next->prev = toInsert;
 1493              		.loc 1 276 5 is_stmt 1
 1494 07fc 63840700 		beqz	a5,.L142
 1495              		.loc 1 276 19 discriminator 1
 1496              		.loc 1 276 35 is_stmt 0 discriminator 1
 1497 0800 23B4A702 		sd	a0,40(a5)
 1498              	.L142:
 277:src/AVLTree.cpp ****     cur->next = toInsert;
 1499              		.loc 1 277 5 is_stmt 1
 1500              		.loc 1 277 15 is_stmt 0
 1501 0804 2330A702 		sd	a0,32(a4)
 278:src/AVLTree.cpp ****     toInsert->prev = cur;
 1502              		.loc 1 278 5 is_stmt 1
 1503              		.loc 1 278 20 is_stmt 0
 1504 0808 2334E502 		sd	a4,40(a0)
 279:src/AVLTree.cpp **** 
 280:src/AVLTree.cpp ****     return root;
 1505              		.loc 1 280 5 is_stmt 1
 1506              		.loc 1 280 12 is_stmt 0
 1507 080c 13850500 		mv	a0,a1
 1508              	.LVL153:
 1509              	.L136:
 281:src/AVLTree.cpp **** }
GAS LISTING /tmp/ccVzmaGV.s 			page 37


 1510              		.loc 1 281 1
 1511 0810 03348100 		ld	s0,8(sp)
 1512              		.cfi_remember_state
 1513              		.cfi_restore 8
 1514              		.cfi_def_cfa 2, 16
 1515 0814 13010101 		addi	sp,sp,16
 1516              		.cfi_def_cfa_offset 0
 1517 0818 67800000 		jr	ra
 1518              	.LVL154:
 1519              	.L138:
 1520              		.cfi_restore_state
 266:src/AVLTree.cpp ****         toInsert->prev = nullptr;
 1521              		.loc 1 266 9 is_stmt 1
 266:src/AVLTree.cpp ****         toInsert->prev = nullptr;
 1522              		.loc 1 266 24 is_stmt 0
 1523 081c 2330B502 		sd	a1,32(a0)
 267:src/AVLTree.cpp ****         if (root) root->prev = toInsert;
 1524              		.loc 1 267 9 is_stmt 1
 267:src/AVLTree.cpp ****         if (root) root->prev = toInsert;
 1525              		.loc 1 267 24 is_stmt 0
 1526 0820 23340502 		sd	zero,40(a0)
 268:src/AVLTree.cpp ****         return toInsert;
 1527              		.loc 1 268 9 is_stmt 1
 1528 0824 E38605FE 		beqz	a1,.L136
 268:src/AVLTree.cpp ****         return toInsert;
 1529              		.loc 1 268 19 discriminator 1
 268:src/AVLTree.cpp ****         return toInsert;
 1530              		.loc 1 268 30 is_stmt 0 discriminator 1
 1531 0828 23B4A502 		sd	a0,40(a1)
 269:src/AVLTree.cpp ****     }
 1532              		.loc 1 269 9 is_stmt 1 discriminator 1
 269:src/AVLTree.cpp ****     }
 1533              		.loc 1 269 16 is_stmt 0 discriminator 1
 1534 082c 6FF05FFE 		j	.L136
 1535              	.L143:
 264:src/AVLTree.cpp ****     if (!root || toInsert < root) {
 1536              		.loc 1 264 27
 1537 0830 13850500 		mv	a0,a1
 1538              	.LVL155:
 1539 0834 6FF0DFFD 		j	.L136
 1540              		.cfi_endproc
 1541              	.LFE18:
 1543              	.Letext0:
 1544              		.file 2 "src/../h/../lib/hw.h"
 1545              		.file 3 "src/../h/AVLTree.h"
GAS LISTING /tmp/ccVzmaGV.s 			page 38

