GAS LISTING /tmp/cc0rjyQZ.s 			page 1


   1              		.file	"interruptHandlers.cpp"
   2              		.option pic
   3              		.option norelax
   4              		.text
   5              	.Ltext0:
   6              		.align	2
   7              		.globl	_ZN17interruptHandlers20handleSupervisorTrapEv
   9              	_ZN17interruptHandlers20handleSupervisorTrapEv:
  10              	.LFB25:
  11              		.file 1 "src/interruptHandlers.cpp"
   1:src/interruptHandlers.cpp **** //
   2:src/interruptHandlers.cpp **** // Created by os on 5/4/24.
   3:src/interruptHandlers.cpp **** //
   4:src/interruptHandlers.cpp **** 
   5:src/interruptHandlers.cpp **** #include "../h/MemoryAllocator.h"
   6:src/interruptHandlers.cpp **** #include "../h/RiscV.h"
   7:src/interruptHandlers.cpp **** 
   8:src/interruptHandlers.cpp **** namespace interruptHandlers {
   9:src/interruptHandlers.cpp **** 
  10:src/interruptHandlers.cpp ****     void handleSupervisorTrap() {
  12              		.loc 1 10 33
  13              		.cfi_startproc
  14 0000 130101FC 		addi	sp,sp,-64
  15              		.cfi_def_cfa_offset 64
  16 0004 233C1102 		sd	ra,56(sp)
  17 0008 23388102 		sd	s0,48(sp)
  18 000c 23349102 		sd	s1,40(sp)
  19 0010 23302103 		sd	s2,32(sp)
  20              		.cfi_offset 1, -8
  21              		.cfi_offset 8, -16
  22              		.cfi_offset 9, -24
  23              		.cfi_offset 18, -32
  24 0014 13040104 		addi	s0,sp,64
  25              		.cfi_def_cfa 8, 0
  11:src/interruptHandlers.cpp ****         uint64 scause = RiscV::scauseR();
  26              		.loc 1 11 9
  27              	.LBB18:
  28              	.LBB19:
  29              		.file 2 "src/../h/RiscV.h"
   1:src/../h/RiscV.h **** //
   2:src/../h/RiscV.h **** // Created by os on 5/4/24.
   3:src/../h/RiscV.h **** //
   4:src/../h/RiscV.h **** 
   5:src/../h/RiscV.h **** #ifndef PROJEKAT_RISCV_H
   6:src/../h/RiscV.h **** #define PROJEKAT_RISCV_H
   7:src/../h/RiscV.h **** 
   8:src/../h/RiscV.h **** #include "../lib/hw.h"
   9:src/../h/RiscV.h **** 
  10:src/../h/RiscV.h **** class RiscV {
  11:src/../h/RiscV.h **** public:
  12:src/../h/RiscV.h ****     static void popSppSpie();
  13:src/../h/RiscV.h ****     static void setStvecTable(){}
  14:src/../h/RiscV.h **** 
  15:src/../h/RiscV.h ****     enum CodeOps{
  16:src/../h/RiscV.h ****         MEM_ALOC = 0x01,
  17:src/../h/RiscV.h ****         MEM_FREE = 0x02
  18:src/../h/RiscV.h ****     };
GAS LISTING /tmp/cc0rjyQZ.s 			page 2


  19:src/../h/RiscV.h **** 
  20:src/../h/RiscV.h ****     enum BitMaskSStatus {
  21:src/../h/RiscV.h ****         SSTATUS_SIE = 1 << 1,
  22:src/../h/RiscV.h ****         SSTATUS_SPIE = 1 << 5,
  23:src/../h/RiscV.h ****         SSTATUS_SPP = 1 << 8
  24:src/../h/RiscV.h ****     };
  25:src/../h/RiscV.h **** 
  26:src/../h/RiscV.h ****     enum BitMaskSip {
  27:src/../h/RiscV.h ****         SIP_SSIP = 1 << 1,
  28:src/../h/RiscV.h ****         SIP_SEIP = 1 << 9
  29:src/../h/RiscV.h ****     };
  30:src/../h/RiscV.h **** 
  31:src/../h/RiscV.h ****     static uint64 scauseR();
  32:src/../h/RiscV.h ****     static void scauseW(uint64 scause);
  33:src/../h/RiscV.h **** 
  34:src/../h/RiscV.h ****     static uint64 sepcR();
  35:src/../h/RiscV.h ****     static void sepcW(uint64);
  36:src/../h/RiscV.h **** 
  37:src/../h/RiscV.h ****     static uint64 stvecR();
  38:src/../h/RiscV.h ****     static void stvecW(uint64 stvec);
  39:src/../h/RiscV.h **** 
  40:src/../h/RiscV.h ****     static uint64 stvalR();
  41:src/../h/RiscV.h ****     static void stvalW(uint64 stval);
  42:src/../h/RiscV.h **** 
  43:src/../h/RiscV.h ****     static uint64 a0R();
  44:src/../h/RiscV.h ****     static void a0W(uint64 val);
  45:src/../h/RiscV.h ****     static uint64 a1R();
  46:src/../h/RiscV.h ****     static void a1W(uint64 val);
  47:src/../h/RiscV.h **** 
  48:src/../h/RiscV.h **** 
  49:src/../h/RiscV.h **** 
  50:src/../h/RiscV.h ****     static uint64 sstatusR();
  51:src/../h/RiscV.h ****     static void sstatusW(uint64 sstatus);
  52:src/../h/RiscV.h **** 
  53:src/../h/RiscV.h ****     static void ms_sstatus(BitMaskSStatus mask);
  54:src/../h/RiscV.h ****     static void mc_sstatus(BitMaskSStatus mask);
  55:src/../h/RiscV.h **** 
  56:src/../h/RiscV.h **** 
  57:src/../h/RiscV.h ****     static uint64 sipR();
  58:src/../h/RiscV.h ****     static void sipW(uint64);
  59:src/../h/RiscV.h **** 
  60:src/../h/RiscV.h ****     static void ms_sip(BitMaskSip mask);
  61:src/../h/RiscV.h ****     static void mc_sip(BitMaskSip mask);
  62:src/../h/RiscV.h **** };
  63:src/../h/RiscV.h **** 
  64:src/../h/RiscV.h **** inline uint64 RiscV::scauseR() {
  65:src/../h/RiscV.h ****     uint64 volatile scause;
  30              		.loc 2 65 5
  66:src/../h/RiscV.h ****     __asm__ volatile ("csrr %[scause], scause" : [scause] "=r"(scause));
  31              		.loc 2 66 5
  32              		.loc 2 66 72 is_stmt 0
  33              	#APP
  34              	# 66 "src/../h/RiscV.h" 1
  67              	    return scause;
  35              		csrr a5, scause
  36              	# 0 "" 2
  37              	#NO_APP
GAS LISTING /tmp/cc0rjyQZ.s 			page 3


  38 001c 2330F4FC 		sd	a5,-64(s0)
  39              		.loc 2 67 5 is_stmt 1
  40              		.loc 2 67 12 is_stmt 0
  41 0020 833704FC 		ld	a5,-64(s0)
  42              	.LVL0:
  43              	.LBE19:
  44              	.LBE18:
  12:src/interruptHandlers.cpp ****         // not ecall interruption
  13:src/interruptHandlers.cpp ****         if (scause != (uint64) (1 << 3) && scause != (uint64) (1 << 3 | 0x01)) {
  45              		.loc 1 13 9 is_stmt 1
  46              		.loc 1 13 41 is_stmt 0
  47 0024 938787FF 		addi	a5,a5,-8
  48              	.LVL1:
  49              		.loc 1 13 9
  50 0028 13071000 		li	a4,1
  51 002c 6360F704 		bgtu	a5,a4,.L1
  14:src/interruptHandlers.cpp ****             // unexpreted trap cause
  15:src/interruptHandlers.cpp **** 
  16:src/interruptHandlers.cpp ****             /*printString("ERROR! SCAUSE:");
  17:src/interruptHandlers.cpp ****             printInt(scause);
  18:src/interruptHandlers.cpp ****             printString("\n");
  19:src/interruptHandlers.cpp ****              */
  20:src/interruptHandlers.cpp ****             return;
  21:src/interruptHandlers.cpp ****         }
  22:src/interruptHandlers.cpp **** 
  23:src/interruptHandlers.cpp ****         // interrupt from UserMode(0x08) or KernelMode(0x09)
  24:src/interruptHandlers.cpp ****         uint64 sepc = RiscV::sepcR() + 4;
  52              		.loc 1 24 9 is_stmt 1
  53              	.LBB20:
  54              	.LBB21:
  68:src/../h/RiscV.h **** }
  69:src/../h/RiscV.h **** 
  70:src/../h/RiscV.h **** inline void RiscV::scauseW(uint64 scause) {
  71:src/../h/RiscV.h ****     __asm__ volatile ("csrw scause, %[scause]" : : [scause] "r"(scause));
  72:src/../h/RiscV.h **** }
  73:src/../h/RiscV.h **** 
  74:src/../h/RiscV.h **** inline uint64 RiscV::sepcR() {
  75:src/../h/RiscV.h ****     uint64 volatile sepc;
  55              		.loc 2 75 5
  76:src/../h/RiscV.h ****     __asm__ volatile ("csrr %[sepc], sepc" : [sepc] "=r"(sepc));
  56              		.loc 2 76 5
  57              		.loc 2 76 64 is_stmt 0
  58              	#APP
  59              	# 76 "src/../h/RiscV.h" 1
  77              	    return sepc;
  60              		csrr a5, sepc
  61              	# 0 "" 2
  62              	.LVL2:
  63              	#NO_APP
  64 0034 233CF4FC 		sd	a5,-40(s0)
  65              		.loc 2 77 5 is_stmt 1
  66              		.loc 2 77 12 is_stmt 0
  67 0038 833484FD 		ld	s1,-40(s0)
  68              	.LBE21:
  69              	.LBE20:
  70              		.loc 1 24 40
  71 003c 93844400 		addi	s1,s1,4
GAS LISTING /tmp/cc0rjyQZ.s 			page 4


  72              	.LVL3:
  25:src/interruptHandlers.cpp ****         uint64 sstatus = RiscV::sstatusR();
  73              		.loc 1 25 9 is_stmt 1
  74              	.LBB22:
  75              	.LBB23:
  78:src/../h/RiscV.h **** }
  79:src/../h/RiscV.h **** 
  80:src/../h/RiscV.h **** inline void RiscV::sepcW(uint64 sepc) {
  81:src/../h/RiscV.h ****     __asm__ volatile ("csrw sepc, %[sepc]" : : [sepc] "r"(sepc));
  82:src/../h/RiscV.h **** }
  83:src/../h/RiscV.h **** 
  84:src/../h/RiscV.h **** inline uint64 RiscV::stvecR() {
  85:src/../h/RiscV.h ****     uint64 volatile stvec;
  86:src/../h/RiscV.h ****     __asm__ volatile ("csrr %[stvec], stvec" : [stvec] "=r"(stvec));
  87:src/../h/RiscV.h ****     return stvec;
  88:src/../h/RiscV.h **** }
  89:src/../h/RiscV.h **** 
  90:src/../h/RiscV.h **** inline void RiscV::stvecW(uint64 stvec) {
  91:src/../h/RiscV.h ****     __asm__ volatile ("csrw stvec, %[stvec]" : : [stvec] "r"(stvec));
  92:src/../h/RiscV.h **** }
  93:src/../h/RiscV.h **** 
  94:src/../h/RiscV.h **** inline uint64 RiscV::stvalR() {
  95:src/../h/RiscV.h ****     uint64 volatile stval;
  96:src/../h/RiscV.h ****     __asm__ volatile ("csrr %[stval], stval" : [stval] "=r"(stval));
  97:src/../h/RiscV.h ****     return stval;
  98:src/../h/RiscV.h **** }
  99:src/../h/RiscV.h **** 
 100:src/../h/RiscV.h **** inline void RiscV::stvalW(uint64 stval) {
 101:src/../h/RiscV.h ****     __asm__ volatile ("csrw stval, %[stval]" : : [stval] "r"(stval));
 102:src/../h/RiscV.h **** }
 103:src/../h/RiscV.h **** 
 104:src/../h/RiscV.h **** inline uint64 RiscV::a0R() {
 105:src/../h/RiscV.h ****     uint64 volatile a0;
 106:src/../h/RiscV.h ****     __asm__ volatile ("mv %0, a0" : "=r"(a0));
 107:src/../h/RiscV.h ****     return a0;
 108:src/../h/RiscV.h **** }
 109:src/../h/RiscV.h **** 
 110:src/../h/RiscV.h **** inline void RiscV::a0W(uint64 val) {
 111:src/../h/RiscV.h ****     __asm__ volatile ("mv a0, %0" : : "r"(val));
 112:src/../h/RiscV.h **** }
 113:src/../h/RiscV.h **** 
 114:src/../h/RiscV.h **** inline uint64 RiscV::a1R() {
 115:src/../h/RiscV.h ****     uint64 volatile a1;
 116:src/../h/RiscV.h ****     __asm__ volatile ("mv %0, a1" : "=r"(a1));
 117:src/../h/RiscV.h ****     return a1;
 118:src/../h/RiscV.h **** }
 119:src/../h/RiscV.h **** 
 120:src/../h/RiscV.h **** inline void RiscV::a1W(uint64 val) {
 121:src/../h/RiscV.h ****     __asm__ volatile ("mv a1, %0" : : "r"(val));
 122:src/../h/RiscV.h **** }
 123:src/../h/RiscV.h **** 
 124:src/../h/RiscV.h **** inline uint64 RiscV::sstatusR() {
 125:src/../h/RiscV.h ****     uint64 volatile sstatus;
  76              		.loc 2 125 5
 126:src/../h/RiscV.h ****     __asm__ volatile ("csrr %[sstatus], sstatus" : [sstatus] "=r"(sstatus));
  77              		.loc 2 126 5
  78              		.loc 2 126 76 is_stmt 0
GAS LISTING /tmp/cc0rjyQZ.s 			page 5


  79              	#APP
  80              	# 126 "src/../h/RiscV.h" 1
 127              	    return sstatus;
  81              		csrr a5, sstatus
  82              	# 0 "" 2
  83              	#NO_APP
  84 0044 2338F4FC 		sd	a5,-48(s0)
  85              		.loc 2 127 5 is_stmt 1
  86              		.loc 2 127 12 is_stmt 0
  87 0048 033904FD 		ld	s2,-48(s0)
  88              	.LVL4:
  89              	.LBE23:
  90              	.LBE22:
  26:src/interruptHandlers.cpp ****         uint64 codeOp = RiscV::a0R();
  91              		.loc 1 26 9 is_stmt 1
  92              	.LBB24:
  93              	.LBB25:
 105:src/../h/RiscV.h ****     __asm__ volatile ("mv %0, a0" : "=r"(a0));
  94              		.loc 2 105 5
 106:src/../h/RiscV.h ****     return a0;
  95              		.loc 2 106 5
 106:src/../h/RiscV.h ****     return a0;
  96              		.loc 2 106 46 is_stmt 0
  97              	#APP
  98              	# 106 "src/../h/RiscV.h" 1
  99              		mv a5, a0
 100              	# 0 "" 2
 101              	#NO_APP
 102 0050 2334F4FC 		sd	a5,-56(s0)
 107:src/../h/RiscV.h **** }
 103              		.loc 2 107 5 is_stmt 1
 107:src/../h/RiscV.h **** }
 104              		.loc 2 107 12 is_stmt 0
 105 0054 833784FC 		ld	a5,-56(s0)
 106              	.LVL5:
 107              	.LBE25:
 108              	.LBE24:
  27:src/interruptHandlers.cpp ****         uint64 retVal;
 109              		.loc 1 27 9 is_stmt 1
  28:src/interruptHandlers.cpp **** 
  29:src/interruptHandlers.cpp ****         switch (codeOp) {
 110              		.loc 1 29 9
 111              	.LBB26:
 112 0058 6386E702 		beq	a5,a4,.L3
 113 005c 13072000 		li	a4,2
 114 0060 638EE702 		beq	a5,a4,.L4
 115              	.LVL6:
 116              	.L5:
 117              	.LBE26:
  30:src/interruptHandlers.cpp ****             case (uint64) RiscV::CodeOps::MEM_ALOC:
  31:src/interruptHandlers.cpp ****                 size_t size;
  32:src/interruptHandlers.cpp ****                 __asm__ volatile ("mv %0, a1" : "=r" (size));
  33:src/interruptHandlers.cpp ****                 retVal = (uint64) MemoryAllocator::mem_alloc(size);
  34:src/interruptHandlers.cpp ****                 __asm__ volatile ("mv t0, %0" : : "r"(retVal));
  35:src/interruptHandlers.cpp ****                 __asm__ volatile ("sd t0, 80(x8)" : : "r"(retVal));
  36:src/interruptHandlers.cpp ****                 break;
  37:src/interruptHandlers.cpp ****             case (uint64) RiscV::CodeOps::MEM_FREE:
GAS LISTING /tmp/cc0rjyQZ.s 			page 6


  38:src/interruptHandlers.cpp ****                 void *ptr;
  39:src/interruptHandlers.cpp ****                 __asm__ volatile ("mv %0, a1" : "=r"(ptr));
  40:src/interruptHandlers.cpp ****                 retVal = MemoryAllocator::mem_free(ptr);
  41:src/interruptHandlers.cpp ****                 __asm__ volatile ("mv t0, %0" : : "r"(retVal));
  42:src/interruptHandlers.cpp ****                 __asm__ volatile ("sd t0, 80(x8)" : : "r"(retVal));
  43:src/interruptHandlers.cpp ****                 break;
  44:src/interruptHandlers.cpp ****             default:
  45:src/interruptHandlers.cpp ****                 break;
  46:src/interruptHandlers.cpp ****         }
  47:src/interruptHandlers.cpp **** 
  48:src/interruptHandlers.cpp ****         RiscV::sstatusW(sstatus);
 118              		.loc 1 48 9
 119              	.LBB28:
 120              	.LBB29:
 128:src/../h/RiscV.h **** }
 129:src/../h/RiscV.h **** 
 130:src/../h/RiscV.h **** inline void RiscV::sstatusW(uint64 sstatus) {
 131:src/../h/RiscV.h ****     __asm__ volatile ("csrw sstatus, %[sstatus]" : : [sstatus] "r"(sstatus));
 121              		.loc 2 131 5
 122              		.loc 2 131 77 is_stmt 0
 123              	#APP
 124              	# 131 "src/../h/RiscV.h" 1
 132              	}
 125              		csrw sstatus, s2
 126              	# 0 "" 2
 127              	.LVL7:
 128              	#NO_APP
 129              	.LBE29:
 130              	.LBE28:
  49:src/interruptHandlers.cpp ****         RiscV::sepcW(sepc);
 131              		.loc 1 49 9 is_stmt 1
 132              	.LBB30:
 133              	.LBB31:
  81:src/../h/RiscV.h **** }
 134              		.loc 2 81 5
  81:src/../h/RiscV.h **** }
 135              		.loc 2 81 65 is_stmt 0
 136              	#APP
 137              	# 81 "src/../h/RiscV.h" 1
 138              		csrw sepc, s1
 139              	# 0 "" 2
 140              	.LVL8:
 141              	#NO_APP
 142              	.L1:
 143              	.LBE31:
 144              	.LBE30:
  50:src/interruptHandlers.cpp **** 
  51:src/interruptHandlers.cpp ****     }
 145              		.loc 1 51 5
 146 006c 83308103 		ld	ra,56(sp)
 147              		.cfi_remember_state
 148              		.cfi_restore 1
 149 0070 03340103 		ld	s0,48(sp)
 150              		.cfi_restore 8
 151              		.cfi_def_cfa 2, 64
 152 0074 83348102 		ld	s1,40(sp)
 153              		.cfi_restore 9
GAS LISTING /tmp/cc0rjyQZ.s 			page 7


 154 0078 03390102 		ld	s2,32(sp)
 155              		.cfi_restore 18
 156 007c 13010104 		addi	sp,sp,64
 157              		.cfi_def_cfa_offset 0
 158 0080 67800000 		jr	ra
 159              	.LVL9:
 160              	.L3:
 161              		.cfi_restore_state
 162              	.LBB32:
 163              	.LBB27:
  30:src/interruptHandlers.cpp ****                 size_t size;
 164              		.loc 1 30 13 is_stmt 1
  31:src/interruptHandlers.cpp ****                 __asm__ volatile ("mv %0, a1" : "=r" (size));
 165              		.loc 1 31 17
  32:src/interruptHandlers.cpp ****                 retVal = (uint64) MemoryAllocator::mem_alloc(size);
 166              		.loc 1 32 17
  32:src/interruptHandlers.cpp ****                 retVal = (uint64) MemoryAllocator::mem_alloc(size);
 167              		.loc 1 32 61 is_stmt 0
 168              	#APP
 169              	# 32 "src/interruptHandlers.cpp" 1
 170              		mv a0, a1
 171              	# 0 "" 2
 172              	.LVL10:
  33:src/interruptHandlers.cpp ****                 __asm__ volatile ("mv t0, %0" : : "r"(retVal));
 173              		.loc 1 33 17 is_stmt 1
  33:src/interruptHandlers.cpp ****                 __asm__ volatile ("mv t0, %0" : : "r"(retVal));
 174              		.loc 1 33 61 is_stmt 0
 175              	#NO_APP
 176 0088 97000000 		call	_ZN15MemoryAllocator9mem_allocEm@plt
 176      E7800000 
 177              	.LVL11:
  34:src/interruptHandlers.cpp ****                 __asm__ volatile ("sd t0, 80(x8)" : : "r"(retVal));
 178              		.loc 1 34 17 is_stmt 1
  34:src/interruptHandlers.cpp ****                 __asm__ volatile ("sd t0, 80(x8)" : : "r"(retVal));
 179              		.loc 1 34 63 is_stmt 0
 180              	#APP
 181              	# 34 "src/interruptHandlers.cpp" 1
  35:src/interruptHandlers.cpp ****                 break;
 182              		mv t0, a0
 183              	# 0 "" 2
 184              		.loc 1 35 17 is_stmt 1
  35:src/interruptHandlers.cpp ****                 break;
 185              		.loc 1 35 67 is_stmt 0
 186              	# 35 "src/interruptHandlers.cpp" 1
  36:src/interruptHandlers.cpp ****             case (uint64) RiscV::CodeOps::MEM_FREE:
 187              		sd t0, 80(x8)
 188              	# 0 "" 2
 189              		.loc 1 36 17 is_stmt 1
 190              	#NO_APP
 191 0098 6FF0DFFC 		j	.L5
 192              	.LVL12:
 193              	.L4:
  37:src/interruptHandlers.cpp ****                 void *ptr;
 194              		.loc 1 37 13
  38:src/interruptHandlers.cpp ****                 __asm__ volatile ("mv %0, a1" : "=r"(ptr));
 195              		.loc 1 38 17
  39:src/interruptHandlers.cpp ****                 retVal = MemoryAllocator::mem_free(ptr);
GAS LISTING /tmp/cc0rjyQZ.s 			page 8


 196              		.loc 1 39 17
  39:src/interruptHandlers.cpp ****                 retVal = MemoryAllocator::mem_free(ptr);
 197              		.loc 1 39 59 is_stmt 0
 198              	#APP
 199              	# 39 "src/interruptHandlers.cpp" 1
 200              		mv a0, a1
 201              	# 0 "" 2
 202              	.LVL13:
  40:src/interruptHandlers.cpp ****                 __asm__ volatile ("mv t0, %0" : : "r"(retVal));
 203              		.loc 1 40 17 is_stmt 1
  40:src/interruptHandlers.cpp ****                 __asm__ volatile ("mv t0, %0" : : "r"(retVal));
 204              		.loc 1 40 51 is_stmt 0
 205              	#NO_APP
 206 00a0 97000000 		call	_ZN15MemoryAllocator8mem_freeEPv@plt
 206      E7800000 
 207              	.LVL14:
  41:src/interruptHandlers.cpp ****                 __asm__ volatile ("sd t0, 80(x8)" : : "r"(retVal));
 208              		.loc 1 41 17 is_stmt 1
  41:src/interruptHandlers.cpp ****                 __asm__ volatile ("sd t0, 80(x8)" : : "r"(retVal));
 209              		.loc 1 41 63 is_stmt 0
 210              	#APP
 211              	# 41 "src/interruptHandlers.cpp" 1
  42:src/interruptHandlers.cpp ****                 break;
 212              		mv t0, a0
 213              	# 0 "" 2
 214              		.loc 1 42 17 is_stmt 1
  42:src/interruptHandlers.cpp ****                 break;
 215              		.loc 1 42 67 is_stmt 0
 216              	# 42 "src/interruptHandlers.cpp" 1
  43:src/interruptHandlers.cpp ****             default:
 217              		sd t0, 80(x8)
 218              	# 0 "" 2
 219              		.loc 1 43 17 is_stmt 1
 220              	#NO_APP
 221 00b0 6FF05FFB 		j	.L5
 222              	.LBE27:
 223              	.LBE32:
 224              		.cfi_endproc
 225              	.LFE25:
 227              		.align	2
 228              		.globl	_ZN17interruptHandlers22handleConsoleInterruptEv
 230              	_ZN17interruptHandlers22handleConsoleInterruptEv:
 231              	.LFB26:
  52:src/interruptHandlers.cpp **** 
  53:src/interruptHandlers.cpp ****     void handleConsoleInterrupt() {
 232              		.loc 1 53 35
 233              		.cfi_startproc
 234 00b4 130101FF 		addi	sp,sp,-16
 235              		.cfi_def_cfa_offset 16
 236 00b8 23341100 		sd	ra,8(sp)
 237 00bc 23308100 		sd	s0,0(sp)
 238              		.cfi_offset 1, -8
 239              		.cfi_offset 8, -16
 240 00c0 13040101 		addi	s0,sp,16
 241              		.cfi_def_cfa 8, 0
  54:src/interruptHandlers.cpp ****         console_handler();
 242              		.loc 1 54 9
GAS LISTING /tmp/cc0rjyQZ.s 			page 9


 243              		.loc 1 54 24 is_stmt 0
 244 00c4 97000000 		call	console_handler@plt
 244      E7800000 
 245              	.LVL15:
  55:src/interruptHandlers.cpp ****     }
 246              		.loc 1 55 5
 247 00cc 83308100 		ld	ra,8(sp)
 248              		.cfi_restore 1
 249 00d0 03340100 		ld	s0,0(sp)
 250              		.cfi_restore 8
 251              		.cfi_def_cfa 2, 16
 252 00d4 13010101 		addi	sp,sp,16
 253              		.cfi_def_cfa_offset 0
 254 00d8 67800000 		jr	ra
 255              		.cfi_endproc
 256              	.LFE26:
 258              		.align	2
 259              		.globl	_ZN17interruptHandlers20handleTimerInterruptEv
 261              	_ZN17interruptHandlers20handleTimerInterruptEv:
 262              	.LFB27:
  56:src/interruptHandlers.cpp **** 
  57:src/interruptHandlers.cpp ****     void handleTimerInterrupt() {
 263              		.loc 1 57 33 is_stmt 1
 264              		.cfi_startproc
 265 00dc 130101FF 		addi	sp,sp,-16
 266              		.cfi_def_cfa_offset 16
 267 00e0 23348100 		sd	s0,8(sp)
 268              		.cfi_offset 8, -8
 269 00e4 13040101 		addi	s0,sp,16
 270              		.cfi_def_cfa 8, 0
  58:src/interruptHandlers.cpp ****         RiscV::mc_sip(RiscV::BitMaskSip::SIP_SSIP);
 271              		.loc 1 58 9
 272              	.LVL16:
 273              	.LBB33:
 274              	.LBB34:
 133:src/../h/RiscV.h **** 
 134:src/../h/RiscV.h **** inline void RiscV::ms_sstatus(RiscV::BitMaskSStatus mask) {
 135:src/../h/RiscV.h ****     __asm__ volatile ("csrs sstatus, %[mask]" : : [mask] "r"((uint64)mask));
 136:src/../h/RiscV.h **** }
 137:src/../h/RiscV.h **** 
 138:src/../h/RiscV.h **** inline void RiscV::mc_sstatus(RiscV::BitMaskSStatus mask) {
 139:src/../h/RiscV.h ****     __asm__ volatile ("csrc sstatus, %[mask]" : : [mask] "r"((uint64)mask));
 140:src/../h/RiscV.h **** }
 141:src/../h/RiscV.h **** 
 142:src/../h/RiscV.h **** inline uint64 RiscV::sipR() {
 143:src/../h/RiscV.h ****     uint64 volatile sip;
 144:src/../h/RiscV.h ****     __asm__ volatile ("csrr %[sip], sip" : [sip] "=r"(sip));
 145:src/../h/RiscV.h ****     return sip;
 146:src/../h/RiscV.h **** }
 147:src/../h/RiscV.h **** 
 148:src/../h/RiscV.h **** inline void RiscV::sipW(uint64 sip) {
 149:src/../h/RiscV.h ****     __asm__ volatile ("csrw sip, %[sip]" : : [sip] "r"(sip));
 150:src/../h/RiscV.h **** }
 151:src/../h/RiscV.h **** 
 152:src/../h/RiscV.h **** inline void RiscV::ms_sip(RiscV::BitMaskSip mask) {
 153:src/../h/RiscV.h ****     __asm__ volatile ("csrs sip, %[mask]" : : [mask] "r"((uint64)mask));
 154:src/../h/RiscV.h **** }
GAS LISTING /tmp/cc0rjyQZ.s 			page 10


 155:src/../h/RiscV.h **** 
 156:src/../h/RiscV.h **** inline void RiscV::mc_sip(RiscV::BitMaskSip mask) {
 157:src/../h/RiscV.h ****     __asm__ volatile ("csrc sip, %[mask]" : : [mask] "r"((uint64)mask));
 275              		.loc 2 157 5
 276              		.loc 2 157 72 is_stmt 0
 277 00e8 93072000 		li	a5,2
 278              	#APP
 279              	# 157 "src/../h/RiscV.h" 1
 158              	}
 280              		csrc sip, a5
 281              	# 0 "" 2
 282              	.LVL17:
 283              	#NO_APP
 284              	.LBE34:
 285              	.LBE33:
  59:src/interruptHandlers.cpp ****         /*uint64 volatile sepc = r_sepc();
  60:src/interruptHandlers.cpp ****         uint64 volatile sstatus = r_sstatus();
  61:src/interruptHandlers.cpp ****         TCB::dispatch();
  62:src/interruptHandlers.cpp ****         w_sstatus(sstatus);
  63:src/interruptHandlers.cpp ****         w_sepc(sepc);*/
  64:src/interruptHandlers.cpp ****     }
 286              		.loc 1 64 5
 287 00f0 03348100 		ld	s0,8(sp)
 288              		.cfi_restore 8
 289              		.cfi_def_cfa 2, 16
 290 00f4 13010101 		addi	sp,sp,16
 291              		.cfi_def_cfa_offset 0
 292 00f8 67800000 		jr	ra
 293              		.cfi_endproc
 294              	.LFE27:
 296              	.Letext0:
 297              		.file 3 "src/../h/../lib/hw.h"
 298              		.file 4 "src/../h/AVLTree.h"
 299              		.file 5 "src/../h/MemoryAllocator.h"
 300              		.file 6 "src/../h/../lib/console.h"
GAS LISTING /tmp/cc0rjyQZ.s 			page 11


DEFINED SYMBOLS
                            *ABS*:0000000000000000 interruptHandlers.cpp
     /tmp/cc0rjyQZ.s:9      .text:0000000000000000 _ZN17interruptHandlers20handleSupervisorTrapEv
     /tmp/cc0rjyQZ.s:13     .text:0000000000000000 .L0 
     /tmp/cc0rjyQZ.s:14     .text:0000000000000000 .L0 
     /tmp/cc0rjyQZ.s:15     .text:0000000000000004 .L0 
     /tmp/cc0rjyQZ.s:20     .text:0000000000000014 .L0 
     /tmp/cc0rjyQZ.s:21     .text:0000000000000014 .L0 
     /tmp/cc0rjyQZ.s:22     .text:0000000000000014 .L0 
     /tmp/cc0rjyQZ.s:23     .text:0000000000000014 .L0 
     /tmp/cc0rjyQZ.s:25     .text:0000000000000018 .L0 
     /tmp/cc0rjyQZ.s:30     .text:0000000000000018 .L0 
     /tmp/cc0rjyQZ.s:31     .text:0000000000000018 .L0 
     /tmp/cc0rjyQZ.s:32     .text:0000000000000018 .L0 
    src/../h/RiscV.h:66     .text:0000000000000018 .L0 
     /tmp/cc0rjyQZ.s:40     .text:0000000000000020 .L0 
     /tmp/cc0rjyQZ.s:41     .text:0000000000000020 .L0 
     /tmp/cc0rjyQZ.s:46     .text:0000000000000024 .L0 
     /tmp/cc0rjyQZ.s:47     .text:0000000000000024 .L0 
     /tmp/cc0rjyQZ.s:50     .text:0000000000000028 .L0 
     /tmp/cc0rjyQZ.s:55     .text:0000000000000030 .L0 
     /tmp/cc0rjyQZ.s:56     .text:0000000000000030 .L0 
     /tmp/cc0rjyQZ.s:57     .text:0000000000000030 .L0 
    src/../h/RiscV.h:76     .text:0000000000000030 .L0 
     /tmp/cc0rjyQZ.s:66     .text:0000000000000038 .L0 
     /tmp/cc0rjyQZ.s:67     .text:0000000000000038 .L0 
     /tmp/cc0rjyQZ.s:71     .text:000000000000003c .L0 
     /tmp/cc0rjyQZ.s:76     .text:0000000000000040 .L0 
     /tmp/cc0rjyQZ.s:77     .text:0000000000000040 .L0 
     /tmp/cc0rjyQZ.s:78     .text:0000000000000040 .L0 
    src/../h/RiscV.h:126    .text:0000000000000040 .L0 
     /tmp/cc0rjyQZ.s:86     .text:0000000000000048 .L0 
     /tmp/cc0rjyQZ.s:87     .text:0000000000000048 .L0 
     /tmp/cc0rjyQZ.s:94     .text:000000000000004c .L0 
     /tmp/cc0rjyQZ.s:95     .text:000000000000004c .L0 
     /tmp/cc0rjyQZ.s:96     .text:000000000000004c .L0 
    src/../h/RiscV.h:106    .text:000000000000004c .L0 
     /tmp/cc0rjyQZ.s:104    .text:0000000000000054 .L0 
     /tmp/cc0rjyQZ.s:105    .text:0000000000000054 .L0 
     /tmp/cc0rjyQZ.s:110    .text:0000000000000058 .L0 
     /tmp/cc0rjyQZ.s:112    .text:0000000000000058 .L0 
     /tmp/cc0rjyQZ.s:121    .text:0000000000000064 .L0 
     /tmp/cc0rjyQZ.s:122    .text:0000000000000064 .L0 
    src/../h/RiscV.h:131    .text:0000000000000064 .L0 
     /tmp/cc0rjyQZ.s:134    .text:0000000000000068 .L0 
     /tmp/cc0rjyQZ.s:135    .text:0000000000000068 .L0 
    src/../h/RiscV.h:81     .text:0000000000000068 .L0 
     /tmp/cc0rjyQZ.s:146    .text:000000000000006c .L0 
     /tmp/cc0rjyQZ.s:147    .text:0000000000000070 .L0 
     /tmp/cc0rjyQZ.s:148    .text:0000000000000070 .L0 
     /tmp/cc0rjyQZ.s:150    .text:0000000000000074 .L0 
     /tmp/cc0rjyQZ.s:151    .text:0000000000000074 .L0 
     /tmp/cc0rjyQZ.s:153    .text:0000000000000078 .L0 
     /tmp/cc0rjyQZ.s:155    .text:000000000000007c .L0 
     /tmp/cc0rjyQZ.s:157    .text:0000000000000080 .L0 
     /tmp/cc0rjyQZ.s:161    .text:0000000000000084 .L0 
     /tmp/cc0rjyQZ.s:165    .text:0000000000000084 .L0 
GAS LISTING /tmp/cc0rjyQZ.s 			page 12


     /tmp/cc0rjyQZ.s:166    .text:0000000000000084 .L0 
     /tmp/cc0rjyQZ.s:167    .text:0000000000000084 .L0 
src/interruptHandlers.cpp:32     .text:0000000000000084 .L0 
     /tmp/cc0rjyQZ.s:174    .text:0000000000000088 .L0 
     /tmp/cc0rjyQZ.s:176    .text:0000000000000088 .L0 
     /tmp/cc0rjyQZ.s:179    .text:0000000000000090 .L0 
src/interruptHandlers.cpp:34     .text:0000000000000090 .L0 
     /tmp/cc0rjyQZ.s:185    .text:0000000000000094 .L0 
src/interruptHandlers.cpp:35     .text:0000000000000094 .L0 
     /tmp/cc0rjyQZ.s:191    .text:0000000000000098 .L0 
     /tmp/cc0rjyQZ.s:195    .text:000000000000009c .L0 
     /tmp/cc0rjyQZ.s:196    .text:000000000000009c .L0 
     /tmp/cc0rjyQZ.s:197    .text:000000000000009c .L0 
src/interruptHandlers.cpp:39     .text:000000000000009c .L0 
     /tmp/cc0rjyQZ.s:204    .text:00000000000000a0 .L0 
     /tmp/cc0rjyQZ.s:206    .text:00000000000000a0 .L0 
     /tmp/cc0rjyQZ.s:209    .text:00000000000000a8 .L0 
src/interruptHandlers.cpp:41     .text:00000000000000a8 .L0 
     /tmp/cc0rjyQZ.s:215    .text:00000000000000ac .L0 
src/interruptHandlers.cpp:42     .text:00000000000000ac .L0 
     /tmp/cc0rjyQZ.s:221    .text:00000000000000b0 .L0 
     /tmp/cc0rjyQZ.s:224    .text:00000000000000b4 .L0 
     /tmp/cc0rjyQZ.s:230    .text:00000000000000b4 _ZN17interruptHandlers22handleConsoleInterruptEv
     /tmp/cc0rjyQZ.s:233    .text:00000000000000b4 .L0 
     /tmp/cc0rjyQZ.s:234    .text:00000000000000b4 .L0 
     /tmp/cc0rjyQZ.s:235    .text:00000000000000b8 .L0 
     /tmp/cc0rjyQZ.s:238    .text:00000000000000c0 .L0 
     /tmp/cc0rjyQZ.s:239    .text:00000000000000c0 .L0 
     /tmp/cc0rjyQZ.s:241    .text:00000000000000c4 .L0 
     /tmp/cc0rjyQZ.s:243    .text:00000000000000c4 .L0 
     /tmp/cc0rjyQZ.s:244    .text:00000000000000c4 .L0 
     /tmp/cc0rjyQZ.s:247    .text:00000000000000cc .L0 
     /tmp/cc0rjyQZ.s:248    .text:00000000000000d0 .L0 
     /tmp/cc0rjyQZ.s:250    .text:00000000000000d4 .L0 
     /tmp/cc0rjyQZ.s:251    .text:00000000000000d4 .L0 
     /tmp/cc0rjyQZ.s:253    .text:00000000000000d8 .L0 
     /tmp/cc0rjyQZ.s:255    .text:00000000000000dc .L0 
     /tmp/cc0rjyQZ.s:261    .text:00000000000000dc _ZN17interruptHandlers20handleTimerInterruptEv
     /tmp/cc0rjyQZ.s:264    .text:00000000000000dc .L0 
     /tmp/cc0rjyQZ.s:265    .text:00000000000000dc .L0 
     /tmp/cc0rjyQZ.s:266    .text:00000000000000e0 .L0 
     /tmp/cc0rjyQZ.s:268    .text:00000000000000e4 .L0 
     /tmp/cc0rjyQZ.s:270    .text:00000000000000e8 .L0 
     /tmp/cc0rjyQZ.s:275    .text:00000000000000e8 .L0 
     /tmp/cc0rjyQZ.s:276    .text:00000000000000e8 .L0 
     /tmp/cc0rjyQZ.s:277    .text:00000000000000e8 .L0 
     /tmp/cc0rjyQZ.s:287    .text:00000000000000f0 .L0 
     /tmp/cc0rjyQZ.s:288    .text:00000000000000f4 .L0 
     /tmp/cc0rjyQZ.s:289    .text:00000000000000f4 .L0 
     /tmp/cc0rjyQZ.s:291    .text:00000000000000f8 .L0 
     /tmp/cc0rjyQZ.s:293    .text:00000000000000fc .L0 
     /tmp/cc0rjyQZ.s:301    .text:00000000000000fc .L0 
     /tmp/cc0rjyQZ.s:142    .text:000000000000006c .L1
     /tmp/cc0rjyQZ.s:160    .text:0000000000000084 .L3
     /tmp/cc0rjyQZ.s:193    .text:000000000000009c .L4
     /tmp/cc0rjyQZ.s:116    .text:0000000000000064 .L5
     /tmp/cc0rjyQZ.s:1447   .debug_abbrev:0000000000000000 .Ldebug_abbrev0
GAS LISTING /tmp/cc0rjyQZ.s 			page 13


     /tmp/cc0rjyQZ.s:2651   .debug_str:000000000000076e .LASF137
     /tmp/cc0rjyQZ.s:2417   .debug_str:0000000000000013 .LASF138
     /tmp/cc0rjyQZ.s:2707   .debug_str:00000000000009d2 .LASF139
     /tmp/cc0rjyQZ.s:5      .text:0000000000000000 .Ltext0
     /tmp/cc0rjyQZ.s:296    .text:00000000000000fc .Letext0
     /tmp/cc0rjyQZ.s:2413   .debug_line:0000000000000000 .Ldebug_line0
     /tmp/cc0rjyQZ.s:2569   .debug_str:0000000000000555 .LASF0
     /tmp/cc0rjyQZ.s:2583   .debug_str:00000000000005b9 .LASF1
     /tmp/cc0rjyQZ.s:2549   .debug_str:000000000000049a .LASF2
     /tmp/cc0rjyQZ.s:2519   .debug_str:000000000000036b .LASF4
     /tmp/cc0rjyQZ.s:2625   .debug_str:00000000000006c4 .LASF3
     /tmp/cc0rjyQZ.s:2445   .debug_str:00000000000000ba .LASF5
     /tmp/cc0rjyQZ.s:2587   .debug_str:00000000000005e1 .LASF6
     /tmp/cc0rjyQZ.s:2567   .debug_str:0000000000000542 .LASF7
     /tmp/cc0rjyQZ.s:2675   .debug_str:00000000000008d6 .LASF8
     /tmp/cc0rjyQZ.s:2509   .debug_str:0000000000000329 .LASF9
     /tmp/cc0rjyQZ.s:2597   .debug_str:0000000000000622 .LASF10
     /tmp/cc0rjyQZ.s:2655   .debug_str:000000000000083b .LASF11
     /tmp/cc0rjyQZ.s:2449   .debug_str:00000000000000cd .LASF12
     /tmp/cc0rjyQZ.s:2419   .debug_str:000000000000002d .LASF13
     /tmp/cc0rjyQZ.s:2455   .debug_str:00000000000000fd .LASF14
     /tmp/cc0rjyQZ.s:2615   .debug_str:0000000000000682 .LASF15
     /tmp/cc0rjyQZ.s:2469   .debug_str:000000000000017a .LASF16
     /tmp/cc0rjyQZ.s:2641   .debug_str:0000000000000736 .LASF41
     /tmp/cc0rjyQZ.s:2573   .debug_str:000000000000056a .LASF72
     /tmp/cc0rjyQZ.s:2579   .debug_str:00000000000005a6 .LASF17
     /tmp/cc0rjyQZ.s:2459   .debug_str:0000000000000112 .LASF18
     /tmp/cc0rjyQZ.s:2517   .debug_str:0000000000000360 .LASF19
     /tmp/cc0rjyQZ.s:2679   .debug_str:00000000000008ed .LASF21
     /tmp/cc0rjyQZ.s:2575   .debug_str:0000000000000576 .LASF103
     /tmp/cc0rjyQZ.s:2697   .debug_str:000000000000099e .LASF20
     /tmp/cc0rjyQZ.s:2639   .debug_str:0000000000000719 .LASF22
     /tmp/cc0rjyQZ.s:2611   .debug_str:0000000000000669 .LASF23
     /tmp/cc0rjyQZ.s:2691   .debug_str:000000000000095e .LASF24
     /tmp/cc0rjyQZ.s:2537   .debug_str:0000000000000416 .LASF25
     /tmp/cc0rjyQZ.s:2521   .debug_str:0000000000000372 .LASF26
     /tmp/cc0rjyQZ.s:2473   .debug_str:00000000000001ab .LASF27
     /tmp/cc0rjyQZ.s:2489   .debug_str:0000000000000252 .LASF28
     /tmp/cc0rjyQZ.s:2541   .debug_str:0000000000000455 .LASF29
     /tmp/cc0rjyQZ.s:2439   .debug_str:000000000000008d .LASF30
     /tmp/cc0rjyQZ.s:2589   .debug_str:00000000000005f4 .LASF31
     /tmp/cc0rjyQZ.s:2577   .debug_str:000000000000058e .LASF32
     /tmp/cc0rjyQZ.s:2593   .debug_str:0000000000000611 .LASF33
     /tmp/cc0rjyQZ.s:2427   .debug_str:000000000000005f .LASF34
     /tmp/cc0rjyQZ.s:2483   .debug_str:0000000000000213 .LASF35
     /tmp/cc0rjyQZ.s:2653   .debug_str:0000000000000832 .LASF36
     /tmp/cc0rjyQZ.s:2701   .debug_str:00000000000009b4 .LASF37
     /tmp/cc0rjyQZ.s:2689   .debug_str:0000000000000959 .LASF38
     /tmp/cc0rjyQZ.s:2605   .debug_str:0000000000000648 .LASF39
     /tmp/cc0rjyQZ.s:2623   .debug_str:00000000000006bd .LASF40
     /tmp/cc0rjyQZ.s:2621   .debug_str:00000000000006ad .LASF43
     /tmp/cc0rjyQZ.s:2437   .debug_str:0000000000000084 .LASF42
     /tmp/cc0rjyQZ.s:2659   .debug_str:0000000000000853 .LASF44
     /tmp/cc0rjyQZ.s:2661   .debug_str:000000000000087a .LASF45
     /tmp/cc0rjyQZ.s:2527   .debug_str:00000000000003bb .LASF46
     /tmp/cc0rjyQZ.s:2599   .debug_str:0000000000000631 .LASF47
     /tmp/cc0rjyQZ.s:2529   .debug_str:00000000000003d9 .LASF48
GAS LISTING /tmp/cc0rjyQZ.s 			page 14


     /tmp/cc0rjyQZ.s:2629   .debug_str:00000000000006e0 .LASF49
     /tmp/cc0rjyQZ.s:2667   .debug_str:0000000000000893 .LASF50
     /tmp/cc0rjyQZ.s:2457   .debug_str:0000000000000109 .LASF51
     /tmp/cc0rjyQZ.s:2511   .debug_str:0000000000000337 .LASF52
     /tmp/cc0rjyQZ.s:2421   .debug_str:000000000000003d .LASF53
     /tmp/cc0rjyQZ.s:2495   .debug_str:000000000000028a .LASF54
     /tmp/cc0rjyQZ.s:2649   .debug_str:0000000000000765 .LASF55
     /tmp/cc0rjyQZ.s:2695   .debug_str:0000000000000982 .LASF56
     /tmp/cc0rjyQZ.s:2637   .debug_str:0000000000000710 .LASF57
     /tmp/cc0rjyQZ.s:2557   .debug_str:00000000000004dd .LASF58
     /tmp/cc0rjyQZ.s:2497   .debug_str:00000000000002a7 .LASF59
     /tmp/cc0rjyQZ.s:2543   .debug_str:0000000000000462 .LASF60
     /tmp/cc0rjyQZ.s:2493   .debug_str:000000000000027e .LASF61
     /tmp/cc0rjyQZ.s:2443   .debug_str:00000000000000b2 .LASF122
     /tmp/cc0rjyQZ.s:2505   .debug_str:00000000000002e9 .LASF124
     /tmp/cc0rjyQZ.s:2435   .debug_str:000000000000007a .LASF62
     /tmp/cc0rjyQZ.s:2431   .debug_str:000000000000006a .LASF63
     /tmp/cc0rjyQZ.s:2595   .debug_str:0000000000000616 .LASF64
     /tmp/cc0rjyQZ.s:2693   .debug_str:000000000000097d .LASF65
     /tmp/cc0rjyQZ.s:2705   .debug_str:00000000000009cc .LASF66
     /tmp/cc0rjyQZ.s:2669   .debug_str:00000000000008ad .LASF140
     /tmp/cc0rjyQZ.s:2555   .debug_str:00000000000004d3 .LASF141
     /tmp/cc0rjyQZ.s:2471   .debug_str:0000000000000190 .LASF142
     /tmp/cc0rjyQZ.s:2627   .debug_str:00000000000006d6 .LASF67
     /tmp/cc0rjyQZ.s:2683   .debug_str:000000000000091e .LASF68
     /tmp/cc0rjyQZ.s:2485   .debug_str:000000000000021a .LASF69
     /tmp/cc0rjyQZ.s:2507   .debug_str:0000000000000308 .LASF70
     /tmp/cc0rjyQZ.s:2545   .debug_str:0000000000000472 .LASF71
     /tmp/cc0rjyQZ.s:2433   .debug_str:0000000000000072 .LASF73
     /tmp/cc0rjyQZ.s:2631   .debug_str:00000000000006e7 .LASF74
     /tmp/cc0rjyQZ.s:2531   .debug_str:00000000000003f3 .LASF75
     /tmp/cc0rjyQZ.s:2535   .debug_str:0000000000000407 .LASF76
     /tmp/cc0rjyQZ.s:2467   .debug_str:000000000000016e .LASF77
     /tmp/cc0rjyQZ.s:2491   .debug_str:0000000000000271 .LASF78
     /tmp/cc0rjyQZ.s:2447   .debug_str:00000000000000c1 .LASF79
     /tmp/cc0rjyQZ.s:2533   .debug_str:00000000000003fc .LASF80
     /tmp/cc0rjyQZ.s:2601   .debug_str:0000000000000638 .LASF81
     /tmp/cc0rjyQZ.s:2685   .debug_str:000000000000093f .LASF82
     /tmp/cc0rjyQZ.s:2613   .debug_str:0000000000000677 .LASF83
     /tmp/cc0rjyQZ.s:2499   .debug_str:00000000000002ac .LASF85
     /tmp/cc0rjyQZ.s:2617   .debug_str:0000000000000698 .LASF84
     /tmp/cc0rjyQZ.s:2551   .debug_str:00000000000004a8 .LASF86
     /tmp/cc0rjyQZ.s:2565   .debug_str:000000000000053a .LASF89
     /tmp/cc0rjyQZ.s:2425   .debug_str:000000000000004b .LASF91
     /tmp/cc0rjyQZ.s:2571   .debug_str:0000000000000562 .LASF87
     /tmp/cc0rjyQZ.s:2475   .debug_str:00000000000001b9 .LASF88
     /tmp/cc0rjyQZ.s:2663   .debug_str:0000000000000886 .LASF90
     /tmp/cc0rjyQZ.s:2501   .debug_str:00000000000002c4 .LASF92
     /tmp/cc0rjyQZ.s:2671   .debug_str:00000000000008c9 .LASF93
     /tmp/cc0rjyQZ.s:2645   .debug_str:0000000000000743 .LASF94
     /tmp/cc0rjyQZ.s:2665   .debug_str:000000000000088c .LASF95
     /tmp/cc0rjyQZ.s:2523   .debug_str:0000000000000393 .LASF96
     /tmp/cc0rjyQZ.s:2673   .debug_str:00000000000008cf .LASF97
     /tmp/cc0rjyQZ.s:2703   .debug_str:00000000000009b9 .LASF98
     /tmp/cc0rjyQZ.s:2463   .debug_str:0000000000000145 .LASF99
     /tmp/cc0rjyQZ.s:2415   .debug_str:0000000000000000 .LASF100
     /tmp/cc0rjyQZ.s:2619   .debug_str:00000000000006a6 .LASF101
GAS LISTING /tmp/cc0rjyQZ.s 			page 15


     /tmp/cc0rjyQZ.s:2503   .debug_str:00000000000002d6 .LASF102
     /tmp/cc0rjyQZ.s:2451   .debug_str:00000000000000dd .LASF105
     /tmp/cc0rjyQZ.s:2553   .debug_str:00000000000004c3 .LASF104
     /tmp/cc0rjyQZ.s:2453   .debug_str:00000000000000ed .LASF106
     /tmp/cc0rjyQZ.s:2647   .debug_str:0000000000000755 .LASF107
     /tmp/cc0rjyQZ.s:2633   .debug_str:00000000000006f0 .LASF108
     /tmp/cc0rjyQZ.s:2591   .debug_str:00000000000005fc .LASF109
     /tmp/cc0rjyQZ.s:2657   .debug_str:000000000000084a .LASF110
     /tmp/cc0rjyQZ.s:2525   .debug_str:00000000000003a6 .LASF111
     /tmp/cc0rjyQZ.s:2699   .debug_str:00000000000009a9 .LASF112
     /tmp/cc0rjyQZ.s:2559   .debug_str:00000000000004f9 .LASF113
     /tmp/cc0rjyQZ.s:2581   .debug_str:00000000000005ae .LASF114
     /tmp/cc0rjyQZ.s:2461   .debug_str:000000000000011a .LASF115
     /tmp/cc0rjyQZ.s:2429   .debug_str:0000000000000065 .LASF116
     /tmp/cc0rjyQZ.s:2563   .debug_str:0000000000000529 .LASF117
     /tmp/cc0rjyQZ.s:2481   .debug_str:000000000000020e .LASF118
     /tmp/cc0rjyQZ.s:2687   .debug_str:0000000000000948 .LASF119
     /tmp/cc0rjyQZ.s:2603   .debug_str:0000000000000641 .LASF120
     /tmp/cc0rjyQZ.s:2465   .debug_str:000000000000014c .LASF121
     /tmp/cc0rjyQZ.s:2441   .debug_str:00000000000000ab .LASF143
     /tmp/cc0rjyQZ.s:2547   .debug_str:0000000000000478 .LASF144
     /tmp/cc0rjyQZ.s:2607   .debug_str:000000000000064f .LASF145
     /tmp/cc0rjyQZ.s:2585   .debug_str:00000000000005cc .LASF123
     /tmp/cc0rjyQZ.s:2539   .debug_str:0000000000000426 .LASF125
     /tmp/cc0rjyQZ.s:2635   .debug_str:00000000000006f9 .LASF126
     /tmp/cc0rjyQZ.s:2477   .debug_str:00000000000001cd .LASF127
     /tmp/cc0rjyQZ.s:2681   .debug_str:0000000000000909 .LASF128
     /tmp/cc0rjyQZ.s:2487   .debug_str:0000000000000223 .LASF129
     /tmp/cc0rjyQZ.s:262    .text:00000000000000dc .LFB27
     /tmp/cc0rjyQZ.s:294    .text:00000000000000fc .LFE27
     /tmp/cc0rjyQZ.s:273    .text:00000000000000e8 .LBB33
     /tmp/cc0rjyQZ.s:285    .text:00000000000000f0 .LBE33
     /tmp/cc0rjyQZ.s:2303   .debug_loc:0000000000000000 .LLST9
     /tmp/cc0rjyQZ.s:231    .text:00000000000000b4 .LFB26
     /tmp/cc0rjyQZ.s:256    .text:00000000000000dc .LFE26
     /tmp/cc0rjyQZ.s:245    .text:00000000000000cc .LVL15
     /tmp/cc0rjyQZ.s:10     .text:0000000000000000 .LFB25
     /tmp/cc0rjyQZ.s:225    .text:00000000000000b4 .LFE25
     /tmp/cc0rjyQZ.s:2423   .debug_str:0000000000000044 .LASF130
     /tmp/cc0rjyQZ.s:2311   .debug_loc:0000000000000024 .LLST0
     /tmp/cc0rjyQZ.s:2643   .debug_str:000000000000073e .LASF131
     /tmp/cc0rjyQZ.s:2324   .debug_loc:000000000000005c .LLST1
     /tmp/cc0rjyQZ.s:2609   .debug_str:0000000000000661 .LASF132
     /tmp/cc0rjyQZ.s:2335   .debug_loc:0000000000000092 .LLST2
     /tmp/cc0rjyQZ.s:2515   .debug_str:0000000000000359 .LASF133
     /tmp/cc0rjyQZ.s:2346   .debug_loc:00000000000000c8 .LLST3
     /tmp/cc0rjyQZ.s:2677   .debug_str:00000000000008e6 .LASF134
     /tmp/cc0rjyQZ.s:2361   .debug_loc:0000000000000111 .LLST4
     /tmp/cc0rjyQZ.s:163    .text:0000000000000084 .LBB27
     /tmp/cc0rjyQZ.s:222    .text:00000000000000b4 .LBE27
     /tmp/cc0rjyQZ.s:2561   .debug_str:0000000000000524 .LASF135
     /tmp/cc0rjyQZ.s:2372   .debug_loc:0000000000000147 .LLST5
     /tmp/cc0rjyQZ.s:2379   .debug_loc:000000000000016a .LLST6
     /tmp/cc0rjyQZ.s:177    .text:0000000000000090 .LVL11
     /tmp/cc0rjyQZ.s:207    .text:00000000000000a8 .LVL14
     /tmp/cc0rjyQZ.s:27     .text:0000000000000018 .LBB18
     /tmp/cc0rjyQZ.s:44     .text:0000000000000024 .LBE18
GAS LISTING /tmp/cc0rjyQZ.s 			page 16


     /tmp/cc0rjyQZ.s:53     .text:0000000000000030 .LBB20
     /tmp/cc0rjyQZ.s:69     .text:000000000000003c .LBE20
     /tmp/cc0rjyQZ.s:74     .text:0000000000000040 .LBB22
     /tmp/cc0rjyQZ.s:90     .text:000000000000004c .LBE22
     /tmp/cc0rjyQZ.s:92     .text:000000000000004c .LBB24
     /tmp/cc0rjyQZ.s:108    .text:0000000000000058 .LBE24
     /tmp/cc0rjyQZ.s:119    .text:0000000000000064 .LBB28
     /tmp/cc0rjyQZ.s:130    .text:0000000000000068 .LBE28
     /tmp/cc0rjyQZ.s:2386   .debug_loc:000000000000018d .LLST7
     /tmp/cc0rjyQZ.s:132    .text:0000000000000068 .LBB30
     /tmp/cc0rjyQZ.s:144    .text:000000000000006c .LBE30
     /tmp/cc0rjyQZ.s:2393   .debug_loc:00000000000001b0 .LLST8
     /tmp/cc0rjyQZ.s:2513   .debug_str:0000000000000354 .LASF136
     /tmp/cc0rjyQZ.s:2479   .debug_str:00000000000001fe .LASF146
     /tmp/cc0rjyQZ.s:272    .text:00000000000000e8 .LVL16
     /tmp/cc0rjyQZ.s:282    .text:00000000000000f0 .LVL17
     /tmp/cc0rjyQZ.s:42     .text:0000000000000024 .LVL0
     /tmp/cc0rjyQZ.s:48     .text:0000000000000028 .LVL1
     /tmp/cc0rjyQZ.s:62     .text:0000000000000034 .LVL2
     /tmp/cc0rjyQZ.s:72     .text:0000000000000040 .LVL3
     /tmp/cc0rjyQZ.s:140    .text:000000000000006c .LVL8
     /tmp/cc0rjyQZ.s:159    .text:0000000000000084 .LVL9
     /tmp/cc0rjyQZ.s:88     .text:000000000000004c .LVL4
     /tmp/cc0rjyQZ.s:106    .text:0000000000000058 .LVL5
     /tmp/cc0rjyQZ.s:115    .text:0000000000000064 .LVL6
     /tmp/cc0rjyQZ.s:192    .text:000000000000009c .LVL12
     /tmp/cc0rjyQZ.s:172    .text:0000000000000088 .LVL10
     /tmp/cc0rjyQZ.s:202    .text:00000000000000a0 .LVL13
     /tmp/cc0rjyQZ.s:127    .text:0000000000000068 .LVL7
     /tmp/cc0rjyQZ.s:302    .debug_info:0000000000000000 .Ldebug_info0

UNDEFINED SYMBOLS
_ZN15MemoryAllocator9mem_allocEm
_ZN15MemoryAllocator8mem_freeEPv
console_handler
