GAS LISTING /tmp/ccU0Vq4y.s 			page 1


   1              		.file	"interruptHandlers.cpp"
   2              		.option pic
   3              		.option norelax
   4              		.text
   5              	.Ltext0:
   6              		.align	2
   7              		.globl	_ZN17interruptHandlers20handleSupervisorTrapEv
   9              	_ZN17interruptHandlers20handleSupervisorTrapEv:
  10              	.LFB25:
  11              		.file 1 "src/interruptHandlers.cpp"
   1:src/interruptHandlers.cpp **** //
   2:src/interruptHandlers.cpp **** // Created by os on 5/4/24.
   3:src/interruptHandlers.cpp **** //
   4:src/interruptHandlers.cpp **** 
   5:src/interruptHandlers.cpp **** #include "../h/MemoryAllocator.h"
   6:src/interruptHandlers.cpp **** #include "../h/RiscV.h"
   7:src/interruptHandlers.cpp **** 
   8:src/interruptHandlers.cpp **** namespace interruptHandlers {
   9:src/interruptHandlers.cpp **** 
  10:src/interruptHandlers.cpp ****     void handleSupervisorTrap() {
  12              		.loc 1 10 33
  13              		.cfi_startproc
  14 0000 130101FC 		addi	sp,sp,-64
  15              		.cfi_def_cfa_offset 64
  16 0004 233C1102 		sd	ra,56(sp)
  17 0008 23388102 		sd	s0,48(sp)
  18              		.cfi_offset 1, -8
  19              		.cfi_offset 8, -16
  20 000c 13040104 		addi	s0,sp,64
  21              		.cfi_def_cfa 8, 0
  11:src/interruptHandlers.cpp ****         uint64 scause = RiscV::scauseR();
  22              		.loc 1 11 9
  23              	.LBB18:
  24              	.LBB19:
  25              		.file 2 "src/../h/RiscV.h"
   1:src/../h/RiscV.h **** //
   2:src/../h/RiscV.h **** // Created by os on 5/4/24.
   3:src/../h/RiscV.h **** //
   4:src/../h/RiscV.h **** 
   5:src/../h/RiscV.h **** #ifndef PROJEKAT_RISCV_H
   6:src/../h/RiscV.h **** #define PROJEKAT_RISCV_H
   7:src/../h/RiscV.h **** 
   8:src/../h/RiscV.h **** #include "../lib/hw.h"
   9:src/../h/RiscV.h **** 
  10:src/../h/RiscV.h **** class RiscV {
  11:src/../h/RiscV.h **** public:
  12:src/../h/RiscV.h ****     static void popSppSpie();
  13:src/../h/RiscV.h ****     static void setStvecTable(){}
  14:src/../h/RiscV.h **** 
  15:src/../h/RiscV.h ****     enum CodeOps{
  16:src/../h/RiscV.h ****         MEM_ALOC = 0x01,
  17:src/../h/RiscV.h ****         MEM_FREE = 0x02
  18:src/../h/RiscV.h ****     };
  19:src/../h/RiscV.h **** 
  20:src/../h/RiscV.h ****     enum BitMaskSStatus {
  21:src/../h/RiscV.h ****         SSTATUS_SIE = 1 << 1,
  22:src/../h/RiscV.h ****         SSTATUS_SPIE = 1 << 5,
GAS LISTING /tmp/ccU0Vq4y.s 			page 2


  23:src/../h/RiscV.h ****         SSTATUS_SPP = 1 << 8
  24:src/../h/RiscV.h ****     };
  25:src/../h/RiscV.h **** 
  26:src/../h/RiscV.h ****     enum BitMaskSip {
  27:src/../h/RiscV.h ****         SIP_SSIP = 1 << 1,
  28:src/../h/RiscV.h ****         SIP_SEIP = 1 << 9
  29:src/../h/RiscV.h ****     };
  30:src/../h/RiscV.h **** 
  31:src/../h/RiscV.h ****     static uint64 scauseR();
  32:src/../h/RiscV.h ****     static void scauseW(uint64 scause);
  33:src/../h/RiscV.h **** 
  34:src/../h/RiscV.h ****     static uint64 sepcR();
  35:src/../h/RiscV.h ****     static void sepcW(uint64);
  36:src/../h/RiscV.h **** 
  37:src/../h/RiscV.h ****     static uint64 stvecR();
  38:src/../h/RiscV.h ****     static void stvecW(uint64 stvec);
  39:src/../h/RiscV.h **** 
  40:src/../h/RiscV.h ****     static uint64 stvalR();
  41:src/../h/RiscV.h ****     static void stvalW(uint64 stval);
  42:src/../h/RiscV.h **** 
  43:src/../h/RiscV.h ****     static uint64 a0R();
  44:src/../h/RiscV.h ****     static void a0W(uint64 val);
  45:src/../h/RiscV.h ****     static uint64 a1R();
  46:src/../h/RiscV.h ****     static void a1W(uint64 val);
  47:src/../h/RiscV.h **** 
  48:src/../h/RiscV.h **** 
  49:src/../h/RiscV.h **** 
  50:src/../h/RiscV.h ****     static uint64 sstatusR();
  51:src/../h/RiscV.h ****     static void sstatusW(uint64 sstatus);
  52:src/../h/RiscV.h **** 
  53:src/../h/RiscV.h ****     static void ms_sstatus(BitMaskSStatus mask);
  54:src/../h/RiscV.h ****     static void mc_sstatus(BitMaskSStatus mask);
  55:src/../h/RiscV.h **** 
  56:src/../h/RiscV.h **** 
  57:src/../h/RiscV.h ****     static uint64 sipR();
  58:src/../h/RiscV.h ****     static void sipW(uint64);
  59:src/../h/RiscV.h **** 
  60:src/../h/RiscV.h ****     static void ms_sip(BitMaskSip mask);
  61:src/../h/RiscV.h ****     static void mc_sip(BitMaskSip mask);
  62:src/../h/RiscV.h **** };
  63:src/../h/RiscV.h **** 
  64:src/../h/RiscV.h **** inline uint64 RiscV::scauseR() {
  65:src/../h/RiscV.h ****     uint64 volatile scause;
  26              		.loc 2 65 5
  66:src/../h/RiscV.h ****     __asm__ volatile ("csrr %[scause], scause" : [scause] "=r"(scause));
  27              		.loc 2 66 5
  28              		.loc 2 66 72 is_stmt 0
  29              	#APP
  30              	# 66 "src/../h/RiscV.h" 1
  67              	    return scause;
  31              		csrr a5, scause
  32              	# 0 "" 2
  33              	#NO_APP
  34 0014 2330F4FC 		sd	a5,-64(s0)
  35              		.loc 2 67 5 is_stmt 1
  36              		.loc 2 67 12 is_stmt 0
  37 0018 833704FC 		ld	a5,-64(s0)
GAS LISTING /tmp/ccU0Vq4y.s 			page 3


  38              	.LVL0:
  39              	.LBE19:
  40              	.LBE18:
  12:src/interruptHandlers.cpp ****         // not ecall interruption
  13:src/interruptHandlers.cpp ****         if (scause != (uint64) (1 << 3) && scause != (uint64) (1 << 3 | 0x01)) {
  41              		.loc 1 13 9 is_stmt 1
  42              		.loc 1 13 41 is_stmt 0
  43 001c 938787FF 		addi	a5,a5,-8
  44              	.LVL1:
  45              		.loc 1 13 9
  46 0020 13071000 		li	a4,1
  47 0024 6368F704 		bgtu	a5,a4,.L1
  14:src/interruptHandlers.cpp ****             // unexpreted trap cause
  15:src/interruptHandlers.cpp ****             return;
  16:src/interruptHandlers.cpp ****         }
  17:src/interruptHandlers.cpp **** 
  18:src/interruptHandlers.cpp ****         // interrupt from UserMode(0x08) or KernelMode(0x09)
  19:src/interruptHandlers.cpp ****         // retVal is passed implicitly by changing a0 on stack
  20:src/interruptHandlers.cpp ****         uint64 volatile sepc = RiscV::sepcR() + 4;
  48              		.loc 1 20 9 is_stmt 1
  49              	.LBB20:
  50              	.LBB21:
  68:src/../h/RiscV.h **** }
  69:src/../h/RiscV.h **** 
  70:src/../h/RiscV.h **** inline void RiscV::scauseW(uint64 scause) {
  71:src/../h/RiscV.h ****     __asm__ volatile ("csrw scause, %[scause]" : : [scause] "r"(scause));
  72:src/../h/RiscV.h **** }
  73:src/../h/RiscV.h **** 
  74:src/../h/RiscV.h **** inline uint64 RiscV::sepcR() {
  75:src/../h/RiscV.h ****     uint64 volatile sepc;
  51              		.loc 2 75 5
  76:src/../h/RiscV.h ****     __asm__ volatile ("csrr %[sepc], sepc" : [sepc] "=r"(sepc));
  52              		.loc 2 76 5
  53              		.loc 2 76 64 is_stmt 0
  54              	#APP
  55              	# 76 "src/../h/RiscV.h" 1
  77              	    return sepc;
  56              		csrr a5, sepc
  57              	# 0 "" 2
  58              	.LVL2:
  59              	#NO_APP
  60 002c 233CF4FC 		sd	a5,-40(s0)
  61              		.loc 2 77 5 is_stmt 1
  62              		.loc 2 77 12 is_stmt 0
  63 0030 833784FD 		ld	a5,-40(s0)
  64              	.LBE21:
  65              	.LBE20:
  66              		.loc 1 20 47
  67 0034 93874700 		addi	a5,a5,4
  68              		.loc 1 20 49
  69 0038 2334F4FE 		sd	a5,-24(s0)
  21:src/interruptHandlers.cpp ****         uint64 volatile sstatus = RiscV::sstatusR();
  70              		.loc 1 21 9 is_stmt 1
  71              	.LBB22:
  72              	.LBB23:
  78:src/../h/RiscV.h **** }
  79:src/../h/RiscV.h **** 
GAS LISTING /tmp/ccU0Vq4y.s 			page 4


  80:src/../h/RiscV.h **** inline void RiscV::sepcW(uint64 sepc) {
  81:src/../h/RiscV.h ****     __asm__ volatile ("csrw sepc, %[sepc]" : : [sepc] "r"(sepc));
  82:src/../h/RiscV.h **** }
  83:src/../h/RiscV.h **** 
  84:src/../h/RiscV.h **** inline uint64 RiscV::stvecR() {
  85:src/../h/RiscV.h ****     uint64 volatile stvec;
  86:src/../h/RiscV.h ****     __asm__ volatile ("csrr %[stvec], stvec" : [stvec] "=r"(stvec));
  87:src/../h/RiscV.h ****     return stvec;
  88:src/../h/RiscV.h **** }
  89:src/../h/RiscV.h **** 
  90:src/../h/RiscV.h **** inline void RiscV::stvecW(uint64 stvec) {
  91:src/../h/RiscV.h ****     __asm__ volatile ("csrw stvec, %[stvec]" : : [stvec] "r"(stvec));
  92:src/../h/RiscV.h **** }
  93:src/../h/RiscV.h **** 
  94:src/../h/RiscV.h **** inline uint64 RiscV::stvalR() {
  95:src/../h/RiscV.h ****     uint64 volatile stval;
  96:src/../h/RiscV.h ****     __asm__ volatile ("csrr %[stval], stval" : [stval] "=r"(stval));
  97:src/../h/RiscV.h ****     return stval;
  98:src/../h/RiscV.h **** }
  99:src/../h/RiscV.h **** 
 100:src/../h/RiscV.h **** inline void RiscV::stvalW(uint64 stval) {
 101:src/../h/RiscV.h ****     __asm__ volatile ("csrw stval, %[stval]" : : [stval] "r"(stval));
 102:src/../h/RiscV.h **** }
 103:src/../h/RiscV.h **** 
 104:src/../h/RiscV.h **** inline uint64 RiscV::a0R() {
 105:src/../h/RiscV.h ****     uint64 volatile a0;
 106:src/../h/RiscV.h ****     __asm__ volatile ("mv %0, a0" : "=r"(a0));
 107:src/../h/RiscV.h ****     return a0;
 108:src/../h/RiscV.h **** }
 109:src/../h/RiscV.h **** 
 110:src/../h/RiscV.h **** inline void RiscV::a0W(uint64 val) {
 111:src/../h/RiscV.h ****     __asm__ volatile ("mv a0, %0" : : "r"(val));
 112:src/../h/RiscV.h **** }
 113:src/../h/RiscV.h **** 
 114:src/../h/RiscV.h **** inline uint64 RiscV::a1R() {
 115:src/../h/RiscV.h ****     uint64 volatile a1;
 116:src/../h/RiscV.h ****     __asm__ volatile ("mv %0, a1" : "=r"(a1));
 117:src/../h/RiscV.h ****     return a1;
 118:src/../h/RiscV.h **** }
 119:src/../h/RiscV.h **** 
 120:src/../h/RiscV.h **** inline void RiscV::a1W(uint64 val) {
 121:src/../h/RiscV.h ****     __asm__ volatile ("mv a1, %0" : : "r"(val));
 122:src/../h/RiscV.h **** }
 123:src/../h/RiscV.h **** 
 124:src/../h/RiscV.h **** inline uint64 RiscV::sstatusR() {
 125:src/../h/RiscV.h ****     uint64 volatile sstatus;
  73              		.loc 2 125 5
 126:src/../h/RiscV.h ****     __asm__ volatile ("csrr %[sstatus], sstatus" : [sstatus] "=r"(sstatus));
  74              		.loc 2 126 5
  75              		.loc 2 126 76 is_stmt 0
  76              	#APP
  77              	# 126 "src/../h/RiscV.h" 1
 127              	    return sstatus;
  78              		csrr a5, sstatus
  79              	# 0 "" 2
  80              	#NO_APP
  81 0040 2338F4FC 		sd	a5,-48(s0)
GAS LISTING /tmp/ccU0Vq4y.s 			page 5


  82              		.loc 2 127 5 is_stmt 1
  83              		.loc 2 127 12 is_stmt 0
  84 0044 833704FD 		ld	a5,-48(s0)
  85              	.LBE23:
  86              	.LBE22:
  87              		.loc 1 21 51
  88 0048 2330F4FE 		sd	a5,-32(s0)
  22:src/interruptHandlers.cpp ****         uint64 codeOp = RiscV::a0R();
  89              		.loc 1 22 9 is_stmt 1
  90              	.LBB24:
  91              	.LBB25:
 105:src/../h/RiscV.h ****     __asm__ volatile ("mv %0, a0" : "=r"(a0));
  92              		.loc 2 105 5
 106:src/../h/RiscV.h ****     return a0;
  93              		.loc 2 106 5
 106:src/../h/RiscV.h ****     return a0;
  94              		.loc 2 106 46 is_stmt 0
  95              	#APP
  96              	# 106 "src/../h/RiscV.h" 1
  97              		mv a5, a0
  98              	# 0 "" 2
  99              	#NO_APP
 100 0050 2334F4FC 		sd	a5,-56(s0)
 107:src/../h/RiscV.h **** }
 101              		.loc 2 107 5 is_stmt 1
 107:src/../h/RiscV.h **** }
 102              		.loc 2 107 12 is_stmt 0
 103 0054 833784FC 		ld	a5,-56(s0)
 104              	.LVL3:
 105              	.LBE25:
 106              	.LBE24:
  23:src/interruptHandlers.cpp ****         uint64 retVal;
 107              		.loc 1 23 9 is_stmt 1
  24:src/interruptHandlers.cpp **** 
  25:src/interruptHandlers.cpp ****         switch (codeOp) {
 108              		.loc 1 25 9
 109              	.LBB26:
 110 0058 6386E702 		beq	a5,a4,.L3
 111 005c 13072000 		li	a4,2
 112 0060 638EE702 		beq	a5,a4,.L4
 113              	.LVL4:
 114              	.L5:
 115              	.LBE26:
  26:src/interruptHandlers.cpp ****             case (uint64) RiscV::CodeOps::MEM_ALOC:
  27:src/interruptHandlers.cpp ****                 size_t size;
  28:src/interruptHandlers.cpp ****                 __asm__ volatile ("mv %0, a1" : "=r" (size));
  29:src/interruptHandlers.cpp ****                 retVal = (uint64) MemoryAllocator::mem_alloc(size);
  30:src/interruptHandlers.cpp ****                 __asm__ volatile ("mv t0, %0" : : "r"(retVal));
  31:src/interruptHandlers.cpp ****                 __asm__ volatile ("sd t0, 80(fp)");
  32:src/interruptHandlers.cpp ****                 break;
  33:src/interruptHandlers.cpp ****             case (uint64) RiscV::CodeOps::MEM_FREE:
  34:src/interruptHandlers.cpp ****                 void *ptr;
  35:src/interruptHandlers.cpp ****                 __asm__ volatile ("mv %0, a1" : "=r"(ptr));
  36:src/interruptHandlers.cpp ****                 retVal = MemoryAllocator::mem_free(ptr);
  37:src/interruptHandlers.cpp ****                 __asm__ volatile ("mv t0, %0" : : "r"(retVal));
  38:src/interruptHandlers.cpp ****                 __asm__ volatile ("sd t0, 80(fp)");
  39:src/interruptHandlers.cpp ****                 break;
GAS LISTING /tmp/ccU0Vq4y.s 			page 6


  40:src/interruptHandlers.cpp ****             default:
  41:src/interruptHandlers.cpp ****                 break;
  42:src/interruptHandlers.cpp ****         }
  43:src/interruptHandlers.cpp **** 
  44:src/interruptHandlers.cpp ****         RiscV::sstatusW(sstatus);
 116              		.loc 1 44 9
 117              		.loc 1 44 24 is_stmt 0
 118 0064 833704FE 		ld	a5,-32(s0)
 119              	.LVL5:
 120              	.LBB28:
 121              	.LBB29:
 128:src/../h/RiscV.h **** }
 129:src/../h/RiscV.h **** 
 130:src/../h/RiscV.h **** inline void RiscV::sstatusW(uint64 sstatus) {
 131:src/../h/RiscV.h ****     __asm__ volatile ("csrw sstatus, %[sstatus]" : : [sstatus] "r"(sstatus));
 122              		.loc 2 131 5 is_stmt 1
 123              		.loc 2 131 77 is_stmt 0
 124              	#APP
 125              	# 131 "src/../h/RiscV.h" 1
 132              	}
 126              		csrw sstatus, a5
 127              	# 0 "" 2
 128              	.LVL6:
 129              	#NO_APP
 130              	.LBE29:
 131              	.LBE28:
  45:src/interruptHandlers.cpp ****         RiscV::sepcW(sepc);
 132              		.loc 1 45 9 is_stmt 1
 133              		.loc 1 45 21 is_stmt 0
 134 006c 833784FE 		ld	a5,-24(s0)
 135              	.LVL7:
 136              	.LBB30:
 137              	.LBB31:
  81:src/../h/RiscV.h **** }
 138              		.loc 2 81 5 is_stmt 1
  81:src/../h/RiscV.h **** }
 139              		.loc 2 81 65 is_stmt 0
 140              	#APP
 141              	# 81 "src/../h/RiscV.h" 1
 142              		csrw sepc, a5
 143              	# 0 "" 2
 144              	.LVL8:
 145              	#NO_APP
 146              	.L1:
 147              	.LBE31:
 148              	.LBE30:
  46:src/interruptHandlers.cpp **** 
  47:src/interruptHandlers.cpp ****     }
 149              		.loc 1 47 5
 150 0074 83308103 		ld	ra,56(sp)
 151              		.cfi_remember_state
 152              		.cfi_restore 1
 153 0078 03340103 		ld	s0,48(sp)
 154              		.cfi_restore 8
 155              		.cfi_def_cfa 2, 64
 156 007c 13010104 		addi	sp,sp,64
 157              		.cfi_def_cfa_offset 0
GAS LISTING /tmp/ccU0Vq4y.s 			page 7


 158 0080 67800000 		jr	ra
 159              	.LVL9:
 160              	.L3:
 161              		.cfi_restore_state
 162              	.LBB32:
 163              	.LBB27:
  26:src/interruptHandlers.cpp ****                 size_t size;
 164              		.loc 1 26 13 is_stmt 1
  27:src/interruptHandlers.cpp ****                 __asm__ volatile ("mv %0, a1" : "=r" (size));
 165              		.loc 1 27 17
  28:src/interruptHandlers.cpp ****                 retVal = (uint64) MemoryAllocator::mem_alloc(size);
 166              		.loc 1 28 17
  28:src/interruptHandlers.cpp ****                 retVal = (uint64) MemoryAllocator::mem_alloc(size);
 167              		.loc 1 28 61 is_stmt 0
 168              	#APP
 169              	# 28 "src/interruptHandlers.cpp" 1
 170              		mv a0, a1
 171              	# 0 "" 2
 172              	.LVL10:
  29:src/interruptHandlers.cpp ****                 __asm__ volatile ("mv t0, %0" : : "r"(retVal));
 173              		.loc 1 29 17 is_stmt 1
  29:src/interruptHandlers.cpp ****                 __asm__ volatile ("mv t0, %0" : : "r"(retVal));
 174              		.loc 1 29 61 is_stmt 0
 175              	#NO_APP
 176 0088 97000000 		call	_ZN15MemoryAllocator9mem_allocEm@plt
 176      E7800000 
 177              	.LVL11:
  30:src/interruptHandlers.cpp ****                 __asm__ volatile ("sd t0, 80(fp)");
 178              		.loc 1 30 17 is_stmt 1
  30:src/interruptHandlers.cpp ****                 __asm__ volatile ("sd t0, 80(fp)");
 179              		.loc 1 30 63 is_stmt 0
 180              	#APP
 181              	# 30 "src/interruptHandlers.cpp" 1
  31:src/interruptHandlers.cpp ****                 break;
 182              		mv t0, a0
 183              	# 0 "" 2
 184              		.loc 1 31 17 is_stmt 1
  31:src/interruptHandlers.cpp ****                 break;
 185              		.loc 1 31 51 is_stmt 0
 186              	# 31 "src/interruptHandlers.cpp" 1
  32:src/interruptHandlers.cpp ****             case (uint64) RiscV::CodeOps::MEM_FREE:
 187              		sd t0, 80(fp)
 188              	# 0 "" 2
 189              		.loc 1 32 17 is_stmt 1
 190              	#NO_APP
 191 0098 6FF0DFFC 		j	.L5
 192              	.LVL12:
 193              	.L4:
  33:src/interruptHandlers.cpp ****                 void *ptr;
 194              		.loc 1 33 13
  34:src/interruptHandlers.cpp ****                 __asm__ volatile ("mv %0, a1" : "=r"(ptr));
 195              		.loc 1 34 17
  35:src/interruptHandlers.cpp ****                 retVal = MemoryAllocator::mem_free(ptr);
 196              		.loc 1 35 17
  35:src/interruptHandlers.cpp ****                 retVal = MemoryAllocator::mem_free(ptr);
 197              		.loc 1 35 59 is_stmt 0
 198              	#APP
GAS LISTING /tmp/ccU0Vq4y.s 			page 8


 199              	# 35 "src/interruptHandlers.cpp" 1
 200              		mv a0, a1
 201              	# 0 "" 2
 202              	.LVL13:
  36:src/interruptHandlers.cpp ****                 __asm__ volatile ("mv t0, %0" : : "r"(retVal));
 203              		.loc 1 36 17 is_stmt 1
  36:src/interruptHandlers.cpp ****                 __asm__ volatile ("mv t0, %0" : : "r"(retVal));
 204              		.loc 1 36 51 is_stmt 0
 205              	#NO_APP
 206 00a0 97000000 		call	_ZN15MemoryAllocator8mem_freeEPv@plt
 206      E7800000 
 207              	.LVL14:
  37:src/interruptHandlers.cpp ****                 __asm__ volatile ("sd t0, 80(fp)");
 208              		.loc 1 37 17 is_stmt 1
  37:src/interruptHandlers.cpp ****                 __asm__ volatile ("sd t0, 80(fp)");
 209              		.loc 1 37 63 is_stmt 0
 210              	#APP
 211              	# 37 "src/interruptHandlers.cpp" 1
  38:src/interruptHandlers.cpp ****                 break;
 212              		mv t0, a0
 213              	# 0 "" 2
 214              		.loc 1 38 17 is_stmt 1
  38:src/interruptHandlers.cpp ****                 break;
 215              		.loc 1 38 51 is_stmt 0
 216              	# 38 "src/interruptHandlers.cpp" 1
  39:src/interruptHandlers.cpp ****             default:
 217              		sd t0, 80(fp)
 218              	# 0 "" 2
 219              		.loc 1 39 17 is_stmt 1
 220              	#NO_APP
 221 00b0 6FF05FFB 		j	.L5
 222              	.LBE27:
 223              	.LBE32:
 224              		.cfi_endproc
 225              	.LFE25:
 227              		.align	2
 228              		.globl	_ZN17interruptHandlers22handleConsoleInterruptEv
 230              	_ZN17interruptHandlers22handleConsoleInterruptEv:
 231              	.LFB26:
  48:src/interruptHandlers.cpp **** 
  49:src/interruptHandlers.cpp ****     void handleConsoleInterrupt() {
 232              		.loc 1 49 35
 233              		.cfi_startproc
 234 00b4 130101FF 		addi	sp,sp,-16
 235              		.cfi_def_cfa_offset 16
 236 00b8 23341100 		sd	ra,8(sp)
 237 00bc 23308100 		sd	s0,0(sp)
 238              		.cfi_offset 1, -8
 239              		.cfi_offset 8, -16
 240 00c0 13040101 		addi	s0,sp,16
 241              		.cfi_def_cfa 8, 0
  50:src/interruptHandlers.cpp ****         console_handler();
 242              		.loc 1 50 9
 243              		.loc 1 50 24 is_stmt 0
 244 00c4 97000000 		call	console_handler@plt
 244      E7800000 
 245              	.LVL15:
GAS LISTING /tmp/ccU0Vq4y.s 			page 9


  51:src/interruptHandlers.cpp ****     }
 246              		.loc 1 51 5
 247 00cc 83308100 		ld	ra,8(sp)
 248              		.cfi_restore 1
 249 00d0 03340100 		ld	s0,0(sp)
 250              		.cfi_restore 8
 251              		.cfi_def_cfa 2, 16
 252 00d4 13010101 		addi	sp,sp,16
 253              		.cfi_def_cfa_offset 0
 254 00d8 67800000 		jr	ra
 255              		.cfi_endproc
 256              	.LFE26:
 258              		.align	2
 259              		.globl	_ZN17interruptHandlers20handleTimerInterruptEv
 261              	_ZN17interruptHandlers20handleTimerInterruptEv:
 262              	.LFB27:
  52:src/interruptHandlers.cpp **** 
  53:src/interruptHandlers.cpp ****     void handleTimerInterrupt() {
 263              		.loc 1 53 33 is_stmt 1
 264              		.cfi_startproc
 265 00dc 130101FF 		addi	sp,sp,-16
 266              		.cfi_def_cfa_offset 16
 267 00e0 23348100 		sd	s0,8(sp)
 268              		.cfi_offset 8, -8
 269 00e4 13040101 		addi	s0,sp,16
 270              		.cfi_def_cfa 8, 0
  54:src/interruptHandlers.cpp ****         RiscV::mc_sip(RiscV::BitMaskSip::SIP_SSIP);
 271              		.loc 1 54 9
 272              	.LVL16:
 273              	.LBB33:
 274              	.LBB34:
 133:src/../h/RiscV.h **** 
 134:src/../h/RiscV.h **** inline void RiscV::ms_sstatus(RiscV::BitMaskSStatus mask) {
 135:src/../h/RiscV.h ****     __asm__ volatile ("csrs sstatus, %[mask]" : : [mask] "r"((uint64)mask));
 136:src/../h/RiscV.h **** }
 137:src/../h/RiscV.h **** 
 138:src/../h/RiscV.h **** inline void RiscV::mc_sstatus(RiscV::BitMaskSStatus mask) {
 139:src/../h/RiscV.h ****     __asm__ volatile ("csrc sstatus, %[mask]" : : [mask] "r"((uint64)mask));
 140:src/../h/RiscV.h **** }
 141:src/../h/RiscV.h **** 
 142:src/../h/RiscV.h **** inline uint64 RiscV::sipR() {
 143:src/../h/RiscV.h ****     uint64 volatile sip;
 144:src/../h/RiscV.h ****     __asm__ volatile ("csrr %[sip], sip" : [sip] "=r"(sip));
 145:src/../h/RiscV.h ****     return sip;
 146:src/../h/RiscV.h **** }
 147:src/../h/RiscV.h **** 
 148:src/../h/RiscV.h **** inline void RiscV::sipW(uint64 sip) {
 149:src/../h/RiscV.h ****     __asm__ volatile ("csrw sip, %[sip]" : : [sip] "r"(sip));
 150:src/../h/RiscV.h **** }
 151:src/../h/RiscV.h **** 
 152:src/../h/RiscV.h **** inline void RiscV::ms_sip(RiscV::BitMaskSip mask) {
 153:src/../h/RiscV.h ****     __asm__ volatile ("csrs sip, %[mask]" : : [mask] "r"((uint64)mask));
 154:src/../h/RiscV.h **** }
 155:src/../h/RiscV.h **** 
 156:src/../h/RiscV.h **** inline void RiscV::mc_sip(RiscV::BitMaskSip mask) {
 157:src/../h/RiscV.h ****     __asm__ volatile ("csrc sip, %[mask]" : : [mask] "r"((uint64)mask));
 275              		.loc 2 157 5
GAS LISTING /tmp/ccU0Vq4y.s 			page 10


 276              		.loc 2 157 72 is_stmt 0
 277 00e8 93072000 		li	a5,2
 278              	#APP
 279              	# 157 "src/../h/RiscV.h" 1
 158              	}
 280              		csrc sip, a5
 281              	# 0 "" 2
 282              	.LVL17:
 283              	#NO_APP
 284              	.LBE34:
 285              	.LBE33:
  55:src/interruptHandlers.cpp ****     }
 286              		.loc 1 55 5
 287 00f0 03348100 		ld	s0,8(sp)
 288              		.cfi_restore 8
 289              		.cfi_def_cfa 2, 16
 290 00f4 13010101 		addi	sp,sp,16
 291              		.cfi_def_cfa_offset 0
 292 00f8 67800000 		jr	ra
 293              		.cfi_endproc
 294              	.LFE27:
 296              	.Letext0:
 297              		.file 3 "src/../h/../lib/hw.h"
 298              		.file 4 "src/../h/AVLTree.h"
 299              		.file 5 "src/../h/MemoryAllocator.h"
 300              		.file 6 "src/../h/../lib/console.h"
GAS LISTING /tmp/ccU0Vq4y.s 			page 11


DEFINED SYMBOLS
                            *ABS*:0000000000000000 interruptHandlers.cpp
     /tmp/ccU0Vq4y.s:9      .text:0000000000000000 _ZN17interruptHandlers20handleSupervisorTrapEv
     /tmp/ccU0Vq4y.s:13     .text:0000000000000000 .L0 
     /tmp/ccU0Vq4y.s:14     .text:0000000000000000 .L0 
     /tmp/ccU0Vq4y.s:15     .text:0000000000000004 .L0 
     /tmp/ccU0Vq4y.s:18     .text:000000000000000c .L0 
     /tmp/ccU0Vq4y.s:19     .text:000000000000000c .L0 
     /tmp/ccU0Vq4y.s:21     .text:0000000000000010 .L0 
     /tmp/ccU0Vq4y.s:26     .text:0000000000000010 .L0 
     /tmp/ccU0Vq4y.s:27     .text:0000000000000010 .L0 
     /tmp/ccU0Vq4y.s:28     .text:0000000000000010 .L0 
    src/../h/RiscV.h:66     .text:0000000000000010 .L0 
     /tmp/ccU0Vq4y.s:36     .text:0000000000000018 .L0 
     /tmp/ccU0Vq4y.s:37     .text:0000000000000018 .L0 
     /tmp/ccU0Vq4y.s:42     .text:000000000000001c .L0 
     /tmp/ccU0Vq4y.s:43     .text:000000000000001c .L0 
     /tmp/ccU0Vq4y.s:46     .text:0000000000000020 .L0 
     /tmp/ccU0Vq4y.s:51     .text:0000000000000028 .L0 
     /tmp/ccU0Vq4y.s:52     .text:0000000000000028 .L0 
     /tmp/ccU0Vq4y.s:53     .text:0000000000000028 .L0 
    src/../h/RiscV.h:76     .text:0000000000000028 .L0 
     /tmp/ccU0Vq4y.s:62     .text:0000000000000030 .L0 
     /tmp/ccU0Vq4y.s:63     .text:0000000000000030 .L0 
     /tmp/ccU0Vq4y.s:67     .text:0000000000000034 .L0 
     /tmp/ccU0Vq4y.s:69     .text:0000000000000038 .L0 
     /tmp/ccU0Vq4y.s:73     .text:000000000000003c .L0 
     /tmp/ccU0Vq4y.s:74     .text:000000000000003c .L0 
     /tmp/ccU0Vq4y.s:75     .text:000000000000003c .L0 
    src/../h/RiscV.h:126    .text:000000000000003c .L0 
     /tmp/ccU0Vq4y.s:83     .text:0000000000000044 .L0 
     /tmp/ccU0Vq4y.s:84     .text:0000000000000044 .L0 
     /tmp/ccU0Vq4y.s:88     .text:0000000000000048 .L0 
     /tmp/ccU0Vq4y.s:92     .text:000000000000004c .L0 
     /tmp/ccU0Vq4y.s:93     .text:000000000000004c .L0 
     /tmp/ccU0Vq4y.s:94     .text:000000000000004c .L0 
    src/../h/RiscV.h:106    .text:000000000000004c .L0 
     /tmp/ccU0Vq4y.s:102    .text:0000000000000054 .L0 
     /tmp/ccU0Vq4y.s:103    .text:0000000000000054 .L0 
     /tmp/ccU0Vq4y.s:108    .text:0000000000000058 .L0 
     /tmp/ccU0Vq4y.s:110    .text:0000000000000058 .L0 
     /tmp/ccU0Vq4y.s:117    .text:0000000000000064 .L0 
     /tmp/ccU0Vq4y.s:118    .text:0000000000000064 .L0 
     /tmp/ccU0Vq4y.s:123    .text:0000000000000068 .L0 
    src/../h/RiscV.h:131    .text:0000000000000068 .L0 
     /tmp/ccU0Vq4y.s:133    .text:000000000000006c .L0 
     /tmp/ccU0Vq4y.s:134    .text:000000000000006c .L0 
     /tmp/ccU0Vq4y.s:139    .text:0000000000000070 .L0 
    src/../h/RiscV.h:81     .text:0000000000000070 .L0 
     /tmp/ccU0Vq4y.s:150    .text:0000000000000074 .L0 
     /tmp/ccU0Vq4y.s:151    .text:0000000000000078 .L0 
     /tmp/ccU0Vq4y.s:152    .text:0000000000000078 .L0 
     /tmp/ccU0Vq4y.s:154    .text:000000000000007c .L0 
     /tmp/ccU0Vq4y.s:155    .text:000000000000007c .L0 
     /tmp/ccU0Vq4y.s:157    .text:0000000000000080 .L0 
     /tmp/ccU0Vq4y.s:161    .text:0000000000000084 .L0 
     /tmp/ccU0Vq4y.s:165    .text:0000000000000084 .L0 
GAS LISTING /tmp/ccU0Vq4y.s 			page 12


     /tmp/ccU0Vq4y.s:166    .text:0000000000000084 .L0 
     /tmp/ccU0Vq4y.s:167    .text:0000000000000084 .L0 
src/interruptHandlers.cpp:28     .text:0000000000000084 .L0 
     /tmp/ccU0Vq4y.s:174    .text:0000000000000088 .L0 
     /tmp/ccU0Vq4y.s:176    .text:0000000000000088 .L0 
     /tmp/ccU0Vq4y.s:179    .text:0000000000000090 .L0 
src/interruptHandlers.cpp:30     .text:0000000000000090 .L0 
     /tmp/ccU0Vq4y.s:185    .text:0000000000000094 .L0 
src/interruptHandlers.cpp:31     .text:0000000000000094 .L0 
     /tmp/ccU0Vq4y.s:191    .text:0000000000000098 .L0 
     /tmp/ccU0Vq4y.s:195    .text:000000000000009c .L0 
     /tmp/ccU0Vq4y.s:196    .text:000000000000009c .L0 
     /tmp/ccU0Vq4y.s:197    .text:000000000000009c .L0 
src/interruptHandlers.cpp:35     .text:000000000000009c .L0 
     /tmp/ccU0Vq4y.s:204    .text:00000000000000a0 .L0 
     /tmp/ccU0Vq4y.s:206    .text:00000000000000a0 .L0 
     /tmp/ccU0Vq4y.s:209    .text:00000000000000a8 .L0 
src/interruptHandlers.cpp:37     .text:00000000000000a8 .L0 
     /tmp/ccU0Vq4y.s:215    .text:00000000000000ac .L0 
src/interruptHandlers.cpp:38     .text:00000000000000ac .L0 
     /tmp/ccU0Vq4y.s:221    .text:00000000000000b0 .L0 
     /tmp/ccU0Vq4y.s:224    .text:00000000000000b4 .L0 
     /tmp/ccU0Vq4y.s:230    .text:00000000000000b4 _ZN17interruptHandlers22handleConsoleInterruptEv
     /tmp/ccU0Vq4y.s:233    .text:00000000000000b4 .L0 
     /tmp/ccU0Vq4y.s:234    .text:00000000000000b4 .L0 
     /tmp/ccU0Vq4y.s:235    .text:00000000000000b8 .L0 
     /tmp/ccU0Vq4y.s:238    .text:00000000000000c0 .L0 
     /tmp/ccU0Vq4y.s:239    .text:00000000000000c0 .L0 
     /tmp/ccU0Vq4y.s:241    .text:00000000000000c4 .L0 
     /tmp/ccU0Vq4y.s:243    .text:00000000000000c4 .L0 
     /tmp/ccU0Vq4y.s:244    .text:00000000000000c4 .L0 
     /tmp/ccU0Vq4y.s:247    .text:00000000000000cc .L0 
     /tmp/ccU0Vq4y.s:248    .text:00000000000000d0 .L0 
     /tmp/ccU0Vq4y.s:250    .text:00000000000000d4 .L0 
     /tmp/ccU0Vq4y.s:251    .text:00000000000000d4 .L0 
     /tmp/ccU0Vq4y.s:253    .text:00000000000000d8 .L0 
     /tmp/ccU0Vq4y.s:255    .text:00000000000000dc .L0 
     /tmp/ccU0Vq4y.s:261    .text:00000000000000dc _ZN17interruptHandlers20handleTimerInterruptEv
     /tmp/ccU0Vq4y.s:264    .text:00000000000000dc .L0 
     /tmp/ccU0Vq4y.s:265    .text:00000000000000dc .L0 
     /tmp/ccU0Vq4y.s:266    .text:00000000000000e0 .L0 
     /tmp/ccU0Vq4y.s:268    .text:00000000000000e4 .L0 
     /tmp/ccU0Vq4y.s:270    .text:00000000000000e8 .L0 
     /tmp/ccU0Vq4y.s:275    .text:00000000000000e8 .L0 
     /tmp/ccU0Vq4y.s:276    .text:00000000000000e8 .L0 
     /tmp/ccU0Vq4y.s:277    .text:00000000000000e8 .L0 
     /tmp/ccU0Vq4y.s:287    .text:00000000000000f0 .L0 
     /tmp/ccU0Vq4y.s:288    .text:00000000000000f4 .L0 
     /tmp/ccU0Vq4y.s:289    .text:00000000000000f4 .L0 
     /tmp/ccU0Vq4y.s:291    .text:00000000000000f8 .L0 
     /tmp/ccU0Vq4y.s:293    .text:00000000000000fc .L0 
     /tmp/ccU0Vq4y.s:301    .text:00000000000000fc .L0 
     /tmp/ccU0Vq4y.s:146    .text:0000000000000074 .L1
     /tmp/ccU0Vq4y.s:160    .text:0000000000000084 .L3
     /tmp/ccU0Vq4y.s:193    .text:000000000000009c .L4
     /tmp/ccU0Vq4y.s:114    .text:0000000000000064 .L5
     /tmp/ccU0Vq4y.s:1448   .debug_abbrev:0000000000000000 .Ldebug_abbrev0
GAS LISTING /tmp/ccU0Vq4y.s 			page 13


     /tmp/ccU0Vq4y.s:2645   .debug_str:0000000000000737 .LASF136
     /tmp/ccU0Vq4y.s:2413   .debug_str:0000000000000013 .LASF137
     /tmp/ccU0Vq4y.s:2701   .debug_str:00000000000009ac .LASF138
     /tmp/ccU0Vq4y.s:5      .text:0000000000000000 .Ltext0
     /tmp/ccU0Vq4y.s:296    .text:00000000000000fc .Letext0
     /tmp/ccU0Vq4y.s:2409   .debug_line:0000000000000000 .Ldebug_line0
     /tmp/ccU0Vq4y.s:2561   .debug_str:000000000000052d .LASF0
     /tmp/ccU0Vq4y.s:2577   .debug_str:0000000000000597 .LASF1
     /tmp/ccU0Vq4y.s:2541   .debug_str:000000000000045b .LASF2
     /tmp/ccU0Vq4y.s:2509   .debug_str:000000000000033c .LASF4
     /tmp/ccU0Vq4y.s:2619   .debug_str:0000000000000692 .LASF3
     /tmp/ccU0Vq4y.s:2439   .debug_str:00000000000000b2 .LASF5
     /tmp/ccU0Vq4y.s:2581   .debug_str:00000000000005bf .LASF6
     /tmp/ccU0Vq4y.s:2559   .debug_str:000000000000051a .LASF7
     /tmp/ccU0Vq4y.s:2669   .debug_str:00000000000008a4 .LASF8
     /tmp/ccU0Vq4y.s:2501   .debug_str:0000000000000301 .LASF9
     /tmp/ccU0Vq4y.s:2591   .debug_str:00000000000005f0 .LASF10
     /tmp/ccU0Vq4y.s:2649   .debug_str:0000000000000802 .LASF11
     /tmp/ccU0Vq4y.s:2443   .debug_str:00000000000000c5 .LASF12
     /tmp/ccU0Vq4y.s:2415   .debug_str:000000000000002d .LASF13
     /tmp/ccU0Vq4y.s:2449   .debug_str:00000000000000f5 .LASF14
     /tmp/ccU0Vq4y.s:2609   .debug_str:0000000000000650 .LASF15
     /tmp/ccU0Vq4y.s:2465   .debug_str:0000000000000184 .LASF16
     /tmp/ccU0Vq4y.s:2635   .debug_str:0000000000000704 .LASF40
     /tmp/ccU0Vq4y.s:2565   .debug_str:0000000000000542 .LASF71
     /tmp/ccU0Vq4y.s:2573   .debug_str:0000000000000584 .LASF17
     /tmp/ccU0Vq4y.s:2453   .debug_str:000000000000010a .LASF18
     /tmp/ccU0Vq4y.s:2507   .debug_str:0000000000000331 .LASF19
     /tmp/ccU0Vq4y.s:2673   .debug_str:00000000000008bb .LASF21
     /tmp/ccU0Vq4y.s:2567   .debug_str:000000000000054e .LASF102
     /tmp/ccU0Vq4y.s:2691   .debug_str:0000000000000978 .LASF20
     /tmp/ccU0Vq4y.s:2633   .debug_str:00000000000006e7 .LASF22
     /tmp/ccU0Vq4y.s:2605   .debug_str:0000000000000637 .LASF23
     /tmp/ccU0Vq4y.s:2685   .debug_str:0000000000000938 .LASF24
     /tmp/ccU0Vq4y.s:2469   .debug_str:00000000000001b5 .LASF25
     /tmp/ccU0Vq4y.s:2485   .debug_str:000000000000025c .LASF26
     /tmp/ccU0Vq4y.s:2533   .debug_str:0000000000000416 .LASF27
     /tmp/ccU0Vq4y.s:2435   .debug_str:000000000000008d .LASF28
     /tmp/ccU0Vq4y.s:2583   .debug_str:00000000000005d2 .LASF29
     /tmp/ccU0Vq4y.s:2571   .debug_str:000000000000056c .LASF30
     /tmp/ccU0Vq4y.s:2587   .debug_str:00000000000005df .LASF31
     /tmp/ccU0Vq4y.s:2423   .debug_str:000000000000005f .LASF32
     /tmp/ccU0Vq4y.s:2479   .debug_str:000000000000021d .LASF33
     /tmp/ccU0Vq4y.s:2657   .debug_str:000000000000084d .LASF34
     /tmp/ccU0Vq4y.s:2639   .debug_str:0000000000000711 .LASF35
     /tmp/ccU0Vq4y.s:2695   .debug_str:000000000000098e .LASF36
     /tmp/ccU0Vq4y.s:2683   .debug_str:0000000000000933 .LASF37
     /tmp/ccU0Vq4y.s:2599   .debug_str:0000000000000616 .LASF38
     /tmp/ccU0Vq4y.s:2617   .debug_str:000000000000068b .LASF39
     /tmp/ccU0Vq4y.s:2615   .debug_str:000000000000067b .LASF42
     /tmp/ccU0Vq4y.s:2433   .debug_str:0000000000000084 .LASF41
     /tmp/ccU0Vq4y.s:2653   .debug_str:000000000000081a .LASF43
     /tmp/ccU0Vq4y.s:2655   .debug_str:0000000000000841 .LASF44
     /tmp/ccU0Vq4y.s:2527   .debug_str:00000000000003c4 .LASF45
     /tmp/ccU0Vq4y.s:2593   .debug_str:00000000000005ff .LASF46
     /tmp/ccU0Vq4y.s:2519   .debug_str:0000000000000387 .LASF47
     /tmp/ccU0Vq4y.s:2623   .debug_str:00000000000006ae .LASF48
GAS LISTING /tmp/ccU0Vq4y.s 			page 14


     /tmp/ccU0Vq4y.s:2661   .debug_str:0000000000000861 .LASF49
     /tmp/ccU0Vq4y.s:2451   .debug_str:0000000000000101 .LASF50
     /tmp/ccU0Vq4y.s:2503   .debug_str:000000000000030f .LASF51
     /tmp/ccU0Vq4y.s:2417   .debug_str:000000000000003d .LASF52
     /tmp/ccU0Vq4y.s:2491   .debug_str:0000000000000294 .LASF53
     /tmp/ccU0Vq4y.s:2643   .debug_str:000000000000072e .LASF54
     /tmp/ccU0Vq4y.s:2689   .debug_str:000000000000095c .LASF55
     /tmp/ccU0Vq4y.s:2631   .debug_str:00000000000006de .LASF56
     /tmp/ccU0Vq4y.s:2549   .debug_str:000000000000049e .LASF57
     /tmp/ccU0Vq4y.s:2493   .debug_str:00000000000002b1 .LASF58
     /tmp/ccU0Vq4y.s:2535   .debug_str:0000000000000423 .LASF59
     /tmp/ccU0Vq4y.s:2489   .debug_str:0000000000000288 .LASF60
     /tmp/ccU0Vq4y.s:2585   .debug_str:00000000000005da .LASF121
     /tmp/ccU0Vq4y.s:2553   .debug_str:00000000000004e5 .LASF123
     /tmp/ccU0Vq4y.s:2431   .debug_str:000000000000007a .LASF61
     /tmp/ccU0Vq4y.s:2427   .debug_str:000000000000006a .LASF62
     /tmp/ccU0Vq4y.s:2589   .debug_str:00000000000005e4 .LASF63
     /tmp/ccU0Vq4y.s:2687   .debug_str:0000000000000957 .LASF64
     /tmp/ccU0Vq4y.s:2699   .debug_str:00000000000009a6 .LASF65
     /tmp/ccU0Vq4y.s:2663   .debug_str:000000000000087b .LASF139
     /tmp/ccU0Vq4y.s:2547   .debug_str:0000000000000494 .LASF140
     /tmp/ccU0Vq4y.s:2467   .debug_str:000000000000019a .LASF141
     /tmp/ccU0Vq4y.s:2621   .debug_str:00000000000006a4 .LASF66
     /tmp/ccU0Vq4y.s:2677   .debug_str:00000000000008ec .LASF67
     /tmp/ccU0Vq4y.s:2481   .debug_str:0000000000000224 .LASF68
     /tmp/ccU0Vq4y.s:2499   .debug_str:00000000000002e0 .LASF69
     /tmp/ccU0Vq4y.s:2537   .debug_str:0000000000000433 .LASF70
     /tmp/ccU0Vq4y.s:2429   .debug_str:0000000000000072 .LASF72
     /tmp/ccU0Vq4y.s:2625   .debug_str:00000000000006b5 .LASF73
     /tmp/ccU0Vq4y.s:2521   .debug_str:00000000000003a1 .LASF74
     /tmp/ccU0Vq4y.s:2525   .debug_str:00000000000003b5 .LASF75
     /tmp/ccU0Vq4y.s:2463   .debug_str:0000000000000178 .LASF76
     /tmp/ccU0Vq4y.s:2487   .debug_str:000000000000027b .LASF77
     /tmp/ccU0Vq4y.s:2441   .debug_str:00000000000000b9 .LASF78
     /tmp/ccU0Vq4y.s:2523   .debug_str:00000000000003aa .LASF79
     /tmp/ccU0Vq4y.s:2595   .debug_str:0000000000000606 .LASF80
     /tmp/ccU0Vq4y.s:2517   .debug_str:000000000000037e .LASF81
     /tmp/ccU0Vq4y.s:2607   .debug_str:0000000000000645 .LASF82
     /tmp/ccU0Vq4y.s:2495   .debug_str:00000000000002b6 .LASF84
     /tmp/ccU0Vq4y.s:2611   .debug_str:0000000000000666 .LASF83
     /tmp/ccU0Vq4y.s:2543   .debug_str:0000000000000469 .LASF85
     /tmp/ccU0Vq4y.s:2557   .debug_str:0000000000000512 .LASF88
     /tmp/ccU0Vq4y.s:2421   .debug_str:000000000000004b .LASF90
     /tmp/ccU0Vq4y.s:2563   .debug_str:000000000000053a .LASF86
     /tmp/ccU0Vq4y.s:2471   .debug_str:00000000000001c3 .LASF87
     /tmp/ccU0Vq4y.s:2569   .debug_str:0000000000000566 .LASF89
     /tmp/ccU0Vq4y.s:2497   .debug_str:00000000000002ce .LASF91
     /tmp/ccU0Vq4y.s:2665   .debug_str:0000000000000897 .LASF92
     /tmp/ccU0Vq4y.s:2461   .debug_str:0000000000000166 .LASF93
     /tmp/ccU0Vq4y.s:2659   .debug_str:000000000000085a .LASF94
     /tmp/ccU0Vq4y.s:2513   .debug_str:0000000000000356 .LASF95
     /tmp/ccU0Vq4y.s:2667   .debug_str:000000000000089d .LASF96
     /tmp/ccU0Vq4y.s:2697   .debug_str:0000000000000993 .LASF97
     /tmp/ccU0Vq4y.s:2457   .debug_str:000000000000013d .LASF98
     /tmp/ccU0Vq4y.s:2411   .debug_str:0000000000000000 .LASF99
     /tmp/ccU0Vq4y.s:2613   .debug_str:0000000000000674 .LASF100
     /tmp/ccU0Vq4y.s:2511   .debug_str:0000000000000343 .LASF101
GAS LISTING /tmp/ccU0Vq4y.s 			page 15


     /tmp/ccU0Vq4y.s:2445   .debug_str:00000000000000d5 .LASF104
     /tmp/ccU0Vq4y.s:2545   .debug_str:0000000000000484 .LASF103
     /tmp/ccU0Vq4y.s:2447   .debug_str:00000000000000e5 .LASF105
     /tmp/ccU0Vq4y.s:2641   .debug_str:000000000000071e .LASF106
     /tmp/ccU0Vq4y.s:2627   .debug_str:00000000000006be .LASF107
     /tmp/ccU0Vq4y.s:2679   .debug_str:000000000000090d .LASF108
     /tmp/ccU0Vq4y.s:2651   .debug_str:0000000000000811 .LASF109
     /tmp/ccU0Vq4y.s:2515   .debug_str:0000000000000369 .LASF110
     /tmp/ccU0Vq4y.s:2693   .debug_str:0000000000000983 .LASF111
     /tmp/ccU0Vq4y.s:2551   .debug_str:00000000000004ba .LASF112
     /tmp/ccU0Vq4y.s:2575   .debug_str:000000000000058c .LASF113
     /tmp/ccU0Vq4y.s:2455   .debug_str:0000000000000112 .LASF114
     /tmp/ccU0Vq4y.s:2425   .debug_str:0000000000000065 .LASF115
     /tmp/ccU0Vq4y.s:2555   .debug_str:0000000000000501 .LASF116
     /tmp/ccU0Vq4y.s:2477   .debug_str:0000000000000218 .LASF117
     /tmp/ccU0Vq4y.s:2681   .debug_str:0000000000000922 .LASF118
     /tmp/ccU0Vq4y.s:2597   .debug_str:000000000000060f .LASF119
     /tmp/ccU0Vq4y.s:2459   .debug_str:0000000000000144 .LASF120
     /tmp/ccU0Vq4y.s:2437   .debug_str:00000000000000ab .LASF142
     /tmp/ccU0Vq4y.s:2539   .debug_str:0000000000000439 .LASF143
     /tmp/ccU0Vq4y.s:2601   .debug_str:000000000000061d .LASF144
     /tmp/ccU0Vq4y.s:2579   .debug_str:00000000000005aa .LASF122
     /tmp/ccU0Vq4y.s:2529   .debug_str:00000000000003e2 .LASF124
     /tmp/ccU0Vq4y.s:2629   .debug_str:00000000000006c7 .LASF125
     /tmp/ccU0Vq4y.s:2473   .debug_str:00000000000001d7 .LASF126
     /tmp/ccU0Vq4y.s:2675   .debug_str:00000000000008d7 .LASF127
     /tmp/ccU0Vq4y.s:2483   .debug_str:000000000000022d .LASF128
     /tmp/ccU0Vq4y.s:262    .text:00000000000000dc .LFB27
     /tmp/ccU0Vq4y.s:294    .text:00000000000000fc .LFE27
     /tmp/ccU0Vq4y.s:273    .text:00000000000000e8 .LBB33
     /tmp/ccU0Vq4y.s:285    .text:00000000000000f0 .LBE33
     /tmp/ccU0Vq4y.s:2321   .debug_loc:0000000000000000 .LLST7
     /tmp/ccU0Vq4y.s:231    .text:00000000000000b4 .LFB26
     /tmp/ccU0Vq4y.s:256    .text:00000000000000dc .LFE26
     /tmp/ccU0Vq4y.s:245    .text:00000000000000cc .LVL15
     /tmp/ccU0Vq4y.s:10     .text:0000000000000000 .LFB25
     /tmp/ccU0Vq4y.s:225    .text:00000000000000b4 .LFE25
     /tmp/ccU0Vq4y.s:2419   .debug_str:0000000000000044 .LASF129
     /tmp/ccU0Vq4y.s:2329   .debug_loc:0000000000000024 .LLST0
     /tmp/ccU0Vq4y.s:2637   .debug_str:000000000000070c .LASF130
     /tmp/ccU0Vq4y.s:2603   .debug_str:000000000000062f .LASF131
     /tmp/ccU0Vq4y.s:2647   .debug_str:00000000000007fb .LASF132
     /tmp/ccU0Vq4y.s:2342   .debug_loc:000000000000005c .LLST1
     /tmp/ccU0Vq4y.s:2671   .debug_str:00000000000008b4 .LASF133
     /tmp/ccU0Vq4y.s:2357   .debug_loc:00000000000000a5 .LLST2
     /tmp/ccU0Vq4y.s:163    .text:0000000000000084 .LBB27
     /tmp/ccU0Vq4y.s:222    .text:00000000000000b4 .LBE27
     /tmp/ccU0Vq4y.s:2531   .debug_str:0000000000000411 .LASF134
     /tmp/ccU0Vq4y.s:2368   .debug_loc:00000000000000db .LLST3
     /tmp/ccU0Vq4y.s:2375   .debug_loc:00000000000000fe .LLST4
     /tmp/ccU0Vq4y.s:177    .text:0000000000000090 .LVL11
     /tmp/ccU0Vq4y.s:207    .text:00000000000000a8 .LVL14
     /tmp/ccU0Vq4y.s:23     .text:0000000000000010 .LBB18
     /tmp/ccU0Vq4y.s:40     .text:000000000000001c .LBE18
     /tmp/ccU0Vq4y.s:49     .text:0000000000000028 .LBB20
     /tmp/ccU0Vq4y.s:65     .text:0000000000000034 .LBE20
     /tmp/ccU0Vq4y.s:71     .text:000000000000003c .LBB22
GAS LISTING /tmp/ccU0Vq4y.s 			page 16


     /tmp/ccU0Vq4y.s:86     .text:0000000000000048 .LBE22
     /tmp/ccU0Vq4y.s:90     .text:000000000000004c .LBB24
     /tmp/ccU0Vq4y.s:106    .text:0000000000000058 .LBE24
     /tmp/ccU0Vq4y.s:120    .text:0000000000000068 .LBB28
     /tmp/ccU0Vq4y.s:131    .text:000000000000006c .LBE28
     /tmp/ccU0Vq4y.s:2382   .debug_loc:0000000000000121 .LLST5
     /tmp/ccU0Vq4y.s:136    .text:0000000000000070 .LBB30
     /tmp/ccU0Vq4y.s:148    .text:0000000000000074 .LBE30
     /tmp/ccU0Vq4y.s:2389   .debug_loc:0000000000000144 .LLST6
     /tmp/ccU0Vq4y.s:2505   .debug_str:000000000000032c .LASF135
     /tmp/ccU0Vq4y.s:2475   .debug_str:0000000000000208 .LASF145
     /tmp/ccU0Vq4y.s:272    .text:00000000000000e8 .LVL16
     /tmp/ccU0Vq4y.s:282    .text:00000000000000f0 .LVL17
     /tmp/ccU0Vq4y.s:38     .text:000000000000001c .LVL0
     /tmp/ccU0Vq4y.s:44     .text:0000000000000020 .LVL1
     /tmp/ccU0Vq4y.s:58     .text:000000000000002c .LVL2
     /tmp/ccU0Vq4y.s:104    .text:0000000000000058 .LVL3
     /tmp/ccU0Vq4y.s:113    .text:0000000000000064 .LVL4
     /tmp/ccU0Vq4y.s:159    .text:0000000000000084 .LVL9
     /tmp/ccU0Vq4y.s:192    .text:000000000000009c .LVL12
     /tmp/ccU0Vq4y.s:172    .text:0000000000000088 .LVL10
     /tmp/ccU0Vq4y.s:202    .text:00000000000000a0 .LVL13
     /tmp/ccU0Vq4y.s:119    .text:0000000000000068 .LVL5
     /tmp/ccU0Vq4y.s:128    .text:000000000000006c .LVL6
     /tmp/ccU0Vq4y.s:135    .text:0000000000000070 .LVL7
     /tmp/ccU0Vq4y.s:144    .text:0000000000000074 .LVL8
     /tmp/ccU0Vq4y.s:302    .debug_info:0000000000000000 .Ldebug_info0

UNDEFINED SYMBOLS
_ZN15MemoryAllocator9mem_allocEm
_ZN15MemoryAllocator8mem_freeEPv
console_handler
