GAS LISTING /tmp/ccH2P97h.s 			page 1


   1              		.file	"main.cpp"
   2              		.option pic
   3              		.option norelax
   4              		.text
   5              	.Ltext0:
   6              		.section	.text._ZN5RiscV13setStvecTableEv,"axG",@progbits,_ZN5RiscV13setStvecTableEv,comdat
   7              		.align	2
   8              		.weak	_ZN5RiscV13setStvecTableEv
  10              	_ZN5RiscV13setStvecTableEv:
  11              	.LFB0:
  12              		.file 1 "src/../h/../h/RiscV.h"
   1:src/../h/../h/RiscV.h **** //
   2:src/../h/../h/RiscV.h **** // Created by os on 5/4/24.
   3:src/../h/../h/RiscV.h **** //
   4:src/../h/../h/RiscV.h **** 
   5:src/../h/../h/RiscV.h **** #ifndef PROJEKAT_RISCV_H
   6:src/../h/../h/RiscV.h **** #define PROJEKAT_RISCV_H
   7:src/../h/../h/RiscV.h **** 
   8:src/../h/../h/RiscV.h **** #include "../lib/hw.h"
   9:src/../h/../h/RiscV.h **** 
  10:src/../h/../h/RiscV.h **** class RiscV {
  11:src/../h/../h/RiscV.h **** public:
  12:src/../h/../h/RiscV.h ****     static void popSppSpie();
  13:src/../h/../h/RiscV.h ****     static void setStvecTable(){}
  13              		.loc 1 13 17
  14              		.cfi_startproc
  15 0000 130101FF 		addi	sp,sp,-16
  16              		.cfi_def_cfa_offset 16
  17 0004 23348100 		sd	s0,8(sp)
  18              		.cfi_offset 8, -8
  19 0008 13040101 		addi	s0,sp,16
  20              		.cfi_def_cfa 8, 0
  21              		.loc 1 13 33 is_stmt 0
  22 000c 03348100 		ld	s0,8(sp)
  23              		.cfi_restore 8
  24              		.cfi_def_cfa 2, 16
  25 0010 13010101 		addi	sp,sp,16
  26              		.cfi_def_cfa_offset 0
  27 0014 67800000 		jr	ra
  28              		.cfi_endproc
  29              	.LFE0:
  31              		.text
  32              		.align	2
  33              		.globl	main
  35              	main:
  36              	.LFB34:
  37              		.file 2 "src/main.cpp"
   1:src/main.cpp  **** //
   2:src/main.cpp  **** // Created by os on 5/1/24.
   3:src/main.cpp  **** //
   4:src/main.cpp  **** 
   5:src/main.cpp  **** #include "../lib/console.h"
   6:src/main.cpp  **** #include "../h/syscall_c.h"
   7:src/main.cpp  **** #include "../h/syscall_cpp.h"
   8:src/main.cpp  **** #include "../h/Scheduler.h"
   9:src/main.cpp  **** 
  10:src/main.cpp  **** class TCB {
GAS LISTING /tmp/ccH2P97h.s 			page 2


  11:src/main.cpp  **** public:
  12:src/main.cpp  ****     uint64 i;
  13:src/main.cpp  ****     uint64 s = 0;
  14:src/main.cpp  ****     uint64 a = 0;
  15:src/main.cpp  ****     explicit TCB(int k) : i(k) {}
  16:src/main.cpp  **** };
  17:src/main.cpp  **** 
  18:src/main.cpp  **** 
  19:src/main.cpp  **** int main() {
  38              		.loc 2 19 12 is_stmt 1
  39              		.cfi_startproc
  40 0000 130101FB 		addi	sp,sp,-80
  41              		.cfi_def_cfa_offset 80
  42 0004 23341104 		sd	ra,72(sp)
  43 0008 23308104 		sd	s0,64(sp)
  44 000c 233C9102 		sd	s1,56(sp)
  45 0010 23382103 		sd	s2,48(sp)
  46 0014 23343103 		sd	s3,40(sp)
  47 0018 23304103 		sd	s4,32(sp)
  48 001c 233C5101 		sd	s5,24(sp)
  49 0020 23386101 		sd	s6,16(sp)
  50              		.cfi_offset 1, -8
  51              		.cfi_offset 8, -16
  52              		.cfi_offset 9, -24
  53              		.cfi_offset 18, -32
  54              		.cfi_offset 19, -40
  55              		.cfi_offset 20, -48
  56              		.cfi_offset 21, -56
  57              		.cfi_offset 22, -64
  58 0024 13040105 		addi	s0,sp,80
  59              		.cfi_def_cfa 8, 0
  20:src/main.cpp  **** 
  21:src/main.cpp  ****     RiscV::stvecW((uint64)&RiscV::setStvecTable | 0x01);
  60              		.loc 2 21 5
  61              		.loc 2 21 18 is_stmt 0
  62 0028 97070000 		lla	a5,_ZN5RiscV13setStvecTableEv
  62      93870700 
  63 0030 93E71700 		ori	a5,a5,1
  64              	.LVL0:
  65              	.LBB27:
  66              	.LBB28:
  14:src/../h/../h/RiscV.h **** 
  15:src/../h/../h/RiscV.h ****     enum CodeOps{
  16:src/../h/../h/RiscV.h ****         MEM_ALOC = 0x01,
  17:src/../h/../h/RiscV.h ****         MEM_FREE = 0x02
  18:src/../h/../h/RiscV.h ****     };
  19:src/../h/../h/RiscV.h **** 
  20:src/../h/../h/RiscV.h ****     enum BitMaskSStatus {
  21:src/../h/../h/RiscV.h ****         SSTATUS_SIE = 1 << 1,
  22:src/../h/../h/RiscV.h ****         SSTATUS_SPIE = 1 << 5,
  23:src/../h/../h/RiscV.h ****         SSTATUS_SPP = 1 << 8
  24:src/../h/../h/RiscV.h ****     };
  25:src/../h/../h/RiscV.h **** 
  26:src/../h/../h/RiscV.h ****     enum BitMaskSip {
  27:src/../h/../h/RiscV.h ****         SIP_SSIP = 1 << 1,
  28:src/../h/../h/RiscV.h ****         SIP_SEIP = 1 << 9
  29:src/../h/../h/RiscV.h ****     };
GAS LISTING /tmp/ccH2P97h.s 			page 3


  30:src/../h/../h/RiscV.h **** 
  31:src/../h/../h/RiscV.h ****     static uint64 scauseR();
  32:src/../h/../h/RiscV.h ****     static void scauseW(uint64 scause);
  33:src/../h/../h/RiscV.h **** 
  34:src/../h/../h/RiscV.h ****     static uint64 sepcR();
  35:src/../h/../h/RiscV.h ****     static void sepcW(uint64);
  36:src/../h/../h/RiscV.h **** 
  37:src/../h/../h/RiscV.h ****     static uint64 stvecR();
  38:src/../h/../h/RiscV.h ****     static void stvecW(uint64 stvec);
  39:src/../h/../h/RiscV.h **** 
  40:src/../h/../h/RiscV.h ****     static uint64 stvalR();
  41:src/../h/../h/RiscV.h ****     static void stvalW(uint64 stval);
  42:src/../h/../h/RiscV.h **** 
  43:src/../h/../h/RiscV.h ****     static uint64 a0R();
  44:src/../h/../h/RiscV.h ****     static void a0W(uint64 val);
  45:src/../h/../h/RiscV.h ****     static uint64 a1R();
  46:src/../h/../h/RiscV.h ****     static void a1W(uint64 val);
  47:src/../h/../h/RiscV.h **** 
  48:src/../h/../h/RiscV.h **** 
  49:src/../h/../h/RiscV.h **** 
  50:src/../h/../h/RiscV.h ****     static uint64 sstatusR();
  51:src/../h/../h/RiscV.h ****     static void sstatusW(uint64 sstatus);
  52:src/../h/../h/RiscV.h **** 
  53:src/../h/../h/RiscV.h ****     static void ms_sstatus(BitMaskSStatus mask);
  54:src/../h/../h/RiscV.h ****     static void mc_sstatus(BitMaskSStatus mask);
  55:src/../h/../h/RiscV.h **** 
  56:src/../h/../h/RiscV.h **** 
  57:src/../h/../h/RiscV.h ****     static uint64 sipR();
  58:src/../h/../h/RiscV.h ****     static void sipW(uint64);
  59:src/../h/../h/RiscV.h **** 
  60:src/../h/../h/RiscV.h ****     static void ms_sip(BitMaskSip mask);
  61:src/../h/../h/RiscV.h ****     static void mc_sip(BitMaskSip mask);
  62:src/../h/../h/RiscV.h **** };
  63:src/../h/../h/RiscV.h **** 
  64:src/../h/../h/RiscV.h **** inline uint64 RiscV::scauseR() {
  65:src/../h/../h/RiscV.h ****     uint64 volatile scause;
  66:src/../h/../h/RiscV.h ****     __asm__ volatile ("csrr %[scause], scause" : [scause] "=r"(scause));
  67:src/../h/../h/RiscV.h ****     return scause;
  68:src/../h/../h/RiscV.h **** }
  69:src/../h/../h/RiscV.h **** 
  70:src/../h/../h/RiscV.h **** inline void RiscV::scauseW(uint64 scause) {
  71:src/../h/../h/RiscV.h ****     __asm__ volatile ("csrw scause, %[scause]" : : [scause] "r"(scause));
  72:src/../h/../h/RiscV.h **** }
  73:src/../h/../h/RiscV.h **** 
  74:src/../h/../h/RiscV.h **** inline uint64 RiscV::sepcR() {
  75:src/../h/../h/RiscV.h ****     uint64 volatile sepc;
  76:src/../h/../h/RiscV.h ****     __asm__ volatile ("csrr %[sepc], sepc" : [sepc] "=r"(sepc));
  77:src/../h/../h/RiscV.h ****     return sepc;
  78:src/../h/../h/RiscV.h **** }
  79:src/../h/../h/RiscV.h **** 
  80:src/../h/../h/RiscV.h **** inline void RiscV::sepcW(uint64 sepc) {
  81:src/../h/../h/RiscV.h ****     __asm__ volatile ("csrw sepc, %[sepc]" : : [sepc] "r"(sepc));
  82:src/../h/../h/RiscV.h **** }
  83:src/../h/../h/RiscV.h **** 
  84:src/../h/../h/RiscV.h **** inline uint64 RiscV::stvecR() {
  85:src/../h/../h/RiscV.h ****     uint64 volatile stvec;
  86:src/../h/../h/RiscV.h ****     __asm__ volatile ("csrr %[stvec], stvec" : [stvec] "=r"(stvec));
GAS LISTING /tmp/ccH2P97h.s 			page 4


  87:src/../h/../h/RiscV.h ****     return stvec;
  88:src/../h/../h/RiscV.h **** }
  89:src/../h/../h/RiscV.h **** 
  90:src/../h/../h/RiscV.h **** inline void RiscV::stvecW(uint64 stvec) {
  91:src/../h/../h/RiscV.h ****     __asm__ volatile ("csrw stvec, %[stvec]" : : [stvec] "r"(stvec));
  67              		.loc 1 91 5 is_stmt 1
  68              		.loc 1 91 69 is_stmt 0
  69              	#APP
  70              	# 91 "src/../h/../h/RiscV.h" 1
  92              	}
  71              		csrw stvec, a5
  72              	# 0 "" 2
  73              	.LVL1:
  74              	#NO_APP
  75              	.LBE28:
  76              	.LBE27:
  22:src/main.cpp  **** 
  23:src/main.cpp  ****     Scheduler s;
  77              		.loc 2 23 5 is_stmt 1
  78              	.LBB29:
  79              	.LBB30:
  80              		.file 3 "src/../h/Scheduler.h"
   1:src/../h/Scheduler.h **** //
   2:src/../h/Scheduler.h **** // Created by os on 5/6/24.
   3:src/../h/Scheduler.h **** //
   4:src/../h/Scheduler.h **** 
   5:src/../h/Scheduler.h **** #ifndef PROJEKAT_SCHEDULER_H
   6:src/../h/Scheduler.h **** #define PROJEKAT_SCHEDULER_H
   7:src/../h/Scheduler.h **** 
   8:src/../h/Scheduler.h **** #include "Queue.h"
   9:src/../h/Scheduler.h **** 
  10:src/../h/Scheduler.h **** class TCB;
  11:src/../h/Scheduler.h **** 
  12:src/../h/Scheduler.h **** class Scheduler {
  81              		.loc 3 12 7 is_stmt 0
  82 0038 13058001 		li	a0,24
  83 003c 97000000 		call	_Znwm@plt
  83      E7800000 
  84              	.LVL2:
  85 0044 23300500 		sd	zero,0(a0)
  86 0048 23340500 		sd	zero,8(a0)
  87 004c 23380500 		sd	zero,16(a0)
  88 0050 233CA4FA 		sd	a0,-72(s0)
  89              	.LVL3:
  90              	.LBE30:
  91              	.LBE29:
  24:src/main.cpp  **** 
  25:src/main.cpp  ****     TCB* th1 = new TCB(55);
  92              		.loc 2 25 5 is_stmt 1
  93              		.loc 2 25 26 is_stmt 0
  94 0054 13058001 		li	a0,24
  95 0058 97000000 		call	_Znwm@plt
  95      E7800000 
  96              	.LVL4:
  97 0060 130B0500 		mv	s6,a0
  98              	.LVL5:
  99              	.LBB31:
GAS LISTING /tmp/ccH2P97h.s 			page 5


 100              	.LBB32:
  15:src/main.cpp  **** };
 101              		.loc 2 15 30
 102 0064 93077003 		li	a5,55
 103 0068 2330F500 		sd	a5,0(a0)
 104 006c 23340500 		sd	zero,8(a0)
 105 0070 23380500 		sd	zero,16(a0)
 106              	.LVL6:
 107              	.LBE32:
 108              	.LBE31:
  26:src/main.cpp  ****     TCB* th2 = new TCB(2);
 109              		.loc 2 26 5 is_stmt 1
 110              		.loc 2 26 25 is_stmt 0
 111 0074 13058001 		li	a0,24
 112              	.LVL7:
 113 0078 97000000 		call	_Znwm@plt
 113      E7800000 
 114              	.LVL8:
 115 0080 930A0500 		mv	s5,a0
 116              	.LVL9:
 117              	.LBB33:
 118              	.LBB34:
  15:src/main.cpp  **** };
 119              		.loc 2 15 30
 120 0084 93072000 		li	a5,2
 121 0088 2330F500 		sd	a5,0(a0)
 122 008c 23340500 		sd	zero,8(a0)
 123 0090 23380500 		sd	zero,16(a0)
 124              	.LVL10:
 125              	.LBE34:
 126              	.LBE33:
  27:src/main.cpp  ****     TCB* th3 = new TCB(3);
 127              		.loc 2 27 5 is_stmt 1
 128              		.loc 2 27 25 is_stmt 0
 129 0094 13058001 		li	a0,24
 130              	.LVL11:
 131 0098 97000000 		call	_Znwm@plt
 131      E7800000 
 132              	.LVL12:
 133 00a0 130A0500 		mv	s4,a0
 134              	.LVL13:
 135              	.LBB35:
 136              	.LBB36:
  15:src/main.cpp  **** };
 137              		.loc 2 15 30
 138 00a4 93073000 		li	a5,3
 139 00a8 2330F500 		sd	a5,0(a0)
 140 00ac 23340500 		sd	zero,8(a0)
 141 00b0 23380500 		sd	zero,16(a0)
 142              	.LVL14:
 143              	.LBE36:
 144              	.LBE35:
  28:src/main.cpp  ****     TCB* th4 = new TCB(4);
 145              		.loc 2 28 5 is_stmt 1
 146              		.loc 2 28 25 is_stmt 0
 147 00b4 13058001 		li	a0,24
 148              	.LVL15:
GAS LISTING /tmp/ccH2P97h.s 			page 6


 149 00b8 97000000 		call	_Znwm@plt
 149      E7800000 
 150              	.LVL16:
 151 00c0 93090500 		mv	s3,a0
 152              	.LVL17:
 153              	.LBB37:
 154              	.LBB38:
  15:src/main.cpp  **** };
 155              		.loc 2 15 30
 156 00c4 93074000 		li	a5,4
 157 00c8 2330F500 		sd	a5,0(a0)
 158 00cc 23340500 		sd	zero,8(a0)
 159 00d0 23380500 		sd	zero,16(a0)
 160              	.LVL18:
 161              	.LBE38:
 162              	.LBE37:
  29:src/main.cpp  ****     TCB* th5 = new TCB(5);
 163              		.loc 2 29 5 is_stmt 1
 164              		.loc 2 29 25 is_stmt 0
 165 00d4 13058001 		li	a0,24
 166              	.LVL19:
 167 00d8 97000000 		call	_Znwm@plt
 167      E7800000 
 168              	.LVL20:
 169 00e0 13090500 		mv	s2,a0
 170              	.LVL21:
 171              	.LBB39:
 172              	.LBB40:
  15:src/main.cpp  **** };
 173              		.loc 2 15 30
 174 00e4 93075000 		li	a5,5
 175 00e8 2330F500 		sd	a5,0(a0)
 176 00ec 23340500 		sd	zero,8(a0)
 177 00f0 23380500 		sd	zero,16(a0)
 178              	.LVL22:
 179              	.LBE40:
 180              	.LBE39:
  30:src/main.cpp  **** 
  31:src/main.cpp  ****     s.put(th1);
 181              		.loc 2 31 5 is_stmt 1
 182              		.loc 2 31 10 is_stmt 0
 183 00f4 93050B00 		mv	a1,s6
 184 00f8 930484FB 		addi	s1,s0,-72
 185 00fc 13850400 		mv	a0,s1
 186              	.LVL23:
 187 0100 97000000 		call	_ZN9Scheduler3putEP3TCB@plt
 187      E7800000 
 188              	.LVL24:
  32:src/main.cpp  ****     s.put(th2);
 189              		.loc 2 32 5 is_stmt 1
 190              		.loc 2 32 10 is_stmt 0
 191 0108 93850A00 		mv	a1,s5
 192 010c 13850400 		mv	a0,s1
 193 0110 97000000 		call	_ZN9Scheduler3putEP3TCB@plt
 193      E7800000 
 194              	.LVL25:
  33:src/main.cpp  ****     s.put(th3);
GAS LISTING /tmp/ccH2P97h.s 			page 7


 195              		.loc 2 33 5 is_stmt 1
 196              		.loc 2 33 10 is_stmt 0
 197 0118 93050A00 		mv	a1,s4
 198 011c 13850400 		mv	a0,s1
 199 0120 97000000 		call	_ZN9Scheduler3putEP3TCB@plt
 199      E7800000 
 200              	.LVL26:
  34:src/main.cpp  ****     s.put(th4);
 201              		.loc 2 34 5 is_stmt 1
 202              		.loc 2 34 10 is_stmt 0
 203 0128 93850900 		mv	a1,s3
 204 012c 13850400 		mv	a0,s1
 205 0130 97000000 		call	_ZN9Scheduler3putEP3TCB@plt
 205      E7800000 
 206              	.LVL27:
  35:src/main.cpp  ****     s.put(th5);
 207              		.loc 2 35 5 is_stmt 1
 208              		.loc 2 35 10 is_stmt 0
 209 0138 93050900 		mv	a1,s2
 210 013c 13850400 		mv	a0,s1
 211 0140 97000000 		call	_ZN9Scheduler3putEP3TCB@plt
 211      E7800000 
 212              	.LVL28:
  36:src/main.cpp  **** 
  37:src/main.cpp  ****     __putc((char)(s.get()->i + '0')); __putc('\n');
 213              		.loc 2 37 5 is_stmt 1
 214              		.loc 2 37 24 is_stmt 0
 215 0148 13850400 		mv	a0,s1
 216 014c 97000000 		call	_ZN9Scheduler3getEv@plt
 216      E7800000 
 217              	.LVL29:
 218              		.loc 2 37 28
 219 0154 03350500 		ld	a0,0(a0)
 220              		.loc 2 37 11
 221 0158 1B050503 		addiw	a0,a0,48
 222 015c 1375F50F 		andi	a0,a0,0xff
 223 0160 97000000 		call	__putc@plt
 223      E7800000 
 224              	.LVL30:
 225              		.loc 2 37 39 is_stmt 1
 226              		.loc 2 37 45 is_stmt 0
 227 0168 1305A000 		li	a0,10
 228 016c 97000000 		call	__putc@plt
 228      E7800000 
 229              	.LVL31:
  38:src/main.cpp  ****     __putc((char)(s.get()->i + '0')); __putc('\n');
 230              		.loc 2 38 5 is_stmt 1
 231              		.loc 2 38 24 is_stmt 0
 232 0174 13850400 		mv	a0,s1
 233 0178 97000000 		call	_ZN9Scheduler3getEv@plt
 233      E7800000 
 234              	.LVL32:
 235              		.loc 2 38 28
 236 0180 03350500 		ld	a0,0(a0)
 237              		.loc 2 38 11
 238 0184 1B050503 		addiw	a0,a0,48
 239 0188 1375F50F 		andi	a0,a0,0xff
GAS LISTING /tmp/ccH2P97h.s 			page 8


 240 018c 97000000 		call	__putc@plt
 240      E7800000 
 241              	.LVL33:
 242              		.loc 2 38 39 is_stmt 1
 243              		.loc 2 38 45 is_stmt 0
 244 0194 1305A000 		li	a0,10
 245 0198 97000000 		call	__putc@plt
 245      E7800000 
 246              	.LVL34:
  39:src/main.cpp  ****     __putc((char)(s.get()->i + '0')); __putc('\n');
 247              		.loc 2 39 5 is_stmt 1
 248              		.loc 2 39 24 is_stmt 0
 249 01a0 13850400 		mv	a0,s1
 250 01a4 97000000 		call	_ZN9Scheduler3getEv@plt
 250      E7800000 
 251              	.LVL35:
 252              		.loc 2 39 28
 253 01ac 03350500 		ld	a0,0(a0)
 254              		.loc 2 39 11
 255 01b0 1B050503 		addiw	a0,a0,48
 256 01b4 1375F50F 		andi	a0,a0,0xff
 257 01b8 97000000 		call	__putc@plt
 257      E7800000 
 258              	.LVL36:
 259              		.loc 2 39 39 is_stmt 1
 260              		.loc 2 39 45 is_stmt 0
 261 01c0 1305A000 		li	a0,10
 262 01c4 97000000 		call	__putc@plt
 262      E7800000 
 263              	.LVL37:
  40:src/main.cpp  ****     __putc((char)(s.get()->i + '0')); __putc('\n');
 264              		.loc 2 40 5 is_stmt 1
 265              		.loc 2 40 24 is_stmt 0
 266 01cc 13850400 		mv	a0,s1
 267 01d0 97000000 		call	_ZN9Scheduler3getEv@plt
 267      E7800000 
 268              	.LVL38:
 269              		.loc 2 40 28
 270 01d8 03350500 		ld	a0,0(a0)
 271              		.loc 2 40 11
 272 01dc 1B050503 		addiw	a0,a0,48
 273 01e0 1375F50F 		andi	a0,a0,0xff
 274 01e4 97000000 		call	__putc@plt
 274      E7800000 
 275              	.LVL39:
 276              		.loc 2 40 39 is_stmt 1
 277              		.loc 2 40 45 is_stmt 0
 278 01ec 1305A000 		li	a0,10
 279 01f0 97000000 		call	__putc@plt
 279      E7800000 
 280              	.LVL40:
  41:src/main.cpp  ****     __putc((char)(s.get()->i + '0')); __putc('\n');
 281              		.loc 2 41 5 is_stmt 1
 282              		.loc 2 41 24 is_stmt 0
 283 01f8 13850400 		mv	a0,s1
 284 01fc 97000000 		call	_ZN9Scheduler3getEv@plt
 284      E7800000 
GAS LISTING /tmp/ccH2P97h.s 			page 9


 285              	.LVL41:
 286              		.loc 2 41 28
 287 0204 03350500 		ld	a0,0(a0)
 288              		.loc 2 41 11
 289 0208 1B050503 		addiw	a0,a0,48
 290 020c 1375F50F 		andi	a0,a0,0xff
 291 0210 97000000 		call	__putc@plt
 291      E7800000 
 292              	.LVL42:
 293              		.loc 2 41 39 is_stmt 1
 294              		.loc 2 41 45 is_stmt 0
 295 0218 1305A000 		li	a0,10
 296 021c 97000000 		call	__putc@plt
 296      E7800000 
 297              	.LVL43:
  42:src/main.cpp  **** 
  43:src/main.cpp  **** 
  44:src/main.cpp  ****     delete th1;
 298              		.loc 2 44 5 is_stmt 1
 299              		.loc 2 44 15 is_stmt 0
 300 0224 63080B00 		beqz	s6,.L4
 301              		.loc 2 44 12 discriminator 1
 302 0228 13050B00 		mv	a0,s6
 303 022c 97000000 		call	_ZdlPv@plt
 303      E7800000 
 304              	.LVL44:
 305              	.L4:
  45:src/main.cpp  ****     delete th2;
 306              		.loc 2 45 5 is_stmt 1
 307              		.loc 2 45 15 is_stmt 0
 308 0234 63880A00 		beqz	s5,.L5
 309              		.loc 2 45 12 discriminator 1
 310 0238 13850A00 		mv	a0,s5
 311 023c 97000000 		call	_ZdlPv@plt
 311      E7800000 
 312              	.LVL45:
 313              	.L5:
  46:src/main.cpp  ****     delete th3;
 314              		.loc 2 46 5 is_stmt 1
 315              		.loc 2 46 15 is_stmt 0
 316 0244 63080A00 		beqz	s4,.L6
 317              		.loc 2 46 12 discriminator 1
 318 0248 13050A00 		mv	a0,s4
 319 024c 97000000 		call	_ZdlPv@plt
 319      E7800000 
 320              	.LVL46:
 321              	.L6:
  47:src/main.cpp  ****     delete th4;
 322              		.loc 2 47 5 is_stmt 1
 323              		.loc 2 47 15 is_stmt 0
 324 0254 63880900 		beqz	s3,.L7
 325              		.loc 2 47 12 discriminator 1
 326 0258 13850900 		mv	a0,s3
 327 025c 97000000 		call	_ZdlPv@plt
 327      E7800000 
 328              	.LVL47:
 329              	.L7:
GAS LISTING /tmp/ccH2P97h.s 			page 10


  48:src/main.cpp  ****     delete th5;
 330              		.loc 2 48 5 is_stmt 1
 331              		.loc 2 48 15 is_stmt 0
 332 0264 63080900 		beqz	s2,.L8
 333              		.loc 2 48 12 discriminator 1
 334 0268 13050900 		mv	a0,s2
 335 026c 97000000 		call	_ZdlPv@plt
 335      E7800000 
 336              	.LVL48:
 337              	.L8:
  49:src/main.cpp  **** 
  50:src/main.cpp  ****     return 0;
 338              		.loc 2 50 5 is_stmt 1
  51:src/main.cpp  **** }
 339              		.loc 2 51 1 is_stmt 0
 340 0274 13050000 		li	a0,0
 341 0278 83308104 		ld	ra,72(sp)
 342              		.cfi_restore 1
 343 027c 03340104 		ld	s0,64(sp)
 344              		.cfi_restore 8
 345              		.cfi_def_cfa 2, 80
 346 0280 83348103 		ld	s1,56(sp)
 347              		.cfi_restore 9
 348 0284 03390103 		ld	s2,48(sp)
 349              		.cfi_restore 18
 350              	.LVL49:
 351 0288 83398102 		ld	s3,40(sp)
 352              		.cfi_restore 19
 353              	.LVL50:
 354 028c 033A0102 		ld	s4,32(sp)
 355              		.cfi_restore 20
 356              	.LVL51:
 357 0290 833A8101 		ld	s5,24(sp)
 358              		.cfi_restore 21
 359              	.LVL52:
 360 0294 033B0101 		ld	s6,16(sp)
 361              		.cfi_restore 22
 362              	.LVL53:
 363 0298 13010105 		addi	sp,sp,80
 364              		.cfi_def_cfa_offset 0
 365 029c 67800000 		jr	ra
 366              		.cfi_endproc
 367              	.LFE34:
 369              	.Letext0:
 370              		.file 4 "src/../h/../lib/hw.h"
 371              		.file 5 "src/../h/Queue.h"
 372              		.file 6 "src/../h/syscall_cpp.h"
 373              		.file 7 "src/../lib/console.h"
GAS LISTING /tmp/ccH2P97h.s 			page 11

