GAS LISTING /tmp/ccM8BhWn.s 			page 1


   1              		.file	"main.cpp"
   2              		.option pic
   3              		.option norelax
   4              		.text
   5              	.Ltext0:
   6              		.section	.text._ZN5RiscV13setStvecTableEv,"axG",@progbits,_ZN5RiscV13setStvecTableEv,comdat
   7              		.align	2
   8              		.weak	_ZN5RiscV13setStvecTableEv
  10              	_ZN5RiscV13setStvecTableEv:
  11              	.LFB0:
  12              		.file 1 "src/../h/../h/RiscV.h"
   1:src/../h/../h/RiscV.h **** //
   2:src/../h/../h/RiscV.h **** // Created by os on 5/4/24.
   3:src/../h/../h/RiscV.h **** //
   4:src/../h/../h/RiscV.h **** 
   5:src/../h/../h/RiscV.h **** #ifndef PROJEKAT_RISCV_H
   6:src/../h/../h/RiscV.h **** #define PROJEKAT_RISCV_H
   7:src/../h/../h/RiscV.h **** 
   8:src/../h/../h/RiscV.h **** #include "../lib/hw.h"
   9:src/../h/../h/RiscV.h **** 
  10:src/../h/../h/RiscV.h **** class RiscV {
  11:src/../h/../h/RiscV.h **** public:
  12:src/../h/../h/RiscV.h ****     static void popSppSpie();
  13:src/../h/../h/RiscV.h ****     static void setStvecTable(){}
  13              		.loc 1 13 17
  14              		.cfi_startproc
  15 0000 130101FF 		addi	sp,sp,-16
  16              		.cfi_def_cfa_offset 16
  17 0004 23348100 		sd	s0,8(sp)
  18              		.cfi_offset 8, -8
  19 0008 13040101 		addi	s0,sp,16
  20              		.cfi_def_cfa 8, 0
  21              		.loc 1 13 33 is_stmt 0
  22 000c 03348100 		ld	s0,8(sp)
  23              		.cfi_restore 8
  24              		.cfi_def_cfa 2, 16
  25 0010 13010101 		addi	sp,sp,16
  26              		.cfi_def_cfa_offset 0
  27 0014 67800000 		jr	ra
  28              		.cfi_endproc
  29              	.LFE0:
  31              		.text
  32              		.align	2
  33              		.globl	main
  35              	main:
  36              	.LFB38:
  37              		.file 2 "src/main.cpp"
   1:src/main.cpp  **** //
   2:src/main.cpp  **** // Created by os on 5/1/24.
   3:src/main.cpp  **** //
   4:src/main.cpp  **** 
   5:src/main.cpp  **** #include "../lib/console.h"
   6:src/main.cpp  **** #include "../h/syscall_c.h"
   7:src/main.cpp  **** #include "../h/syscall_cpp.h"
   8:src/main.cpp  **** #include "../h/Scheduler.h"
   9:src/main.cpp  **** #include "../h/AVLTree.h"
  10:src/main.cpp  **** 
GAS LISTING /tmp/ccM8BhWn.s 			page 2


  11:src/main.cpp  **** class TCB {
  12:src/main.cpp  **** public:
  13:src/main.cpp  ****     uint64 i;
  14:src/main.cpp  ****     uint64 s = 0;
  15:src/main.cpp  ****     uint64 a = 0;
  16:src/main.cpp  ****     explicit TCB(int k) : i(k) {}
  17:src/main.cpp  **** };
  18:src/main.cpp  **** 
  19:src/main.cpp  **** 
  20:src/main.cpp  **** int main() {
  38              		.loc 2 20 12 is_stmt 1
  39              		.cfi_startproc
  40 0000 130101FE 		addi	sp,sp,-32
  41              		.cfi_def_cfa_offset 32
  42 0004 233C1100 		sd	ra,24(sp)
  43 0008 23388100 		sd	s0,16(sp)
  44 000c 23349100 		sd	s1,8(sp)
  45 0010 23302101 		sd	s2,0(sp)
  46              		.cfi_offset 1, -8
  47              		.cfi_offset 8, -16
  48              		.cfi_offset 9, -24
  49              		.cfi_offset 18, -32
  50 0014 13040102 		addi	s0,sp,32
  51              		.cfi_def_cfa 8, 0
  21:src/main.cpp  ****     __putc(((char)sizeof(AVLTree) + (char)0));
  52              		.loc 2 21 5
  53              		.loc 2 21 11 is_stmt 0
  54 0018 13058004 		li	a0,72
  55 001c 97000000 		call	__putc@plt
  55      E7800000 
  56              	.LVL0:
  22:src/main.cpp  **** 
  23:src/main.cpp  ****     RiscV::stvecW((uint64)&RiscV::setStvecTable | 0x01);
  57              		.loc 2 23 5 is_stmt 1
  58              		.loc 2 23 18 is_stmt 0
  59 0024 97070000 		lla	a5,_ZN5RiscV13setStvecTableEv
  59      93870700 
  60 002c 93E71700 		ori	a5,a5,1
  61              	.LVL1:
  62              	.LBB10:
  63              	.LBB11:
  14:src/../h/../h/RiscV.h **** 
  15:src/../h/../h/RiscV.h ****     enum CodeOps{
  16:src/../h/../h/RiscV.h ****         MEM_ALOC = 0x01,
  17:src/../h/../h/RiscV.h ****         MEM_FREE = 0x02
  18:src/../h/../h/RiscV.h ****     };
  19:src/../h/../h/RiscV.h **** 
  20:src/../h/../h/RiscV.h ****     enum BitMaskSStatus {
  21:src/../h/../h/RiscV.h ****         SSTATUS_SIE = 1 << 1,
  22:src/../h/../h/RiscV.h ****         SSTATUS_SPIE = 1 << 5,
  23:src/../h/../h/RiscV.h ****         SSTATUS_SPP = 1 << 8
  24:src/../h/../h/RiscV.h ****     };
  25:src/../h/../h/RiscV.h **** 
  26:src/../h/../h/RiscV.h ****     enum BitMaskSip {
  27:src/../h/../h/RiscV.h ****         SIP_SSIP = 1 << 1,
  28:src/../h/../h/RiscV.h ****         SIP_SEIP = 1 << 9
  29:src/../h/../h/RiscV.h ****     };
GAS LISTING /tmp/ccM8BhWn.s 			page 3


  30:src/../h/../h/RiscV.h **** 
  31:src/../h/../h/RiscV.h ****     static uint64 scauseR();
  32:src/../h/../h/RiscV.h ****     static void scauseW(uint64 scause);
  33:src/../h/../h/RiscV.h **** 
  34:src/../h/../h/RiscV.h ****     static uint64 sepcR();
  35:src/../h/../h/RiscV.h ****     static void sepcW(uint64);
  36:src/../h/../h/RiscV.h **** 
  37:src/../h/../h/RiscV.h ****     static uint64 stvecR();
  38:src/../h/../h/RiscV.h ****     static void stvecW(uint64 stvec);
  39:src/../h/../h/RiscV.h **** 
  40:src/../h/../h/RiscV.h ****     static uint64 stvalR();
  41:src/../h/../h/RiscV.h ****     static void stvalW(uint64 stval);
  42:src/../h/../h/RiscV.h **** 
  43:src/../h/../h/RiscV.h ****     static uint64 a0R();
  44:src/../h/../h/RiscV.h ****     static void a0W(uint64 val);
  45:src/../h/../h/RiscV.h ****     static uint64 a1R();
  46:src/../h/../h/RiscV.h ****     static void a1W(uint64 val);
  47:src/../h/../h/RiscV.h **** 
  48:src/../h/../h/RiscV.h **** 
  49:src/../h/../h/RiscV.h **** 
  50:src/../h/../h/RiscV.h ****     static uint64 sstatusR();
  51:src/../h/../h/RiscV.h ****     static void sstatusW(uint64 sstatus);
  52:src/../h/../h/RiscV.h **** 
  53:src/../h/../h/RiscV.h ****     static void ms_sstatus(BitMaskSStatus mask);
  54:src/../h/../h/RiscV.h ****     static void mc_sstatus(BitMaskSStatus mask);
  55:src/../h/../h/RiscV.h **** 
  56:src/../h/../h/RiscV.h **** 
  57:src/../h/../h/RiscV.h ****     static uint64 sipR();
  58:src/../h/../h/RiscV.h ****     static void sipW(uint64);
  59:src/../h/../h/RiscV.h **** 
  60:src/../h/../h/RiscV.h ****     static void ms_sip(BitMaskSip mask);
  61:src/../h/../h/RiscV.h ****     static void mc_sip(BitMaskSip mask);
  62:src/../h/../h/RiscV.h **** };
  63:src/../h/../h/RiscV.h **** 
  64:src/../h/../h/RiscV.h **** inline uint64 RiscV::scauseR() {
  65:src/../h/../h/RiscV.h ****     uint64 volatile scause;
  66:src/../h/../h/RiscV.h ****     __asm__ volatile ("csrr %[scause], scause" : [scause] "=r"(scause));
  67:src/../h/../h/RiscV.h ****     return scause;
  68:src/../h/../h/RiscV.h **** }
  69:src/../h/../h/RiscV.h **** 
  70:src/../h/../h/RiscV.h **** inline void RiscV::scauseW(uint64 scause) {
  71:src/../h/../h/RiscV.h ****     __asm__ volatile ("csrw scause, %[scause]" : : [scause] "r"(scause));
  72:src/../h/../h/RiscV.h **** }
  73:src/../h/../h/RiscV.h **** 
  74:src/../h/../h/RiscV.h **** inline uint64 RiscV::sepcR() {
  75:src/../h/../h/RiscV.h ****     uint64 volatile sepc;
  76:src/../h/../h/RiscV.h ****     __asm__ volatile ("csrr %[sepc], sepc" : [sepc] "=r"(sepc));
  77:src/../h/../h/RiscV.h ****     return sepc;
  78:src/../h/../h/RiscV.h **** }
  79:src/../h/../h/RiscV.h **** 
  80:src/../h/../h/RiscV.h **** inline void RiscV::sepcW(uint64 sepc) {
  81:src/../h/../h/RiscV.h ****     __asm__ volatile ("csrw sepc, %[sepc]" : : [sepc] "r"(sepc));
  82:src/../h/../h/RiscV.h **** }
  83:src/../h/../h/RiscV.h **** 
  84:src/../h/../h/RiscV.h **** inline uint64 RiscV::stvecR() {
  85:src/../h/../h/RiscV.h ****     uint64 volatile stvec;
  86:src/../h/../h/RiscV.h ****     __asm__ volatile ("csrr %[stvec], stvec" : [stvec] "=r"(stvec));
GAS LISTING /tmp/ccM8BhWn.s 			page 4


  87:src/../h/../h/RiscV.h ****     return stvec;
  88:src/../h/../h/RiscV.h **** }
  89:src/../h/../h/RiscV.h **** 
  90:src/../h/../h/RiscV.h **** inline void RiscV::stvecW(uint64 stvec) {
  91:src/../h/../h/RiscV.h ****     __asm__ volatile ("csrw stvec, %[stvec]" : : [stvec] "r"(stvec));
  64              		.loc 1 91 5 is_stmt 1
  65              		.loc 1 91 69 is_stmt 0
  66              	#APP
  67              	# 91 "src/../h/../h/RiscV.h" 1
  92              	}
  68              		csrw stvec, a5
  69              	# 0 "" 2
  70              	.LVL2:
  71              	#NO_APP
  72              	.LBE11:
  73              	.LBE10:
  24:src/main.cpp  **** 
  25:src/main.cpp  **** 
  26:src/main.cpp  **** 
  27:src/main.cpp  ****     TCB* th1 = new TCB(55);
  74              		.loc 2 27 5 is_stmt 1
  75              		.loc 2 27 26 is_stmt 0
  76 0034 13058001 		li	a0,24
  77 0038 97000000 		call	_Znwm@plt
  77      E7800000 
  78              	.LVL3:
  79 0040 13090500 		mv	s2,a0
  80              	.LVL4:
  81              	.LBB12:
  82              	.LBB13:
  16:src/main.cpp  **** };
  83              		.loc 2 16 30
  84 0044 93077003 		li	a5,55
  85 0048 2330F500 		sd	a5,0(a0)
  86 004c 23340500 		sd	zero,8(a0)
  87 0050 23380500 		sd	zero,16(a0)
  88              	.LVL5:
  89              	.LBE13:
  90              	.LBE12:
  28:src/main.cpp  ****     TCB* th2 = new TCB(2);
  91              		.loc 2 28 5 is_stmt 1
  92              		.loc 2 28 25 is_stmt 0
  93 0054 13058001 		li	a0,24
  94              	.LVL6:
  95 0058 97000000 		call	_Znwm@plt
  95      E7800000 
  96              	.LVL7:
  97 0060 93040500 		mv	s1,a0
  98              	.LVL8:
  99              	.LBB14:
 100              	.LBB15:
  16:src/main.cpp  **** };
 101              		.loc 2 16 30
 102 0064 93072000 		li	a5,2
 103 0068 2330F500 		sd	a5,0(a0)
 104 006c 23340500 		sd	zero,8(a0)
 105 0070 23380500 		sd	zero,16(a0)
GAS LISTING /tmp/ccM8BhWn.s 			page 5


 106              	.LVL9:
 107              	.LBE15:
 108              	.LBE14:
  29:src/main.cpp  **** 
  30:src/main.cpp  ****     Scheduler::put(th1);
 109              		.loc 2 30 5 is_stmt 1
 110              		.loc 2 30 19 is_stmt 0
 111 0074 13050900 		mv	a0,s2
 112 0078 97000000 		call	_ZN9Scheduler3putEP3TCB@plt
 112      E7800000 
 113              	.LVL10:
  31:src/main.cpp  ****     Scheduler::put(th2);
 114              		.loc 2 31 5 is_stmt 1
 115              		.loc 2 31 19 is_stmt 0
 116 0080 13850400 		mv	a0,s1
 117 0084 97000000 		call	_ZN9Scheduler3putEP3TCB@plt
 117      E7800000 
 118              	.LVL11:
  32:src/main.cpp  **** 
  33:src/main.cpp  ****     __putc((char)(Scheduler::get()->i + '0')); __putc('\n');
 119              		.loc 2 33 5 is_stmt 1
 120              		.loc 2 33 33 is_stmt 0
 121 008c 97000000 		call	_ZN9Scheduler3getEv@plt
 121      E7800000 
 122              	.LVL12:
 123              		.loc 2 33 37
 124 0094 03350500 		ld	a0,0(a0)
 125              		.loc 2 33 11
 126 0098 1B050503 		addiw	a0,a0,48
 127 009c 1375F50F 		andi	a0,a0,0xff
 128 00a0 97000000 		call	__putc@plt
 128      E7800000 
 129              	.LVL13:
 130              		.loc 2 33 48 is_stmt 1
 131              		.loc 2 33 54 is_stmt 0
 132 00a8 1305A000 		li	a0,10
 133 00ac 97000000 		call	__putc@plt
 133      E7800000 
 134              	.LVL14:
  34:src/main.cpp  ****     __putc((char)(Scheduler::get()->i + '0')); __putc('\n');
 135              		.loc 2 34 5 is_stmt 1
 136              		.loc 2 34 33 is_stmt 0
 137 00b4 97000000 		call	_ZN9Scheduler3getEv@plt
 137      E7800000 
 138              	.LVL15:
 139              		.loc 2 34 37
 140 00bc 03350500 		ld	a0,0(a0)
 141              		.loc 2 34 11
 142 00c0 1B050503 		addiw	a0,a0,48
 143 00c4 1375F50F 		andi	a0,a0,0xff
 144 00c8 97000000 		call	__putc@plt
 144      E7800000 
 145              	.LVL16:
 146              		.loc 2 34 48 is_stmt 1
 147              		.loc 2 34 54 is_stmt 0
 148 00d0 1305A000 		li	a0,10
 149 00d4 97000000 		call	__putc@plt
GAS LISTING /tmp/ccM8BhWn.s 			page 6


 149      E7800000 
 150              	.LVL17:
  35:src/main.cpp  **** 
  36:src/main.cpp  **** 
  37:src/main.cpp  ****     delete th1;
 151              		.loc 2 37 5 is_stmt 1
 152              		.loc 2 37 15 is_stmt 0
 153 00dc 63080900 		beqz	s2,.L4
 154              		.loc 2 37 12 discriminator 1
 155 00e0 13050900 		mv	a0,s2
 156 00e4 97000000 		call	_ZdlPv@plt
 156      E7800000 
 157              	.LVL18:
 158              	.L4:
  38:src/main.cpp  ****     delete th2;
 159              		.loc 2 38 5 is_stmt 1
 160              		.loc 2 38 15 is_stmt 0
 161 00ec 63880400 		beqz	s1,.L5
 162              		.loc 2 38 12 discriminator 1
 163 00f0 13850400 		mv	a0,s1
 164 00f4 97000000 		call	_ZdlPv@plt
 164      E7800000 
 165              	.LVL19:
 166              	.L5:
  39:src/main.cpp  **** 
  40:src/main.cpp  ****     return 0;
 167              		.loc 2 40 5 is_stmt 1
  41:src/main.cpp  **** }
 168              		.loc 2 41 1 is_stmt 0
 169 00fc 13050000 		li	a0,0
 170 0100 83308101 		ld	ra,24(sp)
 171              		.cfi_restore 1
 172 0104 03340101 		ld	s0,16(sp)
 173              		.cfi_restore 8
 174              		.cfi_def_cfa 2, 32
 175 0108 83348100 		ld	s1,8(sp)
 176              		.cfi_restore 9
 177              	.LVL20:
 178 010c 03390100 		ld	s2,0(sp)
 179              		.cfi_restore 18
 180              	.LVL21:
 181 0110 13010102 		addi	sp,sp,32
 182              		.cfi_def_cfa_offset 0
 183 0114 67800000 		jr	ra
 184              		.cfi_endproc
 185              	.LFE38:
 187              	.Letext0:
 188              		.file 3 "src/../h/../lib/hw.h"
 189              		.file 4 "src/../h/Scheduler.h"
 190              		.file 5 "src/../h/Queue.h"
 191              		.file 6 "src/../lib/console.h"
 192              		.file 7 "src/../h/syscall_cpp.h"
GAS LISTING /tmp/ccM8BhWn.s 			page 7


DEFINED SYMBOLS
                            *ABS*:0000000000000000 main.cpp
     /tmp/ccM8BhWn.s:10     .text._ZN5RiscV13setStvecTableEv:0000000000000000 _ZN5RiscV13setStvecTableEv
     /tmp/ccM8BhWn.s:14     .text._ZN5RiscV13setStvecTableEv:0000000000000000 .L0 
     /tmp/ccM8BhWn.s:15     .text._ZN5RiscV13setStvecTableEv:0000000000000000 .L0 
     /tmp/ccM8BhWn.s:16     .text._ZN5RiscV13setStvecTableEv:0000000000000004 .L0 
     /tmp/ccM8BhWn.s:18     .text._ZN5RiscV13setStvecTableEv:0000000000000008 .L0 
     /tmp/ccM8BhWn.s:20     .text._ZN5RiscV13setStvecTableEv:000000000000000c .L0 
     /tmp/ccM8BhWn.s:22     .text._ZN5RiscV13setStvecTableEv:000000000000000c .L0 
     /tmp/ccM8BhWn.s:23     .text._ZN5RiscV13setStvecTableEv:0000000000000010 .L0 
     /tmp/ccM8BhWn.s:24     .text._ZN5RiscV13setStvecTableEv:0000000000000010 .L0 
     /tmp/ccM8BhWn.s:26     .text._ZN5RiscV13setStvecTableEv:0000000000000014 .L0 
     /tmp/ccM8BhWn.s:28     .text._ZN5RiscV13setStvecTableEv:0000000000000018 .L0 
     /tmp/ccM8BhWn.s:35     .text:0000000000000000 main
     /tmp/ccM8BhWn.s:39     .text:0000000000000000 .L0 
     /tmp/ccM8BhWn.s:40     .text:0000000000000000 .L0 
     /tmp/ccM8BhWn.s:41     .text:0000000000000004 .L0 
     /tmp/ccM8BhWn.s:46     .text:0000000000000014 .L0 
     /tmp/ccM8BhWn.s:47     .text:0000000000000014 .L0 
     /tmp/ccM8BhWn.s:48     .text:0000000000000014 .L0 
     /tmp/ccM8BhWn.s:49     .text:0000000000000014 .L0 
     /tmp/ccM8BhWn.s:51     .text:0000000000000018 .L0 
     /tmp/ccM8BhWn.s:53     .text:0000000000000018 .L0 
     /tmp/ccM8BhWn.s:54     .text:0000000000000018 .L0 
     /tmp/ccM8BhWn.s:58     .text:0000000000000024 .L0 
     /tmp/ccM8BhWn.s:59     .text:0000000000000024 .L0 
     /tmp/ccM8BhWn.s:65     .text:0000000000000030 .L0 
src/../h/../h/RiscV.h:91     .text:0000000000000030 .L0 
     /tmp/ccM8BhWn.s:75     .text:0000000000000034 .L0 
     /tmp/ccM8BhWn.s:76     .text:0000000000000034 .L0 
     /tmp/ccM8BhWn.s:84     .text:0000000000000044 .L0 
     /tmp/ccM8BhWn.s:92     .text:0000000000000054 .L0 
     /tmp/ccM8BhWn.s:93     .text:0000000000000054 .L0 
     /tmp/ccM8BhWn.s:102    .text:0000000000000064 .L0 
     /tmp/ccM8BhWn.s:110    .text:0000000000000074 .L0 
     /tmp/ccM8BhWn.s:111    .text:0000000000000074 .L0 
     /tmp/ccM8BhWn.s:115    .text:0000000000000080 .L0 
     /tmp/ccM8BhWn.s:116    .text:0000000000000080 .L0 
     /tmp/ccM8BhWn.s:120    .text:000000000000008c .L0 
     /tmp/ccM8BhWn.s:121    .text:000000000000008c .L0 
     /tmp/ccM8BhWn.s:124    .text:0000000000000094 .L0 
     /tmp/ccM8BhWn.s:126    .text:0000000000000098 .L0 
     /tmp/ccM8BhWn.s:131    .text:00000000000000a8 .L0 
     /tmp/ccM8BhWn.s:132    .text:00000000000000a8 .L0 
     /tmp/ccM8BhWn.s:136    .text:00000000000000b4 .L0 
     /tmp/ccM8BhWn.s:137    .text:00000000000000b4 .L0 
     /tmp/ccM8BhWn.s:140    .text:00000000000000bc .L0 
     /tmp/ccM8BhWn.s:142    .text:00000000000000c0 .L0 
     /tmp/ccM8BhWn.s:147    .text:00000000000000d0 .L0 
     /tmp/ccM8BhWn.s:148    .text:00000000000000d0 .L0 
     /tmp/ccM8BhWn.s:152    .text:00000000000000dc .L0 
     /tmp/ccM8BhWn.s:153    .text:00000000000000dc .L0 
     /tmp/ccM8BhWn.s:155    .text:00000000000000e0 .L0 
     /tmp/ccM8BhWn.s:160    .text:00000000000000ec .L0 
     /tmp/ccM8BhWn.s:161    .text:00000000000000ec .L0 
     /tmp/ccM8BhWn.s:163    .text:00000000000000f0 .L0 
     /tmp/ccM8BhWn.s:168    .text:00000000000000fc .L0 
GAS LISTING /tmp/ccM8BhWn.s 			page 8


     /tmp/ccM8BhWn.s:169    .text:00000000000000fc .L0 
     /tmp/ccM8BhWn.s:171    .text:0000000000000104 .L0 
     /tmp/ccM8BhWn.s:173    .text:0000000000000108 .L0 
     /tmp/ccM8BhWn.s:174    .text:0000000000000108 .L0 
     /tmp/ccM8BhWn.s:176    .text:000000000000010c .L0 
     /tmp/ccM8BhWn.s:179    .text:0000000000000110 .L0 
     /tmp/ccM8BhWn.s:182    .text:0000000000000114 .L0 
     /tmp/ccM8BhWn.s:184    .text:0000000000000118 .L0 
     /tmp/ccM8BhWn.s:31     .text._ZN5RiscV13setStvecTableEv:0000000000000018 .L0 
     /tmp/ccM8BhWn.s:193    .text:0000000000000118 .L0 
     /tmp/ccM8BhWn.s:59     .text:0000000000000024 .L0 
     /tmp/ccM8BhWn.s:158    .text:00000000000000ec .L4
     /tmp/ccM8BhWn.s:166    .text:00000000000000fc .L5
     /tmp/ccM8BhWn.s:1210   .debug_abbrev:0000000000000000 .Ldebug_abbrev0
     /tmp/ccM8BhWn.s:2474   .debug_str:000000000000060c .LASF111
     /tmp/ccM8BhWn.s:2364   .debug_str:00000000000002c8 .LASF112
     /tmp/ccM8BhWn.s:2510   .debug_str:000000000000079c .LASF113
     /tmp/ccM8BhWn.s:2264   .debug_ranges:0000000000000000 .Ldebug_ranges0
     /tmp/ccM8BhWn.s:2272   .debug_line:0000000000000000 .Ldebug_line0
     /tmp/ccM8BhWn.s:2402   .debug_str:0000000000000402 .LASF0
     /tmp/ccM8BhWn.s:2416   .debug_str:0000000000000467 .LASF1
     /tmp/ccM8BhWn.s:2386   .debug_str:000000000000037c .LASF2
     /tmp/ccM8BhWn.s:2348   .debug_str:0000000000000250 .LASF4
     /tmp/ccM8BhWn.s:2450   .debug_str:0000000000000546 .LASF3
     /tmp/ccM8BhWn.s:2290   .debug_str:0000000000000058 .LASF5
     /tmp/ccM8BhWn.s:2420   .debug_str:0000000000000486 .LASF6
     /tmp/ccM8BhWn.s:2400   .debug_str:00000000000003ef .LASF7
     /tmp/ccM8BhWn.s:2490   .debug_str:0000000000000716 .LASF8
     /tmp/ccM8BhWn.s:2340   .debug_str:000000000000020a .LASF9
     /tmp/ccM8BhWn.s:2432   .debug_str:00000000000004e8 .LASF10
     /tmp/ccM8BhWn.s:2476   .debug_str:00000000000006d0 .LASF11
     /tmp/ccM8BhWn.s:2294   .debug_str:000000000000006b .LASF12
     /tmp/ccM8BhWn.s:2280   .debug_str:000000000000001e .LASF13
     /tmp/ccM8BhWn.s:2306   .debug_str:00000000000000c6 .LASF14
     /tmp/ccM8BhWn.s:2444   .debug_str:000000000000051b .LASF15
     /tmp/ccM8BhWn.s:2316   .debug_str:0000000000000136 .LASF16
     /tmp/ccM8BhWn.s:2380   .debug_str:000000000000034d .LASF62
     /tmp/ccM8BhWn.s:2366   .debug_str:00000000000002d5 .LASF20
     /tmp/ccM8BhWn.s:2314   .debug_str:000000000000012a .LASF17
     /tmp/ccM8BhWn.s:2368   .debug_str:00000000000002e4 .LASF18
     /tmp/ccM8BhWn.s:2292   .debug_str:000000000000005f .LASF19
     /tmp/ccM8BhWn.s:2350   .debug_str:0000000000000257 .LASF21
     /tmp/ccM8BhWn.s:2462   .debug_str:00000000000005a9 .LASF22
     /tmp/ccM8BhWn.s:2358   .debug_str:00000000000002a4 .LASF23
     /tmp/ccM8BhWn.s:2442   .debug_str:0000000000000510 .LASF24
     /tmp/ccM8BhWn.s:2332   .debug_str:00000000000001bd .LASF26
     /tmp/ccM8BhWn.s:2446   .debug_str:0000000000000531 .LASF25
     /tmp/ccM8BhWn.s:2328   .debug_str:000000000000019d .LASF27
     /tmp/ccM8BhWn.s:2398   .debug_str:00000000000003e7 .LASF28
     /tmp/ccM8BhWn.s:2478   .debug_str:00000000000006df .LASF30
     /tmp/ccM8BhWn.s:2406   .debug_str:0000000000000426 .LASF32
     /tmp/ccM8BhWn.s:2322   .debug_str:000000000000016b .LASF34
     /tmp/ccM8BhWn.s:2480   .debug_str:00000000000006f3 .LASF29
     /tmp/ccM8BhWn.s:2334   .debug_str:00000000000001d5 .LASF31
     /tmp/ccM8BhWn.s:2486   .debug_str:0000000000000709 .LASF33
     /tmp/ccM8BhWn.s:2360   .debug_str:00000000000002ad .LASF35
     /tmp/ccM8BhWn.s:2482   .debug_str:00000000000006f9 .LASF36
GAS LISTING /tmp/ccM8BhWn.s 			page 9


     /tmp/ccM8BhWn.s:2286   .debug_str:000000000000003e .LASF37
     /tmp/ccM8BhWn.s:2488   .debug_str:000000000000070f .LASF38
     /tmp/ccM8BhWn.s:2376   .debug_str:0000000000000328 .LASF39
     /tmp/ccM8BhWn.s:2440   .debug_str:0000000000000509 .LASF40
     /tmp/ccM8BhWn.s:2274   .debug_str:0000000000000000 .LASF41
     /tmp/ccM8BhWn.s:2448   .debug_str:000000000000053f .LASF42
     /tmp/ccM8BhWn.s:2336   .debug_str:00000000000001e7 .LASF43
     /tmp/ccM8BhWn.s:2298   .debug_str:000000000000008f .LASF44
     /tmp/ccM8BhWn.s:2388   .debug_str:000000000000038a .LASF46
     /tmp/ccM8BhWn.s:2470   .debug_str:00000000000005e3 .LASF45
     /tmp/ccM8BhWn.s:2456   .debug_str:0000000000000580 .LASF47
     /tmp/ccM8BhWn.s:2460   .debug_str:00000000000005a0 .LASF48
     /tmp/ccM8BhWn.s:2424   .debug_str:000000000000049e .LASF49
     /tmp/ccM8BhWn.s:2484   .debug_str:0000000000000700 .LASF50
     /tmp/ccM8BhWn.s:2356   .debug_str:000000000000028f .LASF51
     /tmp/ccM8BhWn.s:2504   .debug_str:0000000000000787 .LASF52
     /tmp/ccM8BhWn.s:2394   .debug_str:00000000000003ab .LASF53
     /tmp/ccM8BhWn.s:2414   .debug_str:000000000000045c .LASF54
     /tmp/ccM8BhWn.s:2308   .debug_str:00000000000000d2 .LASF55
     /tmp/ccM8BhWn.s:2284   .debug_str:0000000000000039 .LASF56
     /tmp/ccM8BhWn.s:2396   .debug_str:00000000000003d6 .LASF57
     /tmp/ccM8BhWn.s:2324   .debug_str:000000000000017f .LASF58
     /tmp/ccM8BhWn.s:2496   .debug_str:0000000000000745 .LASF59
     /tmp/ccM8BhWn.s:2434   .debug_str:00000000000004f7 .LASF60
     /tmp/ccM8BhWn.s:2312   .debug_str:0000000000000108 .LASF61
     /tmp/ccM8BhWn.s:2288   .debug_str:0000000000000051 .LASF78
     /tmp/ccM8BhWn.s:2384   .debug_str:000000000000035a .LASF80
     /tmp/ccM8BhWn.s:2430   .debug_str:00000000000004de .LASF63
     /tmp/ccM8BhWn.s:2344   .debug_str:0000000000000231 .LASF64
     /tmp/ccM8BhWn.s:2304   .debug_str:00000000000000ae .LASF65
     /tmp/ccM8BhWn.s:2378   .debug_str:000000000000033b .LASF66
     /tmp/ccM8BhWn.s:2464   .debug_str:00000000000005b2 .LASF67
     /tmp/ccM8BhWn.s:2390   .debug_str:000000000000039a .LASF93
     /tmp/ccM8BhWn.s:2372   .debug_str:000000000000030e .LASF94
     /tmp/ccM8BhWn.s:2346   .debug_str:0000000000000245 .LASF70
     /tmp/ccM8BhWn.s:2492   .debug_str:0000000000000726 .LASF82
     /tmp/ccM8BhWn.s:2508   .debug_str:0000000000000797 .LASF114
     /tmp/ccM8BhWn.s:2466   .debug_str:00000000000005c7 .LASF115
     /tmp/ccM8BhWn.s:2454   .debug_str:0000000000000574 .LASF68
     /tmp/ccM8BhWn.s:2282   .debug_str:000000000000002e .LASF69
     /tmp/ccM8BhWn.s:2412   .debug_str:0000000000000450 .LASF102
     /tmp/ccM8BhWn.s:2330   .debug_str:00000000000001b8 .LASF71
     /tmp/ccM8BhWn.s:2310   .debug_str:00000000000000fd .LASF72
     /tmp/ccM8BhWn.s:2426   .debug_str:00000000000004b3 .LASF73
     /tmp/ccM8BhWn.s:2300   .debug_str:000000000000009f .LASF116
     /tmp/ccM8BhWn.s:2506   .debug_str:0000000000000792 .LASF74
     /tmp/ccM8BhWn.s:2436   .debug_str:00000000000004fe .LASF75
     /tmp/ccM8BhWn.s:2494   .debug_str:0000000000000738 .LASF76
     /tmp/ccM8BhWn.s:2408   .debug_str:000000000000042e .LASF77
     /tmp/ccM8BhWn.s:2458   .debug_str:0000000000000590 .LASF79
     /tmp/ccM8BhWn.s:2320   .debug_str:0000000000000151 .LASF81
     /tmp/ccM8BhWn.s:2472   .debug_str:00000000000005f3 .LASF83
     /tmp/ccM8BhWn.s:2338   .debug_str:00000000000001fa .LASF84
     /tmp/ccM8BhWn.s:2342   .debug_str:0000000000000218 .LASF85
     /tmp/ccM8BhWn.s:2352   .debug_str:0000000000000262 .LASF86
     /tmp/ccM8BhWn.s:2354   .debug_str:0000000000000275 .LASF87
     /tmp/ccM8BhWn.s:2318   .debug_str:000000000000014c .LASF88
GAS LISTING /tmp/ccM8BhWn.s 			page 10


     /tmp/ccM8BhWn.s:2410   .debug_str:000000000000044b .LASF89
     /tmp/ccM8BhWn.s:2438   .debug_str:0000000000000503 .LASF90
     /tmp/ccM8BhWn.s:2502   .debug_str:0000000000000773 .LASF91
     /tmp/ccM8BhWn.s:2500   .debug_str:000000000000075b .LASF92
     /tmp/ccM8BhWn.s:2404   .debug_str:000000000000040f .LASF95
     /tmp/ccM8BhWn.s:2302   .debug_str:00000000000000a4 .LASF96
     /tmp/ccM8BhWn.s:2370   .debug_str:00000000000002f1 .LASF97
     /tmp/ccM8BhWn.s:2362   .debug_str:00000000000002bf .LASF98
     /tmp/ccM8BhWn.s:2452   .debug_str:0000000000000558 .LASF99
     /tmp/ccM8BhWn.s:2276   .debug_str:0000000000000013 .LASF100
     /tmp/ccM8BhWn.s:2428   .debug_str:00000000000004c0 .LASF101
     /tmp/ccM8BhWn.s:2326   .debug_str:0000000000000184 .LASF103
     /tmp/ccM8BhWn.s:2392   .debug_str:00000000000003a4 .LASF104
     /tmp/ccM8BhWn.s:2296   .debug_str:000000000000007b .LASF105
     /tmp/ccM8BhWn.s:2422   .debug_str:0000000000000499 .LASF106
     /tmp/ccM8BhWn.s:36     .text:0000000000000000 .LFB38
     /tmp/ccM8BhWn.s:185    .text:0000000000000118 .LFE38
     /tmp/ccM8BhWn.s:2193   .debug_loc:0000000000000000 .LLST0
     /tmp/ccM8BhWn.s:2204   .debug_loc:0000000000000036 .LLST1
     /tmp/ccM8BhWn.s:62     .text:0000000000000030 .LBB10
     /tmp/ccM8BhWn.s:73     .text:0000000000000034 .LBE10
     /tmp/ccM8BhWn.s:2211   .debug_loc:0000000000000059 .LLST2
     /tmp/ccM8BhWn.s:81     .text:0000000000000044 .LBB12
     /tmp/ccM8BhWn.s:90     .text:0000000000000054 .LBE12
     /tmp/ccM8BhWn.s:2218   .debug_loc:000000000000007c .LLST3
     /tmp/ccM8BhWn.s:2227   .debug_loc:00000000000000a1 .LLST4
     /tmp/ccM8BhWn.s:99     .text:0000000000000064 .LBB14
     /tmp/ccM8BhWn.s:108    .text:0000000000000074 .LBE14
     /tmp/ccM8BhWn.s:2234   .debug_loc:00000000000000c4 .LLST5
     /tmp/ccM8BhWn.s:2242   .debug_loc:00000000000000e8 .LLST6
     /tmp/ccM8BhWn.s:56     .text:0000000000000024 .LVL0
     /tmp/ccM8BhWn.s:78     .text:0000000000000040 .LVL3
     /tmp/ccM8BhWn.s:96     .text:0000000000000060 .LVL7
     /tmp/ccM8BhWn.s:113    .text:0000000000000080 .LVL10
     /tmp/ccM8BhWn.s:118    .text:000000000000008c .LVL11
     /tmp/ccM8BhWn.s:122    .text:0000000000000094 .LVL12
     /tmp/ccM8BhWn.s:129    .text:00000000000000a8 .LVL13
     /tmp/ccM8BhWn.s:134    .text:00000000000000b4 .LVL14
     /tmp/ccM8BhWn.s:138    .text:00000000000000bc .LVL15
     /tmp/ccM8BhWn.s:145    .text:00000000000000d0 .LVL16
     /tmp/ccM8BhWn.s:150    .text:00000000000000dc .LVL17
     /tmp/ccM8BhWn.s:157    .text:00000000000000ec .LVL18
     /tmp/ccM8BhWn.s:165    .text:00000000000000fc .LVL19
     /tmp/ccM8BhWn.s:2498   .debug_str:0000000000000756 .LASF117
     /tmp/ccM8BhWn.s:2418   .debug_str:000000000000047a .LASF118
     /tmp/ccM8BhWn.s:2278   .debug_str:0000000000000018 .LASF107
     /tmp/ccM8BhWn.s:11     .text._ZN5RiscV13setStvecTableEv:0000000000000000 .LFB0
     /tmp/ccM8BhWn.s:29     .text._ZN5RiscV13setStvecTableEv:0000000000000018 .LFE0
     /tmp/ccM8BhWn.s:2468   .debug_str:00000000000005dc .LASF108
     /tmp/ccM8BhWn.s:2374   .debug_str:0000000000000322 .LASF109
     /tmp/ccM8BhWn.s:2382   .debug_str:0000000000000353 .LASF110
     /tmp/ccM8BhWn.s:88     .text:0000000000000054 .LVL5
     /tmp/ccM8BhWn.s:94     .text:0000000000000058 .LVL6
     /tmp/ccM8BhWn.s:180    .text:0000000000000110 .LVL21
     /tmp/ccM8BhWn.s:106    .text:0000000000000074 .LVL9
     /tmp/ccM8BhWn.s:177    .text:000000000000010c .LVL20
     /tmp/ccM8BhWn.s:61     .text:0000000000000030 .LVL1
GAS LISTING /tmp/ccM8BhWn.s 			page 11


     /tmp/ccM8BhWn.s:70     .text:0000000000000034 .LVL2
     /tmp/ccM8BhWn.s:80     .text:0000000000000044 .LVL4
     /tmp/ccM8BhWn.s:98     .text:0000000000000064 .LVL8
     /tmp/ccM8BhWn.s:194    .debug_info:0000000000000000 .Ldebug_info0
     /tmp/ccM8BhWn.s:5      .text:0000000000000000 .Ltext0
     /tmp/ccM8BhWn.s:187    .text:0000000000000118 .Letext0

UNDEFINED SYMBOLS
__putc
_Znwm
_ZN9Scheduler3putEP3TCB
_ZN9Scheduler3getEv
_ZdlPv
