GAS LISTING /tmp/ccAMbnkz.s 			page 1


   1              		.file	"MemoryAllocator.cpp"
   2              		.option pic
   3              		.option norelax
   4              		.text
   5              	.Ltext0:
   6              		.align	2
   7              		.globl	_ZN15MemoryAllocator7initMemEv
   9              	_ZN15MemoryAllocator7initMemEv:
  10              	.LFB4:
  11              		.file 1 "src/MemoryAllocator.cpp"
   1:src/MemoryAllocator.cpp **** //
   2:src/MemoryAllocator.cpp **** // Created by os on 5/1/24.
   3:src/MemoryAllocator.cpp **** //
   4:src/MemoryAllocator.cpp **** 
   5:src/MemoryAllocator.cpp **** #include "../h/MemoryAllocator.h"
   6:src/MemoryAllocator.cpp **** 
   7:src/MemoryAllocator.cpp **** AVLTree* MemoryAllocator::free = nullptr;
   8:src/MemoryAllocator.cpp **** AVLTree* MemoryAllocator::first = nullptr;
   9:src/MemoryAllocator.cpp **** uint64 MemoryAllocator::startAddr = 0;
  10:src/MemoryAllocator.cpp **** uint64 MemoryAllocator::endAddr = 0;
  11:src/MemoryAllocator.cpp **** const uint64 MemoryAllocator::HEADER_SIZE = (uint64)
  12:src/MemoryAllocator.cpp ****         ((sizeof(AVLTree) + MEM_BLOCK_SIZE - 1) / MEM_BLOCK_SIZE) * MEM_BLOCK_SIZE;
  13:src/MemoryAllocator.cpp **** bool MemoryAllocator::initialised = false;
  14:src/MemoryAllocator.cpp **** 
  15:src/MemoryAllocator.cpp **** 
  16:src/MemoryAllocator.cpp **** void MemoryAllocator::initMem() {
  12              		.loc 1 16 33
  13              		.cfi_startproc
  14 0000 130101FF 		addi	sp,sp,-16
  15              		.cfi_def_cfa_offset 16
  16 0004 23348100 		sd	s0,8(sp)
  17              		.cfi_offset 8, -8
  18 0008 13040101 		addi	s0,sp,16
  19              		.cfi_def_cfa 8, 0
  17:src/MemoryAllocator.cpp ****     if (MemoryAllocator::initialised) return;
  20              		.loc 1 17 5
  21 000c 97070000 		lbu	a5,.LANCHOR0
  21      83C70700 
  22 0014 63900708 		bnez	a5,.L1
  18:src/MemoryAllocator.cpp **** 
  19:src/MemoryAllocator.cpp ****     MemoryAllocator::startAddr = (((uint64)HEAP_START_ADDR + MEM_BLOCK_SIZE - 1)/MEM_BLOCK_SIZE) * 
  23              		.loc 1 19 5
  24              		.loc 1 19 77 is_stmt 0
  25 0018 97070000 		la	a5,HEAP_START_ADDR
  25      83B70700 
  26 0020 83B70700 		ld	a5,0(a5)
  27 0024 9387F703 		addi	a5,a5,63
  28              		.loc 1 19 98
  29 0028 93F707FC 		andi	a5,a5,-64
  30              		.loc 1 19 32
  31 002c 17070000 		lla	a4,.LANCHOR0
  31      13070700 
  32 0034 2334F700 		sd	a5,8(a4)
  20:src/MemoryAllocator.cpp ****     MemoryAllocator::endAddr = ((uint64)HEAP_END_ADDR / MEM_BLOCK_SIZE) * MEM_BLOCK_SIZE;
  33              		.loc 1 20 5 is_stmt 1
  34              		.loc 1 20 73 is_stmt 0
  35 0038 97060000 		la	a3,HEAP_END_ADDR
GAS LISTING /tmp/ccAMbnkz.s 			page 2


  35      83B60600 
  36 0040 83B60600 		ld	a3,0(a3)
  37 0044 93F606FC 		andi	a3,a3,-64
  38              		.loc 1 20 30
  39 0048 2338D700 		sd	a3,16(a4)
  21:src/MemoryAllocator.cpp **** 
  22:src/MemoryAllocator.cpp ****     MemoryAllocator::free = (AVLTree*) MemoryAllocator::startAddr;
  40              		.loc 1 22 5 is_stmt 1
  41              		.loc 1 22 27 is_stmt 0
  42 004c 233CF700 		sd	a5,24(a4)
  23:src/MemoryAllocator.cpp ****     MemoryAllocator::free->resetAll();
  43              		.loc 1 23 5 is_stmt 1
  44              	.LVL0:
  45              	.LBB10:
  46              	.LBB11:
  47              		.file 2 "src/../h/AVLTree.h"
   1:src/../h/AVLTree.h **** //
   2:src/../h/AVLTree.h **** // Created by os on 5/1/24.
   3:src/../h/AVLTree.h **** //
   4:src/../h/AVLTree.h **** 
   5:src/../h/AVLTree.h **** #ifndef PROJEKAT_AVLTREE_H
   6:src/../h/AVLTree.h **** #define PROJEKAT_AVLTREE_H
   7:src/../h/AVLTree.h **** 
   8:src/../h/AVLTree.h **** #include "../lib/hw.h"
   9:src/../h/AVLTree.h **** #include "../lib/console.h"
  10:src/../h/AVLTree.h **** 
  11:src/../h/AVLTree.h **** class AVLTree {
  12:src/../h/AVLTree.h **** private:
  13:src/../h/AVLTree.h **** 
  14:src/../h/AVLTree.h **** 
  15:src/../h/AVLTree.h ****     static int getBalance(AVLTree* node);
  16:src/../h/AVLTree.h ****     static int max(const AVLTree* n1, const AVLTree* n2);
  17:src/../h/AVLTree.h ****     static bool isRightSon(const AVLTree* node);
  18:src/../h/AVLTree.h ****     static AVLTree* findSuccessor(AVLTree* node);
  19:src/../h/AVLTree.h ****     static AVLTree* findPredecessor(AVLTree* node);
  20:src/../h/AVLTree.h ****     static AVLTree* rightRotation(AVLTree* node);
  21:src/../h/AVLTree.h ****     static AVLTree* leftRotation(AVLTree* node);
  22:src/../h/AVLTree.h ****     static AVLTree* balance(AVLTree* cur);
  23:src/../h/AVLTree.h **** 
  24:src/../h/AVLTree.h **** public:
  25:src/../h/AVLTree.h ****     AVLTree* left, *right, *parent, *sameSize;
  26:src/../h/AVLTree.h ****     AVLTree* next, *prev;
  27:src/../h/AVLTree.h ****     size_t sz; int height;
  28:src/../h/AVLTree.h ****     bool isFree;
  29:src/../h/AVLTree.h **** 
  30:src/../h/AVLTree.h ****     enum RESET_FLAGS {NO_FLAG=0, SAVE_SZ=1};
  31:src/../h/AVLTree.h **** 
  32:src/../h/AVLTree.h ****     AVLTree(size_t sz) {
  33:src/../h/AVLTree.h ****         resetAll();
  34:src/../h/AVLTree.h ****         this->sz = sz;
  35:src/../h/AVLTree.h ****     }
  36:src/../h/AVLTree.h **** 
  37:src/../h/AVLTree.h ****     void resetAll(RESET_FLAGS flags = NO_FLAG) {
  38:src/../h/AVLTree.h ****         left = right = parent = next = prev = sameSize = nullptr; height = 0;
  48              		.loc 2 38 9
  49              		.loc 2 38 56 is_stmt 0
  50 0050 23BC0700 		sd	zero,24(a5)
GAS LISTING /tmp/ccAMbnkz.s 			page 3


  51              		.loc 2 38 45
  52 0054 23B40702 		sd	zero,40(a5)
  53              		.loc 2 38 38
  54 0058 23B00702 		sd	zero,32(a5)
  55              		.loc 2 38 31
  56 005c 23B80700 		sd	zero,16(a5)
  57              		.loc 2 38 22
  58 0060 23B40700 		sd	zero,8(a5)
  59              		.loc 2 38 14
  60 0064 23B00700 		sd	zero,0(a5)
  61              		.loc 2 38 67 is_stmt 1
  62              		.loc 2 38 74 is_stmt 0
  63 0068 23AC0702 		sw	zero,56(a5)
  39:src/../h/AVLTree.h ****         if((int)flags & ~(int)SAVE_SZ) sz = 0;
  64              		.loc 2 39 9 is_stmt 1
  65              	.LVL1:
  66              	.LBE11:
  67              	.LBE10:
  24:src/MemoryAllocator.cpp ****     MemoryAllocator::free->isFree = true;
  68              		.loc 1 24 5
  69              		.loc 1 24 28 is_stmt 0
  70 006c 83368701 		ld	a3,24(a4)
  71              		.loc 1 24 35
  72 0070 13061000 		li	a2,1
  73 0074 238EC602 		sb	a2,60(a3)
  25:src/MemoryAllocator.cpp ****     MemoryAllocator::free->sz =
  74              		.loc 1 25 5 is_stmt 1
  26:src/MemoryAllocator.cpp ****             (size_t) (MemoryAllocator::endAddr - MemoryAllocator::startAddr - MemoryAllocator::HEAD
  75              		.loc 1 26 48 is_stmt 0
  76 0078 83370701 		ld	a5,16(a4)
  77 007c 83358700 		ld	a1,8(a4)
  78 0080 B387B740 		sub	a5,a5,a1
  79              		.loc 1 26 77
  80 0084 938707FC 		addi	a5,a5,-64
  25:src/MemoryAllocator.cpp ****     MemoryAllocator::free->sz =
  81              		.loc 1 25 31
  82 0088 23B8F602 		sd	a5,48(a3)
  27:src/MemoryAllocator.cpp ****     MemoryAllocator::first = MemoryAllocator::free;
  83              		.loc 1 27 5 is_stmt 1
  84              		.loc 1 27 28 is_stmt 0
  85 008c 2330D702 		sd	a3,32(a4)
  28:src/MemoryAllocator.cpp ****     MemoryAllocator::initialised = true;
  86              		.loc 1 28 5 is_stmt 1
  87              		.loc 1 28 34 is_stmt 0
  88 0090 2300C700 		sb	a2,0(a4)
  89              	.L1:
  29:src/MemoryAllocator.cpp **** }
  90              		.loc 1 29 1
  91 0094 03348100 		ld	s0,8(sp)
  92              		.cfi_restore 8
  93              		.cfi_def_cfa 2, 16
  94 0098 13010101 		addi	sp,sp,16
  95              		.cfi_def_cfa_offset 0
  96 009c 67800000 		jr	ra
  97              		.cfi_endproc
  98              	.LFE4:
 100              		.align	2
GAS LISTING /tmp/ccAMbnkz.s 			page 4


 101              		.globl	_ZN15MemoryAllocator9mem_allocEm
 103              	_ZN15MemoryAllocator9mem_allocEm:
 104              	.LFB5:
  30:src/MemoryAllocator.cpp **** 
  31:src/MemoryAllocator.cpp **** void* MemoryAllocator::mem_alloc(size_t size) {
 105              		.loc 1 31 47 is_stmt 1
 106              		.cfi_startproc
 107              	.LVL2:
 108 00a0 130101FD 		addi	sp,sp,-48
 109              		.cfi_def_cfa_offset 48
 110 00a4 23341102 		sd	ra,40(sp)
 111 00a8 23308102 		sd	s0,32(sp)
 112 00ac 233C9100 		sd	s1,24(sp)
 113 00b0 23382101 		sd	s2,16(sp)
 114 00b4 23343101 		sd	s3,8(sp)
 115              		.cfi_offset 1, -8
 116              		.cfi_offset 8, -16
 117              		.cfi_offset 9, -24
 118              		.cfi_offset 18, -32
 119              		.cfi_offset 19, -40
 120 00b8 13040103 		addi	s0,sp,48
 121              		.cfi_def_cfa 8, 0
  32:src/MemoryAllocator.cpp ****     if (size <= 0) return nullptr;
 122              		.loc 1 32 5
 123 00bc 63080512 		beqz	a0,.L9
 124 00c0 93040500 		mv	s1,a0
  33:src/MemoryAllocator.cpp ****     if (!MemoryAllocator::initialised)
 125              		.loc 1 33 5
 126              		.loc 1 33 9 is_stmt 0
 127 00c4 97070000 		lbu	a5,.LANCHOR0
 127      83C70700 
 128              		.loc 1 33 5
 129 00cc 638E0708 		beqz	a5,.L11
 130              	.LVL3:
 131              	.L6:
  34:src/MemoryAllocator.cpp ****         MemoryAllocator::initMem();
  35:src/MemoryAllocator.cpp **** 
  36:src/MemoryAllocator.cpp ****     size = ((size + MEM_BLOCK_SIZE - 1) / MEM_BLOCK_SIZE) * MEM_BLOCK_SIZE;
 132              		.loc 1 36 5 is_stmt 1
 133              		.loc 1 36 36 is_stmt 0
 134 00d0 9384F403 		addi	s1,s1,63
 135              	.LVL4:
 136              		.loc 1 36 10
 137 00d4 93F404FC 		andi	s1,s1,-64
 138              	.LVL5:
  37:src/MemoryAllocator.cpp **** 
  38:src/MemoryAllocator.cpp ****     AVLTree* freeSeg = AVLTree::findFreeSeg(MemoryAllocator::free, size);
 139              		.loc 1 38 5 is_stmt 1
 140              		.loc 1 38 44 is_stmt 0
 141 00d8 93850400 		mv	a1,s1
 142 00dc 17050000 		ld	a0,.LANCHOR0+24
 142      03350500 
 143 00e4 97000000 		call	_ZN7AVLTree11findFreeSegEPS_m@plt
 143      E7800000 
 144              	.LVL6:
 145 00ec 13090500 		mv	s2,a0
 146              	.LVL7:
GAS LISTING /tmp/ccAMbnkz.s 			page 5


  39:src/MemoryAllocator.cpp ****     if (!freeSeg) return nullptr;
 147              		.loc 1 39 5 is_stmt 1
 148 00f0 630C0504 		beqz	a0,.L4
  40:src/MemoryAllocator.cpp **** 
  41:src/MemoryAllocator.cpp ****     MemoryAllocator::free = AVLTree::remove(MemoryAllocator::free, freeSeg);
 149              		.loc 1 41 5
 150              		.loc 1 41 44 is_stmt 0
 151 00f4 97090000 		lla	s3,.LANCHOR0
 151      93890900 
 152 00fc 93050500 		mv	a1,a0
 153 0100 03B58901 		ld	a0,24(s3)
 154              	.LVL8:
 155 0104 97000000 		call	_ZN7AVLTree6removeEPS_S0_@plt
 155      E7800000 
 156              	.LVL9:
 157              		.loc 1 41 27
 158 010c 23BCA900 		sd	a0,24(s3)
  42:src/MemoryAllocator.cpp **** 
  43:src/MemoryAllocator.cpp ****     if (size + MEM_BLOCK_SIZE + HEADER_SIZE <= freeSeg->sz
 159              		.loc 1 43 5 is_stmt 1
 160              	.LBB12:
 161              		.loc 1 43 31 is_stmt 0
 162 0110 93870408 		addi	a5,s1,128
 163              		.loc 1 43 57
 164 0114 03370903 		ld	a4,48(s2)
 165              		.loc 1 43 5
 166 0118 6366F700 		bgtu	a5,a4,.L7
  44:src/MemoryAllocator.cpp ****                 && size + MEM_BLOCK_SIZE + HEADER_SIZE >= size) { //overflow check
 167              		.loc 1 44 17
 168 011c 9307F0F7 		li	a5,-129
 169 0120 63FA9704 		bleu	s1,a5,.L12
 170              	.L7:
  45:src/MemoryAllocator.cpp ****         AVLTree* newFreeSeg = (AVLTree*) ((uint64)freeSeg + size + HEADER_SIZE);
  46:src/MemoryAllocator.cpp ****         newFreeSeg->resetAll();
  47:src/MemoryAllocator.cpp ****         newFreeSeg->sz = freeSeg->sz - size - HEADER_SIZE;
  48:src/MemoryAllocator.cpp ****         freeSeg->sz = size;
  49:src/MemoryAllocator.cpp ****         MemoryAllocator::free = AVLTree::insert(MemoryAllocator::free, newFreeSeg);
  50:src/MemoryAllocator.cpp ****         MemoryAllocator::first = AVLTree::swapLL(freeSeg, newFreeSeg, MemoryAllocator::first);
  51:src/MemoryAllocator.cpp ****         newFreeSeg->isFree = true;
  52:src/MemoryAllocator.cpp ****     } else {
  53:src/MemoryAllocator.cpp ****         MemoryAllocator::first = AVLTree::removeLL(freeSeg, MemoryAllocator::first);
 171              		.loc 1 53 9 is_stmt 1
 172              		.loc 1 53 51 is_stmt 0
 173 0124 97040000 		lla	s1,.LANCHOR0
 173      93840400 
 174              	.LVL10:
 175 012c 83B50402 		ld	a1,32(s1)
 176 0130 13050900 		mv	a0,s2
 177 0134 97000000 		call	_ZN7AVLTree8removeLLEPS_S0_@plt
 177      E7800000 
 178              	.LVL11:
 179              		.loc 1 53 32
 180 013c 23B0A402 		sd	a0,32(s1)
 181              	.L8:
 182              	.LBE12:
  54:src/MemoryAllocator.cpp ****     }
  55:src/MemoryAllocator.cpp ****     freeSeg->isFree = false;
GAS LISTING /tmp/ccAMbnkz.s 			page 6


 183              		.loc 1 55 5 is_stmt 1
 184              		.loc 1 55 21 is_stmt 0
 185 0140 230E0902 		sb	zero,60(s2)
  56:src/MemoryAllocator.cpp ****     return (void*) ((uint64)freeSeg + HEADER_SIZE);
 186              		.loc 1 56 5 is_stmt 1
 187              		.loc 1 56 37 is_stmt 0
 188 0144 13090904 		addi	s2,s2,64
 189              	.LVL12:
 190              	.L4:
  57:src/MemoryAllocator.cpp **** }
 191              		.loc 1 57 1
 192 0148 13050900 		mv	a0,s2
 193 014c 83308102 		ld	ra,40(sp)
 194              		.cfi_remember_state
 195              		.cfi_restore 1
 196 0150 03340102 		ld	s0,32(sp)
 197              		.cfi_restore 8
 198              		.cfi_def_cfa 2, 48
 199 0154 83348101 		ld	s1,24(sp)
 200              		.cfi_restore 9
 201 0158 03390101 		ld	s2,16(sp)
 202              		.cfi_restore 18
 203 015c 83398100 		ld	s3,8(sp)
 204              		.cfi_restore 19
 205 0160 13010103 		addi	sp,sp,48
 206              		.cfi_def_cfa_offset 0
 207 0164 67800000 		jr	ra
 208              	.LVL13:
 209              	.L11:
 210              		.cfi_restore_state
  34:src/MemoryAllocator.cpp **** 
 211              		.loc 1 34 9 is_stmt 1
  34:src/MemoryAllocator.cpp **** 
 212              		.loc 1 34 33 is_stmt 0
 213 0168 97000000 		call	_ZN15MemoryAllocator7initMemEv
 213      E7800000 
 214              	.LVL14:
 215 0170 6FF01FF6 		j	.L6
 216              	.LVL15:
 217              	.L12:
 218              	.LBB16:
 219              	.LBB13:
  45:src/MemoryAllocator.cpp ****         newFreeSeg->resetAll();
 220              		.loc 1 45 9 is_stmt 1
  45:src/MemoryAllocator.cpp ****         newFreeSeg->resetAll();
 221              		.loc 1 45 59 is_stmt 0
 222 0174 B3079900 		add	a5,s2,s1
  45:src/MemoryAllocator.cpp ****         newFreeSeg->resetAll();
 223              		.loc 1 45 66
 224 0178 93890704 		addi	s3,a5,64
 225              	.LVL16:
  46:src/MemoryAllocator.cpp ****         newFreeSeg->sz = freeSeg->sz - size - HEADER_SIZE;
 226              		.loc 1 46 9 is_stmt 1
 227              	.LBB14:
 228              	.LBB15:
  38:src/../h/AVLTree.h ****         if((int)flags & ~(int)SAVE_SZ) sz = 0;
 229              		.loc 2 38 9
GAS LISTING /tmp/ccAMbnkz.s 			page 7


  38:src/../h/AVLTree.h ****         if((int)flags & ~(int)SAVE_SZ) sz = 0;
 230              		.loc 2 38 56 is_stmt 0
 231 017c 23BC0704 		sd	zero,88(a5)
  38:src/../h/AVLTree.h ****         if((int)flags & ~(int)SAVE_SZ) sz = 0;
 232              		.loc 2 38 45
 233 0180 23B40706 		sd	zero,104(a5)
  38:src/../h/AVLTree.h ****         if((int)flags & ~(int)SAVE_SZ) sz = 0;
 234              		.loc 2 38 38
 235 0184 23B00706 		sd	zero,96(a5)
  38:src/../h/AVLTree.h ****         if((int)flags & ~(int)SAVE_SZ) sz = 0;
 236              		.loc 2 38 31
 237 0188 23B80704 		sd	zero,80(a5)
  38:src/../h/AVLTree.h ****         if((int)flags & ~(int)SAVE_SZ) sz = 0;
 238              		.loc 2 38 22
 239 018c 23B40704 		sd	zero,72(a5)
  38:src/../h/AVLTree.h ****         if((int)flags & ~(int)SAVE_SZ) sz = 0;
 240              		.loc 2 38 14
 241 0190 23B00704 		sd	zero,64(a5)
  38:src/../h/AVLTree.h ****         if((int)flags & ~(int)SAVE_SZ) sz = 0;
 242              		.loc 2 38 67 is_stmt 1
  38:src/../h/AVLTree.h ****         if((int)flags & ~(int)SAVE_SZ) sz = 0;
 243              		.loc 2 38 74 is_stmt 0
 244 0194 23AC0706 		sw	zero,120(a5)
 245              		.loc 2 39 9 is_stmt 1
 246              	.LVL17:
 247              	.LBE15:
 248              	.LBE14:
  47:src/MemoryAllocator.cpp ****         freeSeg->sz = size;
 249              		.loc 1 47 9
  47:src/MemoryAllocator.cpp ****         freeSeg->sz = size;
 250              		.loc 1 47 35 is_stmt 0
 251 0198 83370903 		ld	a5,48(s2)
  47:src/MemoryAllocator.cpp ****         freeSeg->sz = size;
 252              		.loc 1 47 38
 253 019c B3879740 		sub	a5,a5,s1
  47:src/MemoryAllocator.cpp ****         freeSeg->sz = size;
 254              		.loc 1 47 45
 255 01a0 938707FC 		addi	a5,a5,-64
  47:src/MemoryAllocator.cpp ****         freeSeg->sz = size;
 256              		.loc 1 47 24
 257 01a4 23B8F902 		sd	a5,48(s3)
  48:src/MemoryAllocator.cpp ****         MemoryAllocator::free = AVLTree::insert(MemoryAllocator::free, newFreeSeg);
 258              		.loc 1 48 9 is_stmt 1
  48:src/MemoryAllocator.cpp ****         MemoryAllocator::free = AVLTree::insert(MemoryAllocator::free, newFreeSeg);
 259              		.loc 1 48 21 is_stmt 0
 260 01a8 23389902 		sd	s1,48(s2)
  49:src/MemoryAllocator.cpp ****         MemoryAllocator::first = AVLTree::swapLL(freeSeg, newFreeSeg, MemoryAllocator::first);
 261              		.loc 1 49 9 is_stmt 1
  49:src/MemoryAllocator.cpp ****         MemoryAllocator::first = AVLTree::swapLL(freeSeg, newFreeSeg, MemoryAllocator::first);
 262              		.loc 1 49 48 is_stmt 0
 263 01ac 97040000 		lla	s1,.LANCHOR0
 263      93840400 
 264              	.LVL18:
 265 01b4 93850900 		mv	a1,s3
 266 01b8 03B58401 		ld	a0,24(s1)
 267 01bc 97000000 		call	_ZN7AVLTree6insertEPS_S0_@plt
 267      E7800000 
GAS LISTING /tmp/ccAMbnkz.s 			page 8


 268              	.LVL19:
  49:src/MemoryAllocator.cpp ****         MemoryAllocator::first = AVLTree::swapLL(freeSeg, newFreeSeg, MemoryAllocator::first);
 269              		.loc 1 49 31
 270 01c4 23BCA400 		sd	a0,24(s1)
  50:src/MemoryAllocator.cpp ****         newFreeSeg->isFree = true;
 271              		.loc 1 50 9 is_stmt 1
  50:src/MemoryAllocator.cpp ****         newFreeSeg->isFree = true;
 272              		.loc 1 50 49 is_stmt 0
 273 01c8 03B60402 		ld	a2,32(s1)
 274 01cc 93850900 		mv	a1,s3
 275 01d0 13050900 		mv	a0,s2
 276 01d4 97000000 		call	_ZN7AVLTree6swapLLEPS_S0_S0_@plt
 276      E7800000 
 277              	.LVL20:
  50:src/MemoryAllocator.cpp ****         newFreeSeg->isFree = true;
 278              		.loc 1 50 32
 279 01dc 23B0A402 		sd	a0,32(s1)
  51:src/MemoryAllocator.cpp ****     } else {
 280              		.loc 1 51 9 is_stmt 1
  51:src/MemoryAllocator.cpp ****     } else {
 281              		.loc 1 51 28 is_stmt 0
 282 01e0 93071000 		li	a5,1
 283 01e4 238EF902 		sb	a5,60(s3)
 284              	.LBE13:
  51:src/MemoryAllocator.cpp ****     } else {
 285              		.loc 1 51 34
 286 01e8 6FF09FF5 		j	.L8
 287              	.LVL21:
 288              	.L9:
 289              	.LBE16:
  32:src/MemoryAllocator.cpp ****     if (!MemoryAllocator::initialised)
 290              		.loc 1 32 27
 291 01ec 13090000 		li	s2,0
 292 01f0 6FF09FF5 		j	.L4
 293              		.cfi_endproc
 294              	.LFE5:
 296              		.align	2
 297              		.globl	_ZN15MemoryAllocator8mem_freeEPv
 299              	_ZN15MemoryAllocator8mem_freeEPv:
 300              	.LFB6:
  58:src/MemoryAllocator.cpp **** 
  59:src/MemoryAllocator.cpp **** int MemoryAllocator::mem_free(void *ptr) {
 301              		.loc 1 59 42 is_stmt 1
 302              		.cfi_startproc
 303              	.LVL22:
  60:src/MemoryAllocator.cpp **** 
  61:src/MemoryAllocator.cpp ****     if (!ptr) return -1;
 304              		.loc 1 61 5
 305 01f4 630A0520 		beqz	a0,.L22
  62:src/MemoryAllocator.cpp ****     if ((uint64)ptr % MEM_BLOCK_SIZE != 0 ) return -2; // ptr doesnt point to beginning of block (i
 306              		.loc 1 62 5
 307              		.loc 1 62 21 is_stmt 0
 308 01f8 1377F503 		andi	a4,a0,63
 309              		.loc 1 62 5
 310 01fc 631A0720 		bnez	a4,.L23
  63:src/MemoryAllocator.cpp ****     if ((uint64)ptr >= MemoryAllocator::endAddr || (uint64) ptr < MemoryAllocator::startAddr) retur
 311              		.loc 1 63 5 is_stmt 1
GAS LISTING /tmp/ccAMbnkz.s 			page 9


 312              		.loc 1 63 21 is_stmt 0
 313 0200 17070000 		ld	a4,.LANCHOR0+16
 313      03370700 
 314              		.loc 1 63 5
 315 0208 6378E520 		bgeu	a0,a4,.L24
 316              		.loc 1 63 65 discriminator 2
 317 020c 17070000 		ld	a4,.LANCHOR0+8
 317      03370700 
 318              		.loc 1 63 49 discriminator 2
 319 0214 6366E520 		bltu	a0,a4,.L25
  59:src/MemoryAllocator.cpp **** 
 320              		.loc 1 59 42
 321 0218 130101FC 		addi	sp,sp,-64
 322              		.cfi_def_cfa_offset 64
 323 021c 233C1102 		sd	ra,56(sp)
 324 0220 23388102 		sd	s0,48(sp)
 325 0224 23349102 		sd	s1,40(sp)
 326 0228 23302103 		sd	s2,32(sp)
 327 022c 233C3101 		sd	s3,24(sp)
 328 0230 23384101 		sd	s4,16(sp)
 329 0234 23345101 		sd	s5,8(sp)
 330              		.cfi_offset 1, -8
 331              		.cfi_offset 8, -16
 332              		.cfi_offset 9, -24
 333              		.cfi_offset 18, -32
 334              		.cfi_offset 19, -40
 335              		.cfi_offset 20, -48
 336              		.cfi_offset 21, -56
 337 0238 13040104 		addi	s0,sp,64
 338              		.cfi_def_cfa 8, 0
  64:src/MemoryAllocator.cpp **** 
  65:src/MemoryAllocator.cpp ****     AVLTree* cur = (AVLTree*) ((uint64)ptr - HEADER_SIZE); cur->resetAll(AVLTree::SAVE_SZ); cur->is
 339              		.loc 1 65 5 is_stmt 1
 340              		.loc 1 65 44 is_stmt 0
 341 023c 130905FC 		addi	s2,a0,-64
 342              		.loc 1 65 14
 343 0240 93090900 		mv	s3,s2
 344              	.LVL23:
 345              		.loc 1 65 60 is_stmt 1
 346              	.LBB17:
 347              	.LBB18:
  38:src/../h/AVLTree.h ****         if((int)flags & ~(int)SAVE_SZ) sz = 0;
 348              		.loc 2 38 9
  38:src/../h/AVLTree.h ****         if((int)flags & ~(int)SAVE_SZ) sz = 0;
 349              		.loc 2 38 56 is_stmt 0
 350 0244 233C0900 		sd	zero,24(s2)
  38:src/../h/AVLTree.h ****         if((int)flags & ~(int)SAVE_SZ) sz = 0;
 351              		.loc 2 38 45
 352 0248 23340902 		sd	zero,40(s2)
  38:src/../h/AVLTree.h ****         if((int)flags & ~(int)SAVE_SZ) sz = 0;
 353              		.loc 2 38 38
 354 024c 23300902 		sd	zero,32(s2)
  38:src/../h/AVLTree.h ****         if((int)flags & ~(int)SAVE_SZ) sz = 0;
 355              		.loc 2 38 31
 356 0250 23380900 		sd	zero,16(s2)
  38:src/../h/AVLTree.h ****         if((int)flags & ~(int)SAVE_SZ) sz = 0;
 357              		.loc 2 38 22
GAS LISTING /tmp/ccAMbnkz.s 			page 10


 358 0254 23340900 		sd	zero,8(s2)
  38:src/../h/AVLTree.h ****         if((int)flags & ~(int)SAVE_SZ) sz = 0;
 359              		.loc 2 38 14
 360 0258 233005FC 		sd	zero,-64(a0)
  38:src/../h/AVLTree.h ****         if((int)flags & ~(int)SAVE_SZ) sz = 0;
 361              		.loc 2 38 67 is_stmt 1
  38:src/../h/AVLTree.h ****         if((int)flags & ~(int)SAVE_SZ) sz = 0;
 362              		.loc 2 38 74 is_stmt 0
 363 025c 232C0902 		sw	zero,56(s2)
 364              		.loc 2 39 9 is_stmt 1
 365              	.LVL24:
 366              	.LBE18:
 367              	.LBE17:
 368              		.loc 1 65 93
 369              		.loc 1 65 105 is_stmt 0
 370 0260 93071000 		li	a5,1
 371 0264 230EF902 		sb	a5,60(s2)
  66:src/MemoryAllocator.cpp ****     AVLTree* aft = ((uint64)cur + cur->sz + HEADER_SIZE >= MemoryAllocator::endAddr) ? nullptr :
 372              		.loc 1 66 5 is_stmt 1
 373              		.loc 1 66 40 is_stmt 0
 374 0268 83340903 		ld	s1,48(s2)
 375              		.loc 1 66 33
 376 026c B3049900 		add	s1,s2,s1
 377              		.loc 1 66 43
 378 0270 93840404 		addi	s1,s1,64
 379              		.loc 1 66 57
 380 0274 97070000 		ld	a5,.LANCHOR0+16
 380      83B70700 
 381              		.loc 1 66 86
 382 027c 63F8F404 		bgeu	s1,a5,.L26
 383              		.loc 1 66 86 discriminator 1
 384 0280 138A0400 		mv	s4,s1
 385              	.LVL25:
  67:src/MemoryAllocator.cpp ****             (AVLTree*) ((uint64)cur + cur->sz + HEADER_SIZE);
  68:src/MemoryAllocator.cpp ****     AVLTree* toSwap = nullptr;
 386              		.loc 1 68 5 is_stmt 1 discriminator 1
  69:src/MemoryAllocator.cpp **** 
  70:src/MemoryAllocator.cpp ****     if (aft && aft->isFree) {
 387              		.loc 1 70 5 discriminator 1
 388 0284 63860404 		beqz	s1,.L15
 389              		.loc 1 70 21 is_stmt 0 discriminator 1
 390 0288 83C7C403 		lbu	a5,60(s1)
 391              		.loc 1 70 13 discriminator 1
 392 028c 63960700 		bnez	a5,.L35
  68:src/MemoryAllocator.cpp **** 
 393              		.loc 1 68 14
 394 0290 130A0000 		li	s4,0
 395 0294 6F00C003 		j	.L15
 396              	.L35:
  71:src/MemoryAllocator.cpp ****         MemoryAllocator::free = AVLTree::remove(MemoryAllocator::free, aft);
 397              		.loc 1 71 9 is_stmt 1
 398              		.loc 1 71 48 is_stmt 0
 399 0298 970A0000 		lla	s5,.LANCHOR0
 399      938A0A00 
 400 02a0 93850400 		mv	a1,s1
 401 02a4 03B58A01 		ld	a0,24(s5)
 402              	.LVL26:
GAS LISTING /tmp/ccAMbnkz.s 			page 11


 403 02a8 97000000 		call	_ZN7AVLTree6removeEPS_S0_@plt
 403      E7800000 
 404              	.LVL27:
 405              		.loc 1 71 31
 406 02b0 23BCAA00 		sd	a0,24(s5)
  72:src/MemoryAllocator.cpp ****         cur->sz += aft->sz + HEADER_SIZE;
 407              		.loc 1 72 9 is_stmt 1
 408              		.loc 1 72 25 is_stmt 0
 409 02b4 83B70403 		ld	a5,48(s1)
 410              		.loc 1 72 17
 411 02b8 03370903 		ld	a4,48(s2)
 412 02bc B387E700 		add	a5,a5,a4
 413 02c0 93870704 		addi	a5,a5,64
 414 02c4 2338F902 		sd	a5,48(s2)
  73:src/MemoryAllocator.cpp ****         toSwap = aft;
 415              		.loc 1 73 9 is_stmt 1
 416              	.LVL28:
 417 02c8 6F008000 		j	.L15
 418              	.LVL29:
 419              	.L26:
  68:src/MemoryAllocator.cpp **** 
 420              		.loc 1 68 14 is_stmt 0
 421 02cc 130A0000 		li	s4,0
 422              	.LVL30:
 423              	.L15:
  74:src/MemoryAllocator.cpp ****     }
  75:src/MemoryAllocator.cpp **** 
  76:src/MemoryAllocator.cpp ****     AVLTree* prev = MemoryAllocator::first;
 424              		.loc 1 76 5 is_stmt 1
 425              		.loc 1 76 14 is_stmt 0
 426 02d0 97040000 		ld	s1,.LANCHOR0+32
 426      83B40400 
 427              	.LVL31:
 428 02d8 6F008000 		j	.L17
 429              	.L28:
  77:src/MemoryAllocator.cpp ****     for(;prev && prev->next && ((uint64)prev->next + prev->next->sz + HEADER_SIZE < (uint64)cur); p
 430              		.loc 1 77 104
 431 02dc 93040700 		mv	s1,a4
 432              	.LVL32:
 433              	.L17:
 434              		.loc 1 77 5 is_stmt 1 discriminator 4
 435              		.loc 1 77 29 discriminator 4
 436 02e0 638E0400 		beqz	s1,.L16
 437              		.loc 1 77 24 is_stmt 0 discriminator 1
 438 02e4 03B70402 		ld	a4,32(s1)
 439              		.loc 1 77 15 discriminator 1
 440 02e8 630A0700 		beqz	a4,.L16
 441              		.loc 1 77 66 discriminator 2
 442 02ec 83370703 		ld	a5,48(a4)
 443              		.loc 1 77 52 discriminator 2
 444 02f0 B307F700 		add	a5,a4,a5
 445              		.loc 1 77 69 discriminator 2
 446 02f4 93870704 		addi	a5,a5,64
 447              		.loc 1 77 29 discriminator 2
 448 02f8 E3E227FF 		bgtu	s2,a5,.L28
 449              	.L16:
  78:src/MemoryAllocator.cpp **** 
GAS LISTING /tmp/ccAMbnkz.s 			page 12


  79:src/MemoryAllocator.cpp ****     if (prev && (uint64)prev + prev->sz + HEADER_SIZE == (uint64)cur) {
 450              		.loc 1 79 5 is_stmt 1
 451 02fc 638A0400 		beqz	s1,.L18
 452              		.loc 1 79 38 is_stmt 0 discriminator 1
 453 0300 83B70403 		ld	a5,48(s1)
 454              		.loc 1 79 30 discriminator 1
 455 0304 B387F400 		add	a5,s1,a5
 456              		.loc 1 79 41 discriminator 1
 457 0308 93870704 		addi	a5,a5,64
 458              		.loc 1 79 14 discriminator 1
 459 030c 6306F906 		beq	s2,a5,.L36
 460              	.LVL33:
 461              	.L18:
  80:src/MemoryAllocator.cpp ****         MemoryAllocator::free = AVLTree::remove(MemoryAllocator::free, prev);
  81:src/MemoryAllocator.cpp ****         prev->sz += cur->sz + HEADER_SIZE;
  82:src/MemoryAllocator.cpp ****         prev->isFree = true;
  83:src/MemoryAllocator.cpp **** 
  84:src/MemoryAllocator.cpp ****         // nullptr as toRem: no changes
  85:src/MemoryAllocator.cpp ****         MemoryAllocator::first = AVLTree::removeLL((toSwap) ? prev : nullptr, MemoryAllocator::firs
  86:src/MemoryAllocator.cpp ****         toSwap = (toSwap) ? toSwap : prev;
  87:src/MemoryAllocator.cpp ****         cur = prev;
  88:src/MemoryAllocator.cpp ****     }
  89:src/MemoryAllocator.cpp **** 
  90:src/MemoryAllocator.cpp ****     MemoryAllocator::free = AVLTree::insert(MemoryAllocator::free, cur);
 462              		.loc 1 90 5 is_stmt 1
 463              		.loc 1 90 44 is_stmt 0
 464 0310 97040000 		lla	s1,.LANCHOR0
 464      93840400 
 465              	.LVL34:
 466 0318 93850900 		mv	a1,s3
 467 031c 03B58401 		ld	a0,24(s1)
 468 0320 97000000 		call	_ZN7AVLTree6insertEPS_S0_@plt
 468      E7800000 
 469              	.LVL35:
 470              		.loc 1 90 27
 471 0328 23BCA400 		sd	a0,24(s1)
  91:src/MemoryAllocator.cpp ****     MemoryAllocator::first = (toSwap) ? AVLTree::swapLL(toSwap, cur, MemoryAllocator::first) :
 472              		.loc 1 91 5 is_stmt 1
 473              		.loc 1 91 39 is_stmt 0
 474 032c 63020A0C 		beqz	s4,.L20
 475              		.loc 1 91 56 discriminator 1
 476 0330 17060000 		ld	a2,.LANCHOR0+32
 476      03360600 
 477 0338 93850900 		mv	a1,s3
 478 033c 13050A00 		mv	a0,s4
 479 0340 97000000 		call	_ZN7AVLTree6swapLLEPS_S0_S0_@plt
 479      E7800000 
 480              	.LVL36:
 481              	.L21:
 482              		.loc 1 91 28 discriminator 2
 483 0348 97070000 		sd	a0,.LANCHOR0+32,a5
 483      23B0A700 
  92:src/MemoryAllocator.cpp ****                              AVLTree::insertLL(cur, MemoryAllocator::first);
  93:src/MemoryAllocator.cpp ****     return 0;
 484              		.loc 1 93 5 is_stmt 1 discriminator 2
 485              		.loc 1 93 12 is_stmt 0 discriminator 2
 486 0350 13050000 		li	a0,0
GAS LISTING /tmp/ccAMbnkz.s 			page 13


  94:src/MemoryAllocator.cpp **** }
 487              		.loc 1 94 1 discriminator 2
 488 0354 83308103 		ld	ra,56(sp)
 489              		.cfi_remember_state
 490              		.cfi_restore 1
 491 0358 03340103 		ld	s0,48(sp)
 492              		.cfi_restore 8
 493              		.cfi_def_cfa 2, 64
 494 035c 83348102 		ld	s1,40(sp)
 495              		.cfi_restore 9
 496 0360 03390102 		ld	s2,32(sp)
 497              		.cfi_restore 18
 498 0364 83398101 		ld	s3,24(sp)
 499              		.cfi_restore 19
 500              	.LVL37:
 501 0368 033A0101 		ld	s4,16(sp)
 502              		.cfi_restore 20
 503              	.LVL38:
 504 036c 833A8100 		ld	s5,8(sp)
 505              		.cfi_restore 21
 506 0370 13010104 		addi	sp,sp,64
 507              		.cfi_def_cfa_offset 0
 508 0374 67800000 		jr	ra
 509              	.LVL39:
 510              	.L36:
 511              		.cfi_restore_state
  80:src/MemoryAllocator.cpp ****         prev->sz += cur->sz + HEADER_SIZE;
 512              		.loc 1 80 9 is_stmt 1
  80:src/MemoryAllocator.cpp ****         prev->sz += cur->sz + HEADER_SIZE;
 513              		.loc 1 80 48 is_stmt 0
 514 0378 97090000 		lla	s3,.LANCHOR0
 514      93890900 
 515 0380 93850400 		mv	a1,s1
 516 0384 03B58901 		ld	a0,24(s3)
 517 0388 97000000 		call	_ZN7AVLTree6removeEPS_S0_@plt
 517      E7800000 
 518              	.LVL40:
  80:src/MemoryAllocator.cpp ****         prev->sz += cur->sz + HEADER_SIZE;
 519              		.loc 1 80 31
 520 0390 23BCA900 		sd	a0,24(s3)
  81:src/MemoryAllocator.cpp ****         prev->isFree = true;
 521              		.loc 1 81 9 is_stmt 1
  81:src/MemoryAllocator.cpp ****         prev->isFree = true;
 522              		.loc 1 81 26 is_stmt 0
 523 0394 83370903 		ld	a5,48(s2)
  81:src/MemoryAllocator.cpp ****         prev->isFree = true;
 524              		.loc 1 81 18
 525 0398 03B70403 		ld	a4,48(s1)
 526 039c B387E700 		add	a5,a5,a4
 527 03a0 93870704 		addi	a5,a5,64
 528 03a4 23B8F402 		sd	a5,48(s1)
  82:src/MemoryAllocator.cpp **** 
 529              		.loc 1 82 9 is_stmt 1
  82:src/MemoryAllocator.cpp **** 
 530              		.loc 1 82 22 is_stmt 0
 531 03a8 93071000 		li	a5,1
 532 03ac 238EF402 		sb	a5,60(s1)
GAS LISTING /tmp/ccAMbnkz.s 			page 14


  85:src/MemoryAllocator.cpp ****         toSwap = (toSwap) ? toSwap : prev;
 533              		.loc 1 85 9 is_stmt 1
  85:src/MemoryAllocator.cpp ****         toSwap = (toSwap) ? toSwap : prev;
 534              		.loc 1 85 51 is_stmt 0
 535 03b0 63060A02 		beqz	s4,.L37
 536 03b4 13850400 		mv	a0,s1
 537              	.L19:
  85:src/MemoryAllocator.cpp ****         toSwap = (toSwap) ? toSwap : prev;
 538              		.loc 1 85 51 discriminator 4
 539 03b8 17090000 		lla	s2,.LANCHOR0
 539      13090900 
 540              	.LVL41:
 541 03c0 83350902 		ld	a1,32(s2)
 542 03c4 97000000 		call	_ZN7AVLTree8removeLLEPS_S0_@plt
 542      E7800000 
 543              	.LVL42:
  85:src/MemoryAllocator.cpp ****         toSwap = (toSwap) ? toSwap : prev;
 544              		.loc 1 85 32 discriminator 4
 545 03cc 2330A902 		sd	a0,32(s2)
  86:src/MemoryAllocator.cpp ****         cur = prev;
 546              		.loc 1 86 9 is_stmt 1 discriminator 4
  86:src/MemoryAllocator.cpp ****         cur = prev;
 547              		.loc 1 86 27 is_stmt 0 discriminator 4
 548 03d0 630A0A00 		beqz	s4,.L30
  87:src/MemoryAllocator.cpp ****     }
 549              		.loc 1 87 13
 550 03d4 93890400 		mv	s3,s1
 551 03d8 6FF09FF3 		j	.L18
 552              	.LVL43:
 553              	.L37:
  85:src/MemoryAllocator.cpp ****         toSwap = (toSwap) ? toSwap : prev;
 554              		.loc 1 85 51
 555 03dc 13050A00 		mv	a0,s4
 556 03e0 6FF09FFD 		j	.L19
 557              	.LVL44:
 558              	.L30:
  86:src/MemoryAllocator.cpp ****         cur = prev;
 559              		.loc 1 86 27
 560 03e4 138A0400 		mv	s4,s1
 561              	.LVL45:
  87:src/MemoryAllocator.cpp ****     }
 562              		.loc 1 87 13
 563 03e8 93890400 		mv	s3,s1
 564 03ec 6FF05FF2 		j	.L18
 565              	.LVL46:
 566              	.L20:
  92:src/MemoryAllocator.cpp ****     return 0;
 567              		.loc 1 92 47
 568 03f0 97050000 		ld	a1,.LANCHOR0+32
 568      83B50500 
 569 03f8 13850900 		mv	a0,s3
 570 03fc 97000000 		call	_ZN7AVLTree8insertLLEPS_S0_@plt
 570      E7800000 
 571              	.LVL47:
 572 0404 6FF05FF4 		j	.L21
 573              	.LVL48:
 574              	.L22:
GAS LISTING /tmp/ccAMbnkz.s 			page 15


 575              		.cfi_def_cfa_register 2
 576              		.cfi_restore 1
 577              		.cfi_restore 8
 578              		.cfi_restore 9
 579              		.cfi_restore 18
 580              		.cfi_restore 19
 581              		.cfi_restore 20
 582              		.cfi_restore 21
  61:src/MemoryAllocator.cpp ****     if ((uint64)ptr % MEM_BLOCK_SIZE != 0 ) return -2; // ptr doesnt point to beginning of block (i
 583              		.loc 1 61 23
 584 0408 1305F0FF 		li	a0,-1
 585              	.LVL49:
 586 040c 67800000 		ret
 587              	.LVL50:
 588              	.L23:
  62:src/MemoryAllocator.cpp ****     if ((uint64)ptr >= MemoryAllocator::endAddr || (uint64) ptr < MemoryAllocator::startAddr) retur
 589              		.loc 1 62 53
 590 0410 1305E0FF 		li	a0,-2
 591              	.LVL51:
 592 0414 67800000 		ret
 593              	.LVL52:
 594              	.L24:
  63:src/MemoryAllocator.cpp **** 
 595              		.loc 1 63 103
 596 0418 1305D0FF 		li	a0,-3
 597              	.LVL53:
 598 041c 67800000 		ret
 599              	.LVL54:
 600              	.L25:
 601 0420 1305D0FF 		li	a0,-3
 602              	.LVL55:
 603              		.loc 1 94 1
 604 0424 67800000 		ret
 605              		.cfi_endproc
 606              	.LFE6:
 608              		.globl	_ZN15MemoryAllocator11initialisedE
 609              		.globl	_ZN15MemoryAllocator11HEADER_SIZEE
 610              		.globl	_ZN15MemoryAllocator7endAddrE
 611              		.globl	_ZN15MemoryAllocator9startAddrE
 612              		.globl	_ZN15MemoryAllocator5firstE
 613              		.globl	_ZN15MemoryAllocator4freeE
 614              		.section	.rodata
 615              		.align	3
 618              	_ZN15MemoryAllocator11HEADER_SIZEE:
 619 0000 40000000 		.dword	64
 619      00000000 
 620              		.bss
 621              		.align	3
 622              		.set	.LANCHOR0,. + 0
 625              	_ZN15MemoryAllocator11initialisedE:
 626 0000 00       		.zero	1
 627 0001 00000000 		.zero	7
 627      000000
 630              	_ZN15MemoryAllocator9startAddrE:
 631 0008 00000000 		.zero	8
 631      00000000 
 634              	_ZN15MemoryAllocator7endAddrE:
GAS LISTING /tmp/ccAMbnkz.s 			page 16


 635 0010 00000000 		.zero	8
 635      00000000 
 638              	_ZN15MemoryAllocator4freeE:
 639 0018 00000000 		.zero	8
 639      00000000 
 642              	_ZN15MemoryAllocator5firstE:
 643 0020 00000000 		.zero	8
 643      00000000 
 644              		.text
 645              	.Letext0:
 646              		.file 3 "src/../h/../lib/hw.h"
 647              		.file 4 "src/../h/MemoryAllocator.h"
GAS LISTING /tmp/ccAMbnkz.s 			page 17


DEFINED SYMBOLS
                            *ABS*:0000000000000000 MemoryAllocator.cpp
     /tmp/ccAMbnkz.s:9      .text:0000000000000000 _ZN15MemoryAllocator7initMemEv
     /tmp/ccAMbnkz.s:13     .text:0000000000000000 .L0 
     /tmp/ccAMbnkz.s:14     .text:0000000000000000 .L0 
     /tmp/ccAMbnkz.s:15     .text:0000000000000004 .L0 
     /tmp/ccAMbnkz.s:17     .text:0000000000000008 .L0 
     /tmp/ccAMbnkz.s:19     .text:000000000000000c .L0 
     /tmp/ccAMbnkz.s:21     .text:000000000000000c .L0 
     /tmp/ccAMbnkz.s:24     .text:0000000000000018 .L0 
     /tmp/ccAMbnkz.s:25     .text:0000000000000018 .L0 
     /tmp/ccAMbnkz.s:29     .text:0000000000000028 .L0 
     /tmp/ccAMbnkz.s:31     .text:000000000000002c .L0 
     /tmp/ccAMbnkz.s:34     .text:0000000000000038 .L0 
     /tmp/ccAMbnkz.s:35     .text:0000000000000038 .L0 
     /tmp/ccAMbnkz.s:39     .text:0000000000000048 .L0 
     /tmp/ccAMbnkz.s:41     .text:000000000000004c .L0 
     /tmp/ccAMbnkz.s:42     .text:000000000000004c .L0 
     /tmp/ccAMbnkz.s:48     .text:0000000000000050 .L0 
     /tmp/ccAMbnkz.s:49     .text:0000000000000050 .L0 
     /tmp/ccAMbnkz.s:50     .text:0000000000000050 .L0 
     /tmp/ccAMbnkz.s:52     .text:0000000000000054 .L0 
     /tmp/ccAMbnkz.s:54     .text:0000000000000058 .L0 
     /tmp/ccAMbnkz.s:56     .text:000000000000005c .L0 
     /tmp/ccAMbnkz.s:58     .text:0000000000000060 .L0 
     /tmp/ccAMbnkz.s:60     .text:0000000000000064 .L0 
     /tmp/ccAMbnkz.s:62     .text:0000000000000068 .L0 
     /tmp/ccAMbnkz.s:63     .text:0000000000000068 .L0 
     /tmp/ccAMbnkz.s:68     .text:000000000000006c .L0 
     /tmp/ccAMbnkz.s:69     .text:000000000000006c .L0 
     /tmp/ccAMbnkz.s:70     .text:000000000000006c .L0 
     /tmp/ccAMbnkz.s:72     .text:0000000000000070 .L0 
     /tmp/ccAMbnkz.s:75     .text:0000000000000078 .L0 
     /tmp/ccAMbnkz.s:76     .text:0000000000000078 .L0 
     /tmp/ccAMbnkz.s:80     .text:0000000000000084 .L0 
     /tmp/ccAMbnkz.s:82     .text:0000000000000088 .L0 
     /tmp/ccAMbnkz.s:84     .text:000000000000008c .L0 
     /tmp/ccAMbnkz.s:85     .text:000000000000008c .L0 
     /tmp/ccAMbnkz.s:87     .text:0000000000000090 .L0 
     /tmp/ccAMbnkz.s:88     .text:0000000000000090 .L0 
     /tmp/ccAMbnkz.s:91     .text:0000000000000094 .L0 
     /tmp/ccAMbnkz.s:92     .text:0000000000000098 .L0 
     /tmp/ccAMbnkz.s:93     .text:0000000000000098 .L0 
     /tmp/ccAMbnkz.s:95     .text:000000000000009c .L0 
     /tmp/ccAMbnkz.s:97     .text:00000000000000a0 .L0 
     /tmp/ccAMbnkz.s:103    .text:00000000000000a0 _ZN15MemoryAllocator9mem_allocEm
     /tmp/ccAMbnkz.s:106    .text:00000000000000a0 .L0 
     /tmp/ccAMbnkz.s:108    .text:00000000000000a0 .L0 
     /tmp/ccAMbnkz.s:109    .text:00000000000000a4 .L0 
     /tmp/ccAMbnkz.s:115    .text:00000000000000b8 .L0 
     /tmp/ccAMbnkz.s:116    .text:00000000000000b8 .L0 
     /tmp/ccAMbnkz.s:117    .text:00000000000000b8 .L0 
     /tmp/ccAMbnkz.s:118    .text:00000000000000b8 .L0 
     /tmp/ccAMbnkz.s:119    .text:00000000000000b8 .L0 
     /tmp/ccAMbnkz.s:121    .text:00000000000000bc .L0 
     /tmp/ccAMbnkz.s:123    .text:00000000000000bc .L0 
     /tmp/ccAMbnkz.s:126    .text:00000000000000c4 .L0 
GAS LISTING /tmp/ccAMbnkz.s 			page 18


     /tmp/ccAMbnkz.s:127    .text:00000000000000c4 .L0 
     /tmp/ccAMbnkz.s:129    .text:00000000000000cc .L0 
     /tmp/ccAMbnkz.s:133    .text:00000000000000d0 .L0 
     /tmp/ccAMbnkz.s:134    .text:00000000000000d0 .L0 
     /tmp/ccAMbnkz.s:137    .text:00000000000000d4 .L0 
     /tmp/ccAMbnkz.s:140    .text:00000000000000d8 .L0 
     /tmp/ccAMbnkz.s:141    .text:00000000000000d8 .L0 
     /tmp/ccAMbnkz.s:148    .text:00000000000000f0 .L0 
     /tmp/ccAMbnkz.s:150    .text:00000000000000f4 .L0 
     /tmp/ccAMbnkz.s:151    .text:00000000000000f4 .L0 
     /tmp/ccAMbnkz.s:158    .text:000000000000010c .L0 
     /tmp/ccAMbnkz.s:161    .text:0000000000000110 .L0 
     /tmp/ccAMbnkz.s:162    .text:0000000000000110 .L0 
     /tmp/ccAMbnkz.s:164    .text:0000000000000114 .L0 
     /tmp/ccAMbnkz.s:166    .text:0000000000000118 .L0 
     /tmp/ccAMbnkz.s:168    .text:000000000000011c .L0 
     /tmp/ccAMbnkz.s:172    .text:0000000000000124 .L0 
     /tmp/ccAMbnkz.s:173    .text:0000000000000124 .L0 
     /tmp/ccAMbnkz.s:180    .text:000000000000013c .L0 
     /tmp/ccAMbnkz.s:184    .text:0000000000000140 .L0 
     /tmp/ccAMbnkz.s:185    .text:0000000000000140 .L0 
     /tmp/ccAMbnkz.s:187    .text:0000000000000144 .L0 
     /tmp/ccAMbnkz.s:188    .text:0000000000000144 .L0 
     /tmp/ccAMbnkz.s:192    .text:0000000000000148 .L0 
     /tmp/ccAMbnkz.s:194    .text:0000000000000150 .L0 
     /tmp/ccAMbnkz.s:195    .text:0000000000000150 .L0 
     /tmp/ccAMbnkz.s:197    .text:0000000000000154 .L0 
     /tmp/ccAMbnkz.s:198    .text:0000000000000154 .L0 
     /tmp/ccAMbnkz.s:200    .text:0000000000000158 .L0 
     /tmp/ccAMbnkz.s:202    .text:000000000000015c .L0 
     /tmp/ccAMbnkz.s:204    .text:0000000000000160 .L0 
     /tmp/ccAMbnkz.s:206    .text:0000000000000164 .L0 
     /tmp/ccAMbnkz.s:210    .text:0000000000000168 .L0 
     /tmp/ccAMbnkz.s:212    .text:0000000000000168 .L0 
     /tmp/ccAMbnkz.s:213    .text:0000000000000168 .L0 
     /tmp/ccAMbnkz.s:221    .text:0000000000000174 .L0 
     /tmp/ccAMbnkz.s:222    .text:0000000000000174 .L0 
     /tmp/ccAMbnkz.s:224    .text:0000000000000178 .L0 
     /tmp/ccAMbnkz.s:229    .text:000000000000017c .L0 
     /tmp/ccAMbnkz.s:230    .text:000000000000017c .L0 
     /tmp/ccAMbnkz.s:231    .text:000000000000017c .L0 
     /tmp/ccAMbnkz.s:233    .text:0000000000000180 .L0 
     /tmp/ccAMbnkz.s:235    .text:0000000000000184 .L0 
     /tmp/ccAMbnkz.s:237    .text:0000000000000188 .L0 
     /tmp/ccAMbnkz.s:239    .text:000000000000018c .L0 
     /tmp/ccAMbnkz.s:241    .text:0000000000000190 .L0 
     /tmp/ccAMbnkz.s:243    .text:0000000000000194 .L0 
     /tmp/ccAMbnkz.s:244    .text:0000000000000194 .L0 
     /tmp/ccAMbnkz.s:249    .text:0000000000000198 .L0 
     /tmp/ccAMbnkz.s:250    .text:0000000000000198 .L0 
     /tmp/ccAMbnkz.s:251    .text:0000000000000198 .L0 
     /tmp/ccAMbnkz.s:253    .text:000000000000019c .L0 
     /tmp/ccAMbnkz.s:255    .text:00000000000001a0 .L0 
     /tmp/ccAMbnkz.s:257    .text:00000000000001a4 .L0 
     /tmp/ccAMbnkz.s:259    .text:00000000000001a8 .L0 
     /tmp/ccAMbnkz.s:260    .text:00000000000001a8 .L0 
     /tmp/ccAMbnkz.s:262    .text:00000000000001ac .L0 
GAS LISTING /tmp/ccAMbnkz.s 			page 19


     /tmp/ccAMbnkz.s:263    .text:00000000000001ac .L0 
     /tmp/ccAMbnkz.s:270    .text:00000000000001c4 .L0 
     /tmp/ccAMbnkz.s:272    .text:00000000000001c8 .L0 
     /tmp/ccAMbnkz.s:273    .text:00000000000001c8 .L0 
     /tmp/ccAMbnkz.s:279    .text:00000000000001dc .L0 
     /tmp/ccAMbnkz.s:281    .text:00000000000001e0 .L0 
     /tmp/ccAMbnkz.s:282    .text:00000000000001e0 .L0 
     /tmp/ccAMbnkz.s:286    .text:00000000000001e8 .L0 
     /tmp/ccAMbnkz.s:291    .text:00000000000001ec .L0 
     /tmp/ccAMbnkz.s:293    .text:00000000000001f4 .L0 
     /tmp/ccAMbnkz.s:299    .text:00000000000001f4 _ZN15MemoryAllocator8mem_freeEPv
     /tmp/ccAMbnkz.s:302    .text:00000000000001f4 .L0 
     /tmp/ccAMbnkz.s:304    .text:00000000000001f4 .L0 
     /tmp/ccAMbnkz.s:305    .text:00000000000001f4 .L0 
     /tmp/ccAMbnkz.s:307    .text:00000000000001f8 .L0 
     /tmp/ccAMbnkz.s:308    .text:00000000000001f8 .L0 
     /tmp/ccAMbnkz.s:310    .text:00000000000001fc .L0 
     /tmp/ccAMbnkz.s:312    .text:0000000000000200 .L0 
     /tmp/ccAMbnkz.s:313    .text:0000000000000200 .L0 
     /tmp/ccAMbnkz.s:315    .text:0000000000000208 .L0 
     /tmp/ccAMbnkz.s:317    .text:000000000000020c .L0 
     /tmp/ccAMbnkz.s:319    .text:0000000000000214 .L0 
     /tmp/ccAMbnkz.s:321    .text:0000000000000218 .L0 
     /tmp/ccAMbnkz.s:322    .text:000000000000021c .L0 
     /tmp/ccAMbnkz.s:330    .text:0000000000000238 .L0 
     /tmp/ccAMbnkz.s:331    .text:0000000000000238 .L0 
     /tmp/ccAMbnkz.s:332    .text:0000000000000238 .L0 
     /tmp/ccAMbnkz.s:333    .text:0000000000000238 .L0 
     /tmp/ccAMbnkz.s:334    .text:0000000000000238 .L0 
     /tmp/ccAMbnkz.s:335    .text:0000000000000238 .L0 
     /tmp/ccAMbnkz.s:336    .text:0000000000000238 .L0 
     /tmp/ccAMbnkz.s:338    .text:000000000000023c .L0 
     /tmp/ccAMbnkz.s:340    .text:000000000000023c .L0 
     /tmp/ccAMbnkz.s:341    .text:000000000000023c .L0 
     /tmp/ccAMbnkz.s:343    .text:0000000000000240 .L0 
     /tmp/ccAMbnkz.s:348    .text:0000000000000244 .L0 
     /tmp/ccAMbnkz.s:349    .text:0000000000000244 .L0 
     /tmp/ccAMbnkz.s:350    .text:0000000000000244 .L0 
     /tmp/ccAMbnkz.s:352    .text:0000000000000248 .L0 
     /tmp/ccAMbnkz.s:354    .text:000000000000024c .L0 
     /tmp/ccAMbnkz.s:356    .text:0000000000000250 .L0 
     /tmp/ccAMbnkz.s:358    .text:0000000000000254 .L0 
     /tmp/ccAMbnkz.s:360    .text:0000000000000258 .L0 
     /tmp/ccAMbnkz.s:362    .text:000000000000025c .L0 
     /tmp/ccAMbnkz.s:363    .text:000000000000025c .L0 
     /tmp/ccAMbnkz.s:368    .text:0000000000000260 .L0 
     /tmp/ccAMbnkz.s:369    .text:0000000000000260 .L0 
     /tmp/ccAMbnkz.s:370    .text:0000000000000260 .L0 
     /tmp/ccAMbnkz.s:373    .text:0000000000000268 .L0 
     /tmp/ccAMbnkz.s:374    .text:0000000000000268 .L0 
     /tmp/ccAMbnkz.s:376    .text:000000000000026c .L0 
     /tmp/ccAMbnkz.s:378    .text:0000000000000270 .L0 
     /tmp/ccAMbnkz.s:380    .text:0000000000000274 .L0 
     /tmp/ccAMbnkz.s:382    .text:000000000000027c .L0 
     /tmp/ccAMbnkz.s:384    .text:0000000000000280 .L0 
     /tmp/ccAMbnkz.s:387    .text:0000000000000284 .L0 
     /tmp/ccAMbnkz.s:388    .text:0000000000000284 .L0 
GAS LISTING /tmp/ccAMbnkz.s 			page 20


     /tmp/ccAMbnkz.s:390    .text:0000000000000288 .L0 
     /tmp/ccAMbnkz.s:392    .text:000000000000028c .L0 
     /tmp/ccAMbnkz.s:394    .text:0000000000000290 .L0 
     /tmp/ccAMbnkz.s:398    .text:0000000000000298 .L0 
     /tmp/ccAMbnkz.s:399    .text:0000000000000298 .L0 
     /tmp/ccAMbnkz.s:406    .text:00000000000002b0 .L0 
     /tmp/ccAMbnkz.s:408    .text:00000000000002b4 .L0 
     /tmp/ccAMbnkz.s:409    .text:00000000000002b4 .L0 
     /tmp/ccAMbnkz.s:411    .text:00000000000002b8 .L0 
     /tmp/ccAMbnkz.s:417    .text:00000000000002c8 .L0 
     /tmp/ccAMbnkz.s:421    .text:00000000000002cc .L0 
     /tmp/ccAMbnkz.s:425    .text:00000000000002d0 .L0 
     /tmp/ccAMbnkz.s:426    .text:00000000000002d0 .L0 
     /tmp/ccAMbnkz.s:431    .text:00000000000002dc .L0 
     /tmp/ccAMbnkz.s:435    .text:00000000000002e0 .L0 
     /tmp/ccAMbnkz.s:436    .text:00000000000002e0 .L0 
     /tmp/ccAMbnkz.s:438    .text:00000000000002e4 .L0 
     /tmp/ccAMbnkz.s:440    .text:00000000000002e8 .L0 
     /tmp/ccAMbnkz.s:442    .text:00000000000002ec .L0 
     /tmp/ccAMbnkz.s:444    .text:00000000000002f0 .L0 
     /tmp/ccAMbnkz.s:446    .text:00000000000002f4 .L0 
     /tmp/ccAMbnkz.s:448    .text:00000000000002f8 .L0 
     /tmp/ccAMbnkz.s:451    .text:00000000000002fc .L0 
     /tmp/ccAMbnkz.s:453    .text:0000000000000300 .L0 
     /tmp/ccAMbnkz.s:455    .text:0000000000000304 .L0 
     /tmp/ccAMbnkz.s:457    .text:0000000000000308 .L0 
     /tmp/ccAMbnkz.s:459    .text:000000000000030c .L0 
     /tmp/ccAMbnkz.s:463    .text:0000000000000310 .L0 
     /tmp/ccAMbnkz.s:464    .text:0000000000000310 .L0 
     /tmp/ccAMbnkz.s:471    .text:0000000000000328 .L0 
     /tmp/ccAMbnkz.s:473    .text:000000000000032c .L0 
     /tmp/ccAMbnkz.s:474    .text:000000000000032c .L0 
     /tmp/ccAMbnkz.s:476    .text:0000000000000330 .L0 
     /tmp/ccAMbnkz.s:483    .text:0000000000000348 .L0 
     /tmp/ccAMbnkz.s:485    .text:0000000000000350 .L0 
     /tmp/ccAMbnkz.s:486    .text:0000000000000350 .L0 
     /tmp/ccAMbnkz.s:488    .text:0000000000000354 .L0 
     /tmp/ccAMbnkz.s:489    .text:0000000000000358 .L0 
     /tmp/ccAMbnkz.s:490    .text:0000000000000358 .L0 
     /tmp/ccAMbnkz.s:492    .text:000000000000035c .L0 
     /tmp/ccAMbnkz.s:493    .text:000000000000035c .L0 
     /tmp/ccAMbnkz.s:495    .text:0000000000000360 .L0 
     /tmp/ccAMbnkz.s:497    .text:0000000000000364 .L0 
     /tmp/ccAMbnkz.s:499    .text:0000000000000368 .L0 
     /tmp/ccAMbnkz.s:502    .text:000000000000036c .L0 
     /tmp/ccAMbnkz.s:505    .text:0000000000000370 .L0 
     /tmp/ccAMbnkz.s:507    .text:0000000000000374 .L0 
     /tmp/ccAMbnkz.s:511    .text:0000000000000378 .L0 
     /tmp/ccAMbnkz.s:513    .text:0000000000000378 .L0 
     /tmp/ccAMbnkz.s:514    .text:0000000000000378 .L0 
     /tmp/ccAMbnkz.s:520    .text:0000000000000390 .L0 
     /tmp/ccAMbnkz.s:522    .text:0000000000000394 .L0 
     /tmp/ccAMbnkz.s:523    .text:0000000000000394 .L0 
     /tmp/ccAMbnkz.s:525    .text:0000000000000398 .L0 
     /tmp/ccAMbnkz.s:530    .text:00000000000003a8 .L0 
     /tmp/ccAMbnkz.s:531    .text:00000000000003a8 .L0 
     /tmp/ccAMbnkz.s:534    .text:00000000000003b0 .L0 
GAS LISTING /tmp/ccAMbnkz.s 			page 21


     /tmp/ccAMbnkz.s:535    .text:00000000000003b0 .L0 
     /tmp/ccAMbnkz.s:539    .text:00000000000003b8 .L0 
     /tmp/ccAMbnkz.s:545    .text:00000000000003cc .L0 
     /tmp/ccAMbnkz.s:547    .text:00000000000003d0 .L0 
     /tmp/ccAMbnkz.s:548    .text:00000000000003d0 .L0 
     /tmp/ccAMbnkz.s:550    .text:00000000000003d4 .L0 
     /tmp/ccAMbnkz.s:555    .text:00000000000003dc .L0 
     /tmp/ccAMbnkz.s:560    .text:00000000000003e4 .L0 
     /tmp/ccAMbnkz.s:563    .text:00000000000003e8 .L0 
     /tmp/ccAMbnkz.s:568    .text:00000000000003f0 .L0 
     /tmp/ccAMbnkz.s:575    .text:0000000000000408 .L0 
     /tmp/ccAMbnkz.s:576    .text:0000000000000408 .L0 
     /tmp/ccAMbnkz.s:577    .text:0000000000000408 .L0 
     /tmp/ccAMbnkz.s:578    .text:0000000000000408 .L0 
     /tmp/ccAMbnkz.s:579    .text:0000000000000408 .L0 
     /tmp/ccAMbnkz.s:580    .text:0000000000000408 .L0 
     /tmp/ccAMbnkz.s:581    .text:0000000000000408 .L0 
     /tmp/ccAMbnkz.s:582    .text:0000000000000408 .L0 
     /tmp/ccAMbnkz.s:584    .text:0000000000000408 .L0 
     /tmp/ccAMbnkz.s:590    .text:0000000000000410 .L0 
     /tmp/ccAMbnkz.s:596    .text:0000000000000418 .L0 
     /tmp/ccAMbnkz.s:604    .text:0000000000000424 .L0 
     /tmp/ccAMbnkz.s:605    .text:0000000000000428 .L0 
     /tmp/ccAMbnkz.s:625    .bss:0000000000000000 _ZN15MemoryAllocator11initialisedE
     /tmp/ccAMbnkz.s:618    .rodata:0000000000000000 _ZN15MemoryAllocator11HEADER_SIZEE
     /tmp/ccAMbnkz.s:634    .bss:0000000000000010 _ZN15MemoryAllocator7endAddrE
     /tmp/ccAMbnkz.s:630    .bss:0000000000000008 _ZN15MemoryAllocator9startAddrE
     /tmp/ccAMbnkz.s:642    .bss:0000000000000020 _ZN15MemoryAllocator5firstE
     /tmp/ccAMbnkz.s:638    .bss:0000000000000018 _ZN15MemoryAllocator4freeE
     /tmp/ccAMbnkz.s:622    .bss:0000000000000000 .LANCHOR0
     /tmp/ccAMbnkz.s:648    .text:0000000000000428 .L0 
     /tmp/ccAMbnkz.s:21     .text:000000000000000c .L0 
     /tmp/ccAMbnkz.s:25     .text:0000000000000018 .L0 
     /tmp/ccAMbnkz.s:31     .text:000000000000002c .L0 
     /tmp/ccAMbnkz.s:35     .text:0000000000000038 .L0 
     /tmp/ccAMbnkz.s:127    .text:00000000000000c4 .L0 
     /tmp/ccAMbnkz.s:142    .text:00000000000000dc .L0 
     /tmp/ccAMbnkz.s:151    .text:00000000000000f4 .L0 
     /tmp/ccAMbnkz.s:173    .text:0000000000000124 .L0 
     /tmp/ccAMbnkz.s:263    .text:00000000000001ac .L0 
     /tmp/ccAMbnkz.s:313    .text:0000000000000200 .L0 
     /tmp/ccAMbnkz.s:317    .text:000000000000020c .L0 
     /tmp/ccAMbnkz.s:380    .text:0000000000000274 .L0 
     /tmp/ccAMbnkz.s:399    .text:0000000000000298 .L0 
     /tmp/ccAMbnkz.s:426    .text:00000000000002d0 .L0 
     /tmp/ccAMbnkz.s:464    .text:0000000000000310 .L0 
     /tmp/ccAMbnkz.s:476    .text:0000000000000330 .L0 
     /tmp/ccAMbnkz.s:483    .text:0000000000000348 .L0 
     /tmp/ccAMbnkz.s:514    .text:0000000000000378 .L0 
     /tmp/ccAMbnkz.s:539    .text:00000000000003b8 .L0 
     /tmp/ccAMbnkz.s:568    .text:00000000000003f0 .L0 
     /tmp/ccAMbnkz.s:89     .text:0000000000000094 .L1
     /tmp/ccAMbnkz.s:288    .text:00000000000001ec .L9
     /tmp/ccAMbnkz.s:209    .text:0000000000000168 .L11
     /tmp/ccAMbnkz.s:190    .text:0000000000000148 .L4
     /tmp/ccAMbnkz.s:170    .text:0000000000000124 .L7
     /tmp/ccAMbnkz.s:217    .text:0000000000000174 .L12
GAS LISTING /tmp/ccAMbnkz.s 			page 22


     /tmp/ccAMbnkz.s:131    .text:00000000000000d0 .L6
     /tmp/ccAMbnkz.s:181    .text:0000000000000140 .L8
     /tmp/ccAMbnkz.s:574    .text:0000000000000408 .L22
     /tmp/ccAMbnkz.s:588    .text:0000000000000410 .L23
     /tmp/ccAMbnkz.s:594    .text:0000000000000418 .L24
     /tmp/ccAMbnkz.s:600    .text:0000000000000420 .L25
     /tmp/ccAMbnkz.s:419    .text:00000000000002cc .L26
     /tmp/ccAMbnkz.s:423    .text:00000000000002d0 .L15
     /tmp/ccAMbnkz.s:396    .text:0000000000000298 .L35
     /tmp/ccAMbnkz.s:433    .text:00000000000002e0 .L17
     /tmp/ccAMbnkz.s:449    .text:00000000000002fc .L16
     /tmp/ccAMbnkz.s:429    .text:00000000000002dc .L28
     /tmp/ccAMbnkz.s:461    .text:0000000000000310 .L18
     /tmp/ccAMbnkz.s:510    .text:0000000000000378 .L36
     /tmp/ccAMbnkz.s:566    .text:00000000000003f0 .L20
     /tmp/ccAMbnkz.s:553    .text:00000000000003dc .L37
     /tmp/ccAMbnkz.s:558    .text:00000000000003e4 .L30
     /tmp/ccAMbnkz.s:537    .text:00000000000003b8 .L19
     /tmp/ccAMbnkz.s:481    .text:0000000000000348 .L21
     /tmp/ccAMbnkz.s:1556   .debug_abbrev:0000000000000000 .Ldebug_abbrev0
     /tmp/ccAMbnkz.s:2746   .debug_str:0000000000000416 .LASF81
     /tmp/ccAMbnkz.s:2774   .debug_str:00000000000005f3 .LASF82
     /tmp/ccAMbnkz.s:2792   .debug_str:00000000000006a4 .LASF83
     /tmp/ccAMbnkz.s:5      .text:0000000000000000 .Ltext0
     /tmp/ccAMbnkz.s:645    .text:0000000000000428 .Letext0
     /tmp/ccAMbnkz.s:2606   .debug_line:0000000000000000 .Ldebug_line0
     /tmp/ccAMbnkz.s:2694   .debug_str:00000000000002ca .LASF0
     /tmp/ccAMbnkz.s:2704   .debug_str:000000000000031b .LASF1
     /tmp/ccAMbnkz.s:2684   .debug_str:0000000000000278 .LASF2
     /tmp/ccAMbnkz.s:2666   .debug_str:00000000000001c9 .LASF4
     /tmp/ccAMbnkz.s:2730   .debug_str:00000000000003b7 .LASF3
     /tmp/ccAMbnkz.s:2626   .debug_str:0000000000000065 .LASF5
     /tmp/ccAMbnkz.s:2706   .debug_str:000000000000032e .LASF6
     /tmp/ccAMbnkz.s:2692   .debug_str:00000000000002b7 .LASF7
     /tmp/ccAMbnkz.s:2762   .debug_str:0000000000000576 .LASF8
     /tmp/ccAMbnkz.s:2658   .debug_str:0000000000000175 .LASF9
     /tmp/ccAMbnkz.s:2714   .debug_str:000000000000035a .LASF10
     /tmp/ccAMbnkz.s:2750   .debug_str:00000000000004e3 .LASF11
     /tmp/ccAMbnkz.s:2628   .debug_str:000000000000006c .LASF12
     /tmp/ccAMbnkz.s:2608   .debug_str:0000000000000000 .LASF13
     /tmp/ccAMbnkz.s:2630   .debug_str:000000000000007c .LASF14
     /tmp/ccAMbnkz.s:2724   .debug_str:000000000000038a .LASF15
     /tmp/ccAMbnkz.s:2636   .debug_str:0000000000000099 .LASF16
     /tmp/ccAMbnkz.s:2740   .debug_str:0000000000000400 .LASF41
     /tmp/ccAMbnkz.s:2696   .debug_str:00000000000002d7 .LASF84
     /tmp/ccAMbnkz.s:2702   .debug_str:0000000000000313 .LASF17
     /tmp/ccAMbnkz.s:2634   .debug_str:0000000000000091 .LASF18
     /tmp/ccAMbnkz.s:2662   .debug_str:00000000000001a0 .LASF19
     /tmp/ccAMbnkz.s:2766   .debug_str:00000000000005a9 .LASF21
     /tmp/ccAMbnkz.s:2698   .debug_str:00000000000002e3 .LASF85
     /tmp/ccAMbnkz.s:2782   .debug_str:000000000000064b .LASF20
     /tmp/ccAMbnkz.s:2738   .debug_str:00000000000003e3 .LASF22
     /tmp/ccAMbnkz.s:2722   .debug_str:000000000000037c .LASF23
     /tmp/ccAMbnkz.s:2776   .debug_str:000000000000060b .LASF24
     /tmp/ccAMbnkz.s:2676   .debug_str:0000000000000245 .LASF25
     /tmp/ccAMbnkz.s:2668   .debug_str:00000000000001d0 .LASF26
     /tmp/ccAMbnkz.s:2640   .debug_str:00000000000000ca .LASF27
GAS LISTING /tmp/ccAMbnkz.s 			page 23


     /tmp/ccAMbnkz.s:2646   .debug_str:00000000000000e8 .LASF28
     /tmp/ccAMbnkz.s:2680   .debug_str:000000000000025b .LASF29
     /tmp/ccAMbnkz.s:2622   .debug_str:000000000000003f .LASF30
     /tmp/ccAMbnkz.s:2708   .debug_str:0000000000000341 .LASF31
     /tmp/ccAMbnkz.s:2700   .debug_str:00000000000002fb .LASF32
     /tmp/ccAMbnkz.s:2710   .debug_str:0000000000000349 .LASF33
     /tmp/ccAMbnkz.s:2612   .debug_str:0000000000000017 .LASF34
     /tmp/ccAMbnkz.s:2642   .debug_str:00000000000000d8 .LASF35
     /tmp/ccAMbnkz.s:2748   .debug_str:00000000000004da .LASF36
     /tmp/ccAMbnkz.s:2786   .debug_str:0000000000000676 .LASF37
     /tmp/ccAMbnkz.s:2772   .debug_str:00000000000005ee .LASF38
     /tmp/ccAMbnkz.s:2720   .debug_str:0000000000000375 .LASF39
     /tmp/ccAMbnkz.s:2728   .debug_str:00000000000003b0 .LASF40
     /tmp/ccAMbnkz.s:2726   .debug_str:00000000000003a0 .LASF43
     /tmp/ccAMbnkz.s:2620   .debug_str:0000000000000036 .LASF42
     /tmp/ccAMbnkz.s:2752   .debug_str:00000000000004f2 .LASF44
     /tmp/ccAMbnkz.s:2754   .debug_str:0000000000000519 .LASF45
     /tmp/ccAMbnkz.s:2670   .debug_str:00000000000001f1 .LASF46
     /tmp/ccAMbnkz.s:2716   .debug_str:0000000000000369 .LASF47
     /tmp/ccAMbnkz.s:2672   .debug_str:000000000000020f .LASF48
     /tmp/ccAMbnkz.s:2734   .debug_str:00000000000003d3 .LASF49
     /tmp/ccAMbnkz.s:2758   .debug_str:0000000000000540 .LASF50
     /tmp/ccAMbnkz.s:2632   .debug_str:0000000000000088 .LASF51
     /tmp/ccAMbnkz.s:2660   .debug_str:0000000000000183 .LASF52
     /tmp/ccAMbnkz.s:2610   .debug_str:0000000000000010 .LASF53
     /tmp/ccAMbnkz.s:2650   .debug_str:0000000000000113 .LASF54
     /tmp/ccAMbnkz.s:2744   .debug_str:000000000000040d .LASF55
     /tmp/ccAMbnkz.s:2780   .debug_str:000000000000062f .LASF56
     /tmp/ccAMbnkz.s:2736   .debug_str:00000000000003da .LASF57
     /tmp/ccAMbnkz.s:2690   .debug_str:000000000000029b .LASF58
     /tmp/ccAMbnkz.s:2652   .debug_str:0000000000000130 .LASF59
     /tmp/ccAMbnkz.s:2682   .debug_str:0000000000000268 .LASF60
     /tmp/ccAMbnkz.s:2648   .debug_str:0000000000000107 .LASF61
     /tmp/ccAMbnkz.s:2624   .debug_str:000000000000005d .LASF86
     /tmp/ccAMbnkz.s:2654   .debug_str:0000000000000135 .LASF87
     /tmp/ccAMbnkz.s:2618   .debug_str:000000000000002c .LASF62
     /tmp/ccAMbnkz.s:2614   .debug_str:000000000000001d .LASF63
     /tmp/ccAMbnkz.s:2712   .debug_str:000000000000034e .LASF64
     /tmp/ccAMbnkz.s:2778   .debug_str:000000000000062a .LASF65
     /tmp/ccAMbnkz.s:2790   .debug_str:000000000000069e .LASF66
     /tmp/ccAMbnkz.s:2760   .debug_str:000000000000055a .LASF88
     /tmp/ccAMbnkz.s:2688   .debug_str:0000000000000291 .LASF89
     /tmp/ccAMbnkz.s:2638   .debug_str:00000000000000af .LASF90
     /tmp/ccAMbnkz.s:2732   .debug_str:00000000000003c9 .LASF67
     /tmp/ccAMbnkz.s:2768   .debug_str:00000000000005c5 .LASF68
     /tmp/ccAMbnkz.s:2644   .debug_str:00000000000000df .LASF69
     /tmp/ccAMbnkz.s:2656   .debug_str:0000000000000154 .LASF70
     /tmp/ccAMbnkz.s:2756   .debug_str:0000000000000525 .LASF71
     /tmp/ccAMbnkz.s:2674   .debug_str:0000000000000229 .LASF72
     /tmp/ccAMbnkz.s:2784   .debug_str:0000000000000656 .LASF73
     /tmp/ccAMbnkz.s:2664   .debug_str:00000000000001ab .LASF74
     /tmp/ccAMbnkz.s:2764   .debug_str:0000000000000586 .LASF75
     /tmp/ccAMbnkz.s:2788   .debug_str:000000000000067b .LASF76
     /tmp/ccAMbnkz.s:300    .text:00000000000001f4 .LFB6
     /tmp/ccAMbnkz.s:606    .text:0000000000000428 .LFE6
     /tmp/ccAMbnkz.s:2305   .debug_loc:0000000000000000 .LLST7
     /tmp/ccAMbnkz.s:2379   .debug_loc:000000000000011c .LLST8
GAS LISTING /tmp/ccAMbnkz.s 			page 24


     /tmp/ccAMbnkz.s:2422   .debug_loc:00000000000001bd .LLST9
     /tmp/ccAMbnkz.s:2616   .debug_str:0000000000000025 .LASF77
     /tmp/ccAMbnkz.s:2429   .debug_loc:00000000000001e0 .LLST10
     /tmp/ccAMbnkz.s:2453   .debug_loc:0000000000000250 .LLST11
     /tmp/ccAMbnkz.s:346    .text:0000000000000244 .LBB17
     /tmp/ccAMbnkz.s:367    .text:0000000000000260 .LBE17
     /tmp/ccAMbnkz.s:2464   .debug_loc:0000000000000286 .LLST12
     /tmp/ccAMbnkz.s:2472   .debug_loc:00000000000002aa .LLST13
     /tmp/ccAMbnkz.s:404    .text:00000000000002b0 .LVL27
     /tmp/ccAMbnkz.s:469    .text:0000000000000328 .LVL35
     /tmp/ccAMbnkz.s:480    .text:0000000000000348 .LVL36
     /tmp/ccAMbnkz.s:518    .text:0000000000000390 .LVL40
     /tmp/ccAMbnkz.s:543    .text:00000000000003cc .LVL42
     /tmp/ccAMbnkz.s:571    .text:0000000000000404 .LVL47
     /tmp/ccAMbnkz.s:104    .text:00000000000000a0 .LFB5
     /tmp/ccAMbnkz.s:294    .text:00000000000001f4 .LFE5
     /tmp/ccAMbnkz.s:2742   .debug_str:0000000000000408 .LASF78
     /tmp/ccAMbnkz.s:2479   .debug_loc:00000000000002cd .LLST2
     /tmp/ccAMbnkz.s:2770   .debug_str:00000000000005e6 .LASF79
     /tmp/ccAMbnkz.s:2537   .debug_loc:000000000000039b .LLST3
     /tmp/ccAMbnkz.s:219    .text:0000000000000174 .LBB13
     /tmp/ccAMbnkz.s:284    .text:00000000000001e8 .LBE13
     /tmp/ccAMbnkz.s:2686   .debug_str:0000000000000286 .LASF80
     /tmp/ccAMbnkz.s:2556   .debug_loc:00000000000003f7 .LLST4
     /tmp/ccAMbnkz.s:227    .text:000000000000017c .LBB14
     /tmp/ccAMbnkz.s:248    .text:0000000000000198 .LBE14
     /tmp/ccAMbnkz.s:2563   .debug_loc:000000000000041a .LLST5
     /tmp/ccAMbnkz.s:2571   .debug_loc:000000000000043e .LLST6
     /tmp/ccAMbnkz.s:268    .text:00000000000001c4 .LVL19
     /tmp/ccAMbnkz.s:277    .text:00000000000001dc .LVL20
     /tmp/ccAMbnkz.s:144    .text:00000000000000ec .LVL6
     /tmp/ccAMbnkz.s:156    .text:000000000000010c .LVL9
     /tmp/ccAMbnkz.s:178    .text:000000000000013c .LVL11
     /tmp/ccAMbnkz.s:214    .text:0000000000000170 .LVL14
     /tmp/ccAMbnkz.s:10     .text:0000000000000000 .LFB4
     /tmp/ccAMbnkz.s:98     .text:00000000000000a0 .LFE4
     /tmp/ccAMbnkz.s:45     .text:0000000000000050 .LBB10
     /tmp/ccAMbnkz.s:67     .text:000000000000006c .LBE10
     /tmp/ccAMbnkz.s:2578   .debug_loc:0000000000000461 .LLST0
     /tmp/ccAMbnkz.s:2586   .debug_loc:0000000000000485 .LLST1
     /tmp/ccAMbnkz.s:2718   .debug_str:0000000000000370 .LASF91
     /tmp/ccAMbnkz.s:2678   .debug_str:0000000000000255 .LASF92
     /tmp/ccAMbnkz.s:303    .text:00000000000001f4 .LVL22
     /tmp/ccAMbnkz.s:402    .text:00000000000002a8 .LVL26
     /tmp/ccAMbnkz.s:418    .text:00000000000002cc .LVL29
     /tmp/ccAMbnkz.s:422    .text:00000000000002d0 .LVL30
     /tmp/ccAMbnkz.s:460    .text:0000000000000310 .LVL33
     /tmp/ccAMbnkz.s:573    .text:0000000000000408 .LVL48
     /tmp/ccAMbnkz.s:585    .text:000000000000040c .LVL49
     /tmp/ccAMbnkz.s:587    .text:0000000000000410 .LVL50
     /tmp/ccAMbnkz.s:591    .text:0000000000000414 .LVL51
     /tmp/ccAMbnkz.s:593    .text:0000000000000418 .LVL52
     /tmp/ccAMbnkz.s:597    .text:000000000000041c .LVL53
     /tmp/ccAMbnkz.s:599    .text:0000000000000420 .LVL54
     /tmp/ccAMbnkz.s:602    .text:0000000000000424 .LVL55
     /tmp/ccAMbnkz.s:344    .text:0000000000000244 .LVL23
     /tmp/ccAMbnkz.s:500    .text:0000000000000368 .LVL37
GAS LISTING /tmp/ccAMbnkz.s 			page 25


     /tmp/ccAMbnkz.s:509    .text:0000000000000378 .LVL39
     /tmp/ccAMbnkz.s:540    .text:00000000000003c0 .LVL41
     /tmp/ccAMbnkz.s:552    .text:00000000000003dc .LVL43
     /tmp/ccAMbnkz.s:557    .text:00000000000003e4 .LVL44
     /tmp/ccAMbnkz.s:565    .text:00000000000003f0 .LVL46
     /tmp/ccAMbnkz.s:385    .text:0000000000000284 .LVL25
     /tmp/ccAMbnkz.s:416    .text:00000000000002c8 .LVL28
     /tmp/ccAMbnkz.s:503    .text:000000000000036c .LVL38
     /tmp/ccAMbnkz.s:561    .text:00000000000003e8 .LVL45
     /tmp/ccAMbnkz.s:427    .text:00000000000002d8 .LVL31
     /tmp/ccAMbnkz.s:465    .text:0000000000000318 .LVL34
     /tmp/ccAMbnkz.s:365    .text:0000000000000260 .LVL24
     /tmp/ccAMbnkz.s:107    .text:00000000000000a0 .LVL2
     /tmp/ccAMbnkz.s:130    .text:00000000000000d0 .LVL3
     /tmp/ccAMbnkz.s:135    .text:00000000000000d4 .LVL4
     /tmp/ccAMbnkz.s:138    .text:00000000000000d8 .LVL5
     /tmp/ccAMbnkz.s:174    .text:000000000000012c .LVL10
     /tmp/ccAMbnkz.s:189    .text:0000000000000148 .LVL12
     /tmp/ccAMbnkz.s:208    .text:0000000000000168 .LVL13
     /tmp/ccAMbnkz.s:264    .text:00000000000001b4 .LVL18
     /tmp/ccAMbnkz.s:287    .text:00000000000001ec .LVL21
     /tmp/ccAMbnkz.s:146    .text:00000000000000f0 .LVL7
     /tmp/ccAMbnkz.s:154    .text:0000000000000104 .LVL8
     /tmp/ccAMbnkz.s:216    .text:0000000000000174 .LVL15
     /tmp/ccAMbnkz.s:225    .text:000000000000017c .LVL16
     /tmp/ccAMbnkz.s:246    .text:0000000000000198 .LVL17
     /tmp/ccAMbnkz.s:44     .text:0000000000000050 .LVL0
     /tmp/ccAMbnkz.s:65     .text:000000000000006c .LVL1
     /tmp/ccAMbnkz.s:649    .debug_info:0000000000000000 .Ldebug_info0

UNDEFINED SYMBOLS
HEAP_START_ADDR
HEAP_END_ADDR
_ZN7AVLTree11findFreeSegEPS_m
_ZN7AVLTree6removeEPS_S0_
_ZN7AVLTree8removeLLEPS_S0_
_ZN7AVLTree6insertEPS_S0_
_ZN7AVLTree6swapLLEPS_S0_S0_
_ZN7AVLTree8insertLLEPS_S0_
