GAS LISTING /tmp/ccjSqnFc.s 			page 1


   1              		.file	"MemoryAllocator.cpp"
   2              		.option pic
   3              		.option norelax
   4              		.text
   5              	.Ltext0:
   6              		.align	2
   7              		.globl	_ZN15MemoryAllocator4initEv
   9              	_ZN15MemoryAllocator4initEv:
  10              	.LFB4:
  11              		.file 1 "src/MemoryAllocator.cpp"
   1:src/MemoryAllocator.cpp **** //
   2:src/MemoryAllocator.cpp **** // Created by os on 5/1/24.
   3:src/MemoryAllocator.cpp **** //
   4:src/MemoryAllocator.cpp **** 
   5:src/MemoryAllocator.cpp **** #include "../h/MemoryAllocator.h"
   6:src/MemoryAllocator.cpp **** 
   7:src/MemoryAllocator.cpp **** AVLTree* MemoryAllocator::free = nullptr;
   8:src/MemoryAllocator.cpp **** AVLTree* MemoryAllocator::first = nullptr;
   9:src/MemoryAllocator.cpp **** uint64 MemoryAllocator::startAddr = 0;
  10:src/MemoryAllocator.cpp **** uint64 MemoryAllocator::endAddr = 0;
  11:src/MemoryAllocator.cpp **** const uint64 MemoryAllocator::HEADER_SIZE = (uint64)
  12:src/MemoryAllocator.cpp ****         ((sizeof(AVLTree) + MEM_BLOCK_SIZE - 1) / MEM_BLOCK_SIZE) * MEM_BLOCK_SIZE;
  13:src/MemoryAllocator.cpp **** bool MemoryAllocator::initialised = false;
  14:src/MemoryAllocator.cpp **** 
  15:src/MemoryAllocator.cpp **** 
  16:src/MemoryAllocator.cpp **** void MemoryAllocator::init() {
  12              		.loc 1 16 30
  13              		.cfi_startproc
  14 0000 130101FF 		addi	sp,sp,-16
  15              		.cfi_def_cfa_offset 16
  16 0004 23348100 		sd	s0,8(sp)
  17              		.cfi_offset 8, -8
  18 0008 13040101 		addi	s0,sp,16
  19              		.cfi_def_cfa 8, 0
  17:src/MemoryAllocator.cpp ****     if (MemoryAllocator::initialised) return;
  20              		.loc 1 17 5
  21 000c 97070000 		lbu	a5,.LANCHOR0
  21      83C70700 
  22 0014 63920708 		bnez	a5,.L1
  18:src/MemoryAllocator.cpp **** 
  19:src/MemoryAllocator.cpp ****     MemoryAllocator::startAddr = (((uint64)HEAP_START_ADDR + MEM_BLOCK_SIZE - 1)/MEM_BLOCK_SIZE) * 
  23              		.loc 1 19 5
  24              		.loc 1 19 77 is_stmt 0
  25 0018 97070000 		la	a5,HEAP_START_ADDR
  25      83B70700 
  26 0020 83B70700 		ld	a5,0(a5)
  27 0024 9387F703 		addi	a5,a5,63
  28              		.loc 1 19 98
  29 0028 93F707FC 		andi	a5,a5,-64
  30              		.loc 1 19 32
  31 002c 17070000 		lla	a4,.LANCHOR0
  31      13070700 
  32 0034 2334F700 		sd	a5,8(a4)
  20:src/MemoryAllocator.cpp ****     MemoryAllocator::endAddr = ((uint64)HEAP_END_ADDR / MEM_BLOCK_SIZE) * MEM_BLOCK_SIZE;
  33              		.loc 1 20 5 is_stmt 1
  34              		.loc 1 20 73 is_stmt 0
  35 0038 97060000 		la	a3,HEAP_END_ADDR
GAS LISTING /tmp/ccjSqnFc.s 			page 2


  35      83B60600 
  36 0040 83B60600 		ld	a3,0(a3)
  37 0044 93F606FC 		andi	a3,a3,-64
  38              		.loc 1 20 30
  39 0048 2338D700 		sd	a3,16(a4)
  21:src/MemoryAllocator.cpp **** 
  22:src/MemoryAllocator.cpp ****     MemoryAllocator::free = (AVLTree*) MemoryAllocator::startAddr;
  40              		.loc 1 22 5 is_stmt 1
  41              		.loc 1 22 27 is_stmt 0
  42 004c 233CF700 		sd	a5,24(a4)
  23:src/MemoryAllocator.cpp ****     MemoryAllocator::free->resetAll();
  43              		.loc 1 23 5 is_stmt 1
  44              	.LVL0:
  45              	.LBB12:
  46              	.LBB13:
  47              		.file 2 "src/../h/AVLTree.h"
   1:src/../h/AVLTree.h **** //
   2:src/../h/AVLTree.h **** // Created by os on 5/1/24.
   3:src/../h/AVLTree.h **** //
   4:src/../h/AVLTree.h **** 
   5:src/../h/AVLTree.h **** #ifndef PROJEKAT_AVLTREE_H
   6:src/../h/AVLTree.h **** #define PROJEKAT_AVLTREE_H
   7:src/../h/AVLTree.h **** 
   8:src/../h/AVLTree.h **** #include "../lib/hw.h"
   9:src/../h/AVLTree.h **** #include "../lib/console.h"
  10:src/../h/AVLTree.h **** 
  11:src/../h/AVLTree.h **** class AVLTree {
  12:src/../h/AVLTree.h **** private:
  13:src/../h/AVLTree.h **** 
  14:src/../h/AVLTree.h **** 
  15:src/../h/AVLTree.h ****     static int getBalance(AVLTree* node);
  16:src/../h/AVLTree.h ****     static int max(const AVLTree* n1, const AVLTree* n2);
  17:src/../h/AVLTree.h ****     static bool isRightSon(const AVLTree* node);
  18:src/../h/AVLTree.h ****     static AVLTree* findSuccessor(AVLTree* node);
  19:src/../h/AVLTree.h ****     static AVLTree* rightRotation(AVLTree* node);
  20:src/../h/AVLTree.h ****     static AVLTree* leftRotation(AVLTree* node);
  21:src/../h/AVLTree.h ****     static AVLTree* balance(AVLTree* cur);
  22:src/../h/AVLTree.h **** 
  23:src/../h/AVLTree.h **** public:
  24:src/../h/AVLTree.h ****     AVLTree* left, *right, *parent, *sameSizeNext, *sameSizePrev;
  25:src/../h/AVLTree.h ****     AVLTree* next, *prev;
  26:src/../h/AVLTree.h ****     size_t sz; int height;
  27:src/../h/AVLTree.h ****     bool isFree;
  28:src/../h/AVLTree.h **** 
  29:src/../h/AVLTree.h ****     enum RESET_FLAGS {NO_FLAG=0, SAVE_SZ=1};
  30:src/../h/AVLTree.h **** 
  31:src/../h/AVLTree.h ****     AVLTree(size_t sz) {
  32:src/../h/AVLTree.h ****         resetAll();
  33:src/../h/AVLTree.h ****         this->sz = sz;
  34:src/../h/AVLTree.h ****     }
  35:src/../h/AVLTree.h **** 
  36:src/../h/AVLTree.h ****     void resetAll(RESET_FLAGS flags = NO_FLAG) {
  37:src/../h/AVLTree.h ****         left = right = parent = next = prev = sameSizeNext = sameSizePrev = nullptr; height = 0;
  48              		.loc 2 37 9
  49              		.loc 2 37 75 is_stmt 0
  50 0050 23B00702 		sd	zero,32(a5)
  51              		.loc 2 37 60
GAS LISTING /tmp/ccjSqnFc.s 			page 3


  52 0054 23BC0700 		sd	zero,24(a5)
  53              		.loc 2 37 45
  54 0058 23B80702 		sd	zero,48(a5)
  55              		.loc 2 37 38
  56 005c 23B40702 		sd	zero,40(a5)
  57              		.loc 2 37 31
  58 0060 23B80700 		sd	zero,16(a5)
  59              		.loc 2 37 22
  60 0064 23B40700 		sd	zero,8(a5)
  61              		.loc 2 37 14
  62 0068 23B00700 		sd	zero,0(a5)
  63              		.loc 2 37 86 is_stmt 1
  64              		.loc 2 37 93 is_stmt 0
  65 006c 23A00704 		sw	zero,64(a5)
  38:src/../h/AVLTree.h ****         if((int)flags & ~(int)SAVE_SZ) sz = 0;
  66              		.loc 2 38 9 is_stmt 1
  67              	.LVL1:
  68              	.LBE13:
  69              	.LBE12:
  24:src/MemoryAllocator.cpp ****     MemoryAllocator::free->isFree = true;
  70              		.loc 1 24 5
  71              		.loc 1 24 28 is_stmt 0
  72 0070 83368701 		ld	a3,24(a4)
  73              		.loc 1 24 35
  74 0074 13061000 		li	a2,1
  75 0078 2382C604 		sb	a2,68(a3)
  25:src/MemoryAllocator.cpp ****     MemoryAllocator::free->sz =
  76              		.loc 1 25 5 is_stmt 1
  26:src/MemoryAllocator.cpp ****             (size_t) (MemoryAllocator::endAddr - MemoryAllocator::startAddr - MemoryAllocator::HEAD
  77              		.loc 1 26 48 is_stmt 0
  78 007c 83370701 		ld	a5,16(a4)
  79 0080 83358700 		ld	a1,8(a4)
  80 0084 B387B740 		sub	a5,a5,a1
  81              		.loc 1 26 77
  82 0088 938707F8 		addi	a5,a5,-128
  25:src/MemoryAllocator.cpp ****     MemoryAllocator::free->sz =
  83              		.loc 1 25 31
  84 008c 23BCF602 		sd	a5,56(a3)
  27:src/MemoryAllocator.cpp ****     MemoryAllocator::first = MemoryAllocator::free;
  85              		.loc 1 27 5 is_stmt 1
  86              		.loc 1 27 28 is_stmt 0
  87 0090 2330D702 		sd	a3,32(a4)
  28:src/MemoryAllocator.cpp ****     MemoryAllocator::initialised = true;
  88              		.loc 1 28 5 is_stmt 1
  89              		.loc 1 28 34 is_stmt 0
  90 0094 2300C700 		sb	a2,0(a4)
  91              	.L1:
  29:src/MemoryAllocator.cpp **** }
  92              		.loc 1 29 1
  93 0098 03348100 		ld	s0,8(sp)
  94              		.cfi_restore 8
  95              		.cfi_def_cfa 2, 16
  96 009c 13010101 		addi	sp,sp,16
  97              		.cfi_def_cfa_offset 0
  98 00a0 67800000 		jr	ra
  99              		.cfi_endproc
 100              	.LFE4:
GAS LISTING /tmp/ccjSqnFc.s 			page 4


 102              		.align	2
 103              		.globl	_ZN15MemoryAllocator9mem_allocEm
 105              	_ZN15MemoryAllocator9mem_allocEm:
 106              	.LFB5:
  30:src/MemoryAllocator.cpp **** 
  31:src/MemoryAllocator.cpp **** void* MemoryAllocator::mem_alloc(size_t size) {
 107              		.loc 1 31 47 is_stmt 1
 108              		.cfi_startproc
 109              	.LVL2:
 110 00a4 130101FD 		addi	sp,sp,-48
 111              		.cfi_def_cfa_offset 48
 112 00a8 23341102 		sd	ra,40(sp)
 113 00ac 23308102 		sd	s0,32(sp)
 114 00b0 233C9100 		sd	s1,24(sp)
 115 00b4 23382101 		sd	s2,16(sp)
 116 00b8 23343101 		sd	s3,8(sp)
 117              		.cfi_offset 1, -8
 118              		.cfi_offset 8, -16
 119              		.cfi_offset 9, -24
 120              		.cfi_offset 18, -32
 121              		.cfi_offset 19, -40
 122 00bc 13040103 		addi	s0,sp,48
 123              		.cfi_def_cfa 8, 0
  32:src/MemoryAllocator.cpp ****     if (size <= 0) return nullptr;
 124              		.loc 1 32 5
 125 00c0 630A0512 		beqz	a0,.L9
 126 00c4 93040500 		mv	s1,a0
  33:src/MemoryAllocator.cpp ****     if (!MemoryAllocator::initialised)
 127              		.loc 1 33 5
 128              		.loc 1 33 9 is_stmt 0
 129 00c8 97070000 		lbu	a5,.LANCHOR0
 129      83C70700 
 130              		.loc 1 33 5
 131 00d0 638E0708 		beqz	a5,.L11
 132              	.LVL3:
 133              	.L6:
  34:src/MemoryAllocator.cpp ****         MemoryAllocator::init();
  35:src/MemoryAllocator.cpp **** 
  36:src/MemoryAllocator.cpp ****     size = ((size + MEM_BLOCK_SIZE - 1) / MEM_BLOCK_SIZE) * MEM_BLOCK_SIZE;
 134              		.loc 1 36 5 is_stmt 1
 135              		.loc 1 36 36 is_stmt 0
 136 00d4 9384F403 		addi	s1,s1,63
 137              	.LVL4:
 138              		.loc 1 36 10
 139 00d8 93F404FC 		andi	s1,s1,-64
 140              	.LVL5:
  37:src/MemoryAllocator.cpp **** 
  38:src/MemoryAllocator.cpp ****     AVLTree* freeSeg = AVLTree::findFreeSeg(MemoryAllocator::free, size);
 141              		.loc 1 38 5 is_stmt 1
 142              		.loc 1 38 44 is_stmt 0
 143 00dc 93850400 		mv	a1,s1
 144 00e0 17050000 		ld	a0,.LANCHOR0+24
 144      03350500 
 145 00e8 97000000 		call	_ZN7AVLTree11findFreeSegEPS_m@plt
 145      E7800000 
 146              	.LVL6:
 147 00f0 13090500 		mv	s2,a0
GAS LISTING /tmp/ccjSqnFc.s 			page 5


 148              	.LVL7:
  39:src/MemoryAllocator.cpp ****     if (!freeSeg) return nullptr;
 149              		.loc 1 39 5 is_stmt 1
 150 00f4 630C0504 		beqz	a0,.L4
  40:src/MemoryAllocator.cpp **** 
  41:src/MemoryAllocator.cpp ****     MemoryAllocator::free = AVLTree::remove(MemoryAllocator::free, freeSeg);
 151              		.loc 1 41 5
 152              		.loc 1 41 44 is_stmt 0
 153 00f8 97090000 		lla	s3,.LANCHOR0
 153      93890900 
 154 0100 93050500 		mv	a1,a0
 155 0104 03B58901 		ld	a0,24(s3)
 156              	.LVL8:
 157 0108 97000000 		call	_ZN7AVLTree6removeEPS_S0_@plt
 157      E7800000 
 158              	.LVL9:
 159              		.loc 1 41 27
 160 0110 23BCA900 		sd	a0,24(s3)
  42:src/MemoryAllocator.cpp **** 
  43:src/MemoryAllocator.cpp ****     if (size + MEM_BLOCK_SIZE + HEADER_SIZE <= freeSeg->sz
 161              		.loc 1 43 5 is_stmt 1
 162              	.LBB14:
 163              		.loc 1 43 31 is_stmt 0
 164 0114 9387040C 		addi	a5,s1,192
 165              		.loc 1 43 57
 166 0118 03378903 		ld	a4,56(s2)
 167              		.loc 1 43 5
 168 011c 6366F700 		bgtu	a5,a4,.L7
  44:src/MemoryAllocator.cpp ****                 && size + MEM_BLOCK_SIZE + HEADER_SIZE >= size) { //overflow check
 169              		.loc 1 44 17
 170 0120 9307F0F3 		li	a5,-193
 171 0124 63FA9704 		bleu	s1,a5,.L12
 172              	.L7:
  45:src/MemoryAllocator.cpp ****         AVLTree* newFreeSeg = (AVLTree*) ((uint64)freeSeg + size + HEADER_SIZE);
  46:src/MemoryAllocator.cpp ****         newFreeSeg->resetAll();
  47:src/MemoryAllocator.cpp ****         newFreeSeg->sz = freeSeg->sz - size - HEADER_SIZE;
  48:src/MemoryAllocator.cpp ****         freeSeg->sz = size;
  49:src/MemoryAllocator.cpp ****         MemoryAllocator::free = AVLTree::insert(MemoryAllocator::free, newFreeSeg);
  50:src/MemoryAllocator.cpp ****         MemoryAllocator::first = AVLTree::swapLL(freeSeg, newFreeSeg, MemoryAllocator::first);
  51:src/MemoryAllocator.cpp ****         newFreeSeg->isFree = true;
  52:src/MemoryAllocator.cpp ****     } else {
  53:src/MemoryAllocator.cpp ****         MemoryAllocator::first = AVLTree::removeLL(freeSeg, MemoryAllocator::first);
 173              		.loc 1 53 9 is_stmt 1
 174              		.loc 1 53 51 is_stmt 0
 175 0128 97040000 		lla	s1,.LANCHOR0
 175      93840400 
 176              	.LVL10:
 177 0130 83B50402 		ld	a1,32(s1)
 178 0134 13050900 		mv	a0,s2
 179 0138 97000000 		call	_ZN7AVLTree8removeLLEPS_S0_@plt
 179      E7800000 
 180              	.LVL11:
 181              		.loc 1 53 32
 182 0140 23B0A402 		sd	a0,32(s1)
 183              	.L8:
 184              	.LBE14:
  54:src/MemoryAllocator.cpp ****     }
GAS LISTING /tmp/ccjSqnFc.s 			page 6


  55:src/MemoryAllocator.cpp ****     freeSeg->isFree = false;
 185              		.loc 1 55 5 is_stmt 1
 186              		.loc 1 55 21 is_stmt 0
 187 0144 23020904 		sb	zero,68(s2)
  56:src/MemoryAllocator.cpp ****     return (void*) ((uint64)freeSeg + HEADER_SIZE);
 188              		.loc 1 56 5 is_stmt 1
 189              		.loc 1 56 37 is_stmt 0
 190 0148 13090908 		addi	s2,s2,128
 191              	.LVL12:
 192              	.L4:
  57:src/MemoryAllocator.cpp **** }
 193              		.loc 1 57 1
 194 014c 13050900 		mv	a0,s2
 195 0150 83308102 		ld	ra,40(sp)
 196              		.cfi_remember_state
 197              		.cfi_restore 1
 198 0154 03340102 		ld	s0,32(sp)
 199              		.cfi_restore 8
 200              		.cfi_def_cfa 2, 48
 201 0158 83348101 		ld	s1,24(sp)
 202              		.cfi_restore 9
 203 015c 03390101 		ld	s2,16(sp)
 204              		.cfi_restore 18
 205 0160 83398100 		ld	s3,8(sp)
 206              		.cfi_restore 19
 207 0164 13010103 		addi	sp,sp,48
 208              		.cfi_def_cfa_offset 0
 209 0168 67800000 		jr	ra
 210              	.LVL13:
 211              	.L11:
 212              		.cfi_restore_state
  34:src/MemoryAllocator.cpp **** 
 213              		.loc 1 34 9 is_stmt 1
  34:src/MemoryAllocator.cpp **** 
 214              		.loc 1 34 30 is_stmt 0
 215 016c 97000000 		call	_ZN15MemoryAllocator4initEv
 215      E7800000 
 216              	.LVL14:
 217 0174 6FF01FF6 		j	.L6
 218              	.LVL15:
 219              	.L12:
 220              	.LBB18:
 221              	.LBB15:
  45:src/MemoryAllocator.cpp ****         newFreeSeg->resetAll();
 222              		.loc 1 45 9 is_stmt 1
  45:src/MemoryAllocator.cpp ****         newFreeSeg->resetAll();
 223              		.loc 1 45 59 is_stmt 0
 224 0178 B3079900 		add	a5,s2,s1
  45:src/MemoryAllocator.cpp ****         newFreeSeg->resetAll();
 225              		.loc 1 45 66
 226 017c 93890708 		addi	s3,a5,128
 227              	.LVL16:
  46:src/MemoryAllocator.cpp ****         newFreeSeg->sz = freeSeg->sz - size - HEADER_SIZE;
 228              		.loc 1 46 9 is_stmt 1
 229              	.LBB16:
 230              	.LBB17:
  37:src/../h/AVLTree.h ****         if((int)flags & ~(int)SAVE_SZ) sz = 0;
GAS LISTING /tmp/ccjSqnFc.s 			page 7


 231              		.loc 2 37 9
  37:src/../h/AVLTree.h ****         if((int)flags & ~(int)SAVE_SZ) sz = 0;
 232              		.loc 2 37 75 is_stmt 0
 233 0180 23B0070A 		sd	zero,160(a5)
  37:src/../h/AVLTree.h ****         if((int)flags & ~(int)SAVE_SZ) sz = 0;
 234              		.loc 2 37 60
 235 0184 23BC0708 		sd	zero,152(a5)
  37:src/../h/AVLTree.h ****         if((int)flags & ~(int)SAVE_SZ) sz = 0;
 236              		.loc 2 37 45
 237 0188 23B8070A 		sd	zero,176(a5)
  37:src/../h/AVLTree.h ****         if((int)flags & ~(int)SAVE_SZ) sz = 0;
 238              		.loc 2 37 38
 239 018c 23B4070A 		sd	zero,168(a5)
  37:src/../h/AVLTree.h ****         if((int)flags & ~(int)SAVE_SZ) sz = 0;
 240              		.loc 2 37 31
 241 0190 23B80708 		sd	zero,144(a5)
  37:src/../h/AVLTree.h ****         if((int)flags & ~(int)SAVE_SZ) sz = 0;
 242              		.loc 2 37 22
 243 0194 23B40708 		sd	zero,136(a5)
  37:src/../h/AVLTree.h ****         if((int)flags & ~(int)SAVE_SZ) sz = 0;
 244              		.loc 2 37 14
 245 0198 23B00708 		sd	zero,128(a5)
  37:src/../h/AVLTree.h ****         if((int)flags & ~(int)SAVE_SZ) sz = 0;
 246              		.loc 2 37 86 is_stmt 1
  37:src/../h/AVLTree.h ****         if((int)flags & ~(int)SAVE_SZ) sz = 0;
 247              		.loc 2 37 93 is_stmt 0
 248 019c 23A0070C 		sw	zero,192(a5)
 249              		.loc 2 38 9 is_stmt 1
 250              	.LVL17:
 251              	.LBE17:
 252              	.LBE16:
  47:src/MemoryAllocator.cpp ****         freeSeg->sz = size;
 253              		.loc 1 47 9
  47:src/MemoryAllocator.cpp ****         freeSeg->sz = size;
 254              		.loc 1 47 35 is_stmt 0
 255 01a0 83378903 		ld	a5,56(s2)
  47:src/MemoryAllocator.cpp ****         freeSeg->sz = size;
 256              		.loc 1 47 38
 257 01a4 B3879740 		sub	a5,a5,s1
  47:src/MemoryAllocator.cpp ****         freeSeg->sz = size;
 258              		.loc 1 47 45
 259 01a8 938707F8 		addi	a5,a5,-128
  47:src/MemoryAllocator.cpp ****         freeSeg->sz = size;
 260              		.loc 1 47 24
 261 01ac 23BCF902 		sd	a5,56(s3)
  48:src/MemoryAllocator.cpp ****         MemoryAllocator::free = AVLTree::insert(MemoryAllocator::free, newFreeSeg);
 262              		.loc 1 48 9 is_stmt 1
  48:src/MemoryAllocator.cpp ****         MemoryAllocator::free = AVLTree::insert(MemoryAllocator::free, newFreeSeg);
 263              		.loc 1 48 21 is_stmt 0
 264 01b0 233C9902 		sd	s1,56(s2)
  49:src/MemoryAllocator.cpp ****         MemoryAllocator::first = AVLTree::swapLL(freeSeg, newFreeSeg, MemoryAllocator::first);
 265              		.loc 1 49 9 is_stmt 1
  49:src/MemoryAllocator.cpp ****         MemoryAllocator::first = AVLTree::swapLL(freeSeg, newFreeSeg, MemoryAllocator::first);
 266              		.loc 1 49 48 is_stmt 0
 267 01b4 97040000 		lla	s1,.LANCHOR0
 267      93840400 
 268              	.LVL18:
GAS LISTING /tmp/ccjSqnFc.s 			page 8


 269 01bc 93850900 		mv	a1,s3
 270 01c0 03B58401 		ld	a0,24(s1)
 271 01c4 97000000 		call	_ZN7AVLTree6insertEPS_S0_@plt
 271      E7800000 
 272              	.LVL19:
  49:src/MemoryAllocator.cpp ****         MemoryAllocator::first = AVLTree::swapLL(freeSeg, newFreeSeg, MemoryAllocator::first);
 273              		.loc 1 49 31
 274 01cc 23BCA400 		sd	a0,24(s1)
  50:src/MemoryAllocator.cpp ****         newFreeSeg->isFree = true;
 275              		.loc 1 50 9 is_stmt 1
  50:src/MemoryAllocator.cpp ****         newFreeSeg->isFree = true;
 276              		.loc 1 50 49 is_stmt 0
 277 01d0 03B60402 		ld	a2,32(s1)
 278 01d4 93850900 		mv	a1,s3
 279 01d8 13050900 		mv	a0,s2
 280 01dc 97000000 		call	_ZN7AVLTree6swapLLEPS_S0_S0_@plt
 280      E7800000 
 281              	.LVL20:
  50:src/MemoryAllocator.cpp ****         newFreeSeg->isFree = true;
 282              		.loc 1 50 32
 283 01e4 23B0A402 		sd	a0,32(s1)
  51:src/MemoryAllocator.cpp ****     } else {
 284              		.loc 1 51 9 is_stmt 1
  51:src/MemoryAllocator.cpp ****     } else {
 285              		.loc 1 51 28 is_stmt 0
 286 01e8 93071000 		li	a5,1
 287 01ec 2382F904 		sb	a5,68(s3)
 288              	.LBE15:
  51:src/MemoryAllocator.cpp ****     } else {
 289              		.loc 1 51 34
 290 01f0 6FF05FF5 		j	.L8
 291              	.LVL21:
 292              	.L9:
 293              	.LBE18:
  32:src/MemoryAllocator.cpp ****     if (!MemoryAllocator::initialised)
 294              		.loc 1 32 27
 295 01f4 13090000 		li	s2,0
 296 01f8 6FF05FF5 		j	.L4
 297              		.cfi_endproc
 298              	.LFE5:
 300              		.align	2
 301              		.globl	_ZN15MemoryAllocator8mem_freeEPv
 303              	_ZN15MemoryAllocator8mem_freeEPv:
 304              	.LFB6:
  58:src/MemoryAllocator.cpp **** 
  59:src/MemoryAllocator.cpp **** int MemoryAllocator::mem_free(void *ptr) {
 305              		.loc 1 59 42 is_stmt 1
 306              		.cfi_startproc
 307              	.LVL22:
  60:src/MemoryAllocator.cpp **** 
  61:src/MemoryAllocator.cpp ****     if (!ptr) return -1;
 308              		.loc 1 61 5
 309 01fc 630C0522 		beqz	a0,.L22
  62:src/MemoryAllocator.cpp ****     if ((uint64)ptr % MEM_BLOCK_SIZE != 0 ) return -2; // ptr doesn't point to beginning of block (
 310              		.loc 1 62 5
 311              		.loc 1 62 21 is_stmt 0
 312 0200 1377F503 		andi	a4,a0,63
GAS LISTING /tmp/ccjSqnFc.s 			page 9


 313              		.loc 1 62 5
 314 0204 631C0722 		bnez	a4,.L23
  63:src/MemoryAllocator.cpp ****     if ((uint64)ptr >= MemoryAllocator::endAddr || (uint64) ptr < MemoryAllocator::startAddr) retur
 315              		.loc 1 63 5 is_stmt 1
 316              		.loc 1 63 21 is_stmt 0
 317 0208 17070000 		ld	a4,.LANCHOR0+16
 317      03370700 
 318              		.loc 1 63 5
 319 0210 637AE522 		bgeu	a0,a4,.L24
 320              		.loc 1 63 65 discriminator 2
 321 0214 17070000 		ld	a4,.LANCHOR0+8
 321      03370700 
 322              		.loc 1 63 49 discriminator 2
 323 021c 6368E522 		bltu	a0,a4,.L25
  59:src/MemoryAllocator.cpp **** 
 324              		.loc 1 59 42
 325 0220 130101FC 		addi	sp,sp,-64
 326              		.cfi_def_cfa_offset 64
 327 0224 233C1102 		sd	ra,56(sp)
 328 0228 23388102 		sd	s0,48(sp)
 329 022c 23349102 		sd	s1,40(sp)
 330 0230 23302103 		sd	s2,32(sp)
 331 0234 233C3101 		sd	s3,24(sp)
 332 0238 23384101 		sd	s4,16(sp)
 333 023c 23345101 		sd	s5,8(sp)
 334              		.cfi_offset 1, -8
 335              		.cfi_offset 8, -16
 336              		.cfi_offset 9, -24
 337              		.cfi_offset 18, -32
 338              		.cfi_offset 19, -40
 339              		.cfi_offset 20, -48
 340              		.cfi_offset 21, -56
 341 0240 13040104 		addi	s0,sp,64
 342              		.cfi_def_cfa 8, 0
  64:src/MemoryAllocator.cpp **** 
  65:src/MemoryAllocator.cpp ****     AVLTree* cur = (AVLTree*) ((uint64)ptr - HEADER_SIZE); cur->resetAll(AVLTree::SAVE_SZ); cur->is
 343              		.loc 1 65 5 is_stmt 1
 344              		.loc 1 65 44 is_stmt 0
 345 0244 130905F8 		addi	s2,a0,-128
 346              		.loc 1 65 14
 347 0248 93090900 		mv	s3,s2
 348              	.LVL23:
 349              		.loc 1 65 60 is_stmt 1
 350              	.LBB19:
 351              	.LBB20:
  37:src/../h/AVLTree.h ****         if((int)flags & ~(int)SAVE_SZ) sz = 0;
 352              		.loc 2 37 9
  37:src/../h/AVLTree.h ****         if((int)flags & ~(int)SAVE_SZ) sz = 0;
 353              		.loc 2 37 75 is_stmt 0
 354 024c 23300902 		sd	zero,32(s2)
  37:src/../h/AVLTree.h ****         if((int)flags & ~(int)SAVE_SZ) sz = 0;
 355              		.loc 2 37 60
 356 0250 233C0900 		sd	zero,24(s2)
  37:src/../h/AVLTree.h ****         if((int)flags & ~(int)SAVE_SZ) sz = 0;
 357              		.loc 2 37 45
 358 0254 23380902 		sd	zero,48(s2)
  37:src/../h/AVLTree.h ****         if((int)flags & ~(int)SAVE_SZ) sz = 0;
GAS LISTING /tmp/ccjSqnFc.s 			page 10


 359              		.loc 2 37 38
 360 0258 23340902 		sd	zero,40(s2)
  37:src/../h/AVLTree.h ****         if((int)flags & ~(int)SAVE_SZ) sz = 0;
 361              		.loc 2 37 31
 362 025c 23380900 		sd	zero,16(s2)
  37:src/../h/AVLTree.h ****         if((int)flags & ~(int)SAVE_SZ) sz = 0;
 363              		.loc 2 37 22
 364 0260 23340900 		sd	zero,8(s2)
  37:src/../h/AVLTree.h ****         if((int)flags & ~(int)SAVE_SZ) sz = 0;
 365              		.loc 2 37 14
 366 0264 233005F8 		sd	zero,-128(a0)
  37:src/../h/AVLTree.h ****         if((int)flags & ~(int)SAVE_SZ) sz = 0;
 367              		.loc 2 37 86 is_stmt 1
  37:src/../h/AVLTree.h ****         if((int)flags & ~(int)SAVE_SZ) sz = 0;
 368              		.loc 2 37 93 is_stmt 0
 369 0268 23200904 		sw	zero,64(s2)
 370              		.loc 2 38 9 is_stmt 1
 371              	.LVL24:
 372              	.LBE20:
 373              	.LBE19:
 374              		.loc 1 65 93
 375              		.loc 1 65 105 is_stmt 0
 376 026c 93071000 		li	a5,1
 377 0270 2302F904 		sb	a5,68(s2)
  66:src/MemoryAllocator.cpp ****     AVLTree* aft = ((uint64)cur + cur->sz + HEADER_SIZE >= MemoryAllocator::endAddr) ? nullptr :
 378              		.loc 1 66 5 is_stmt 1
 379              		.loc 1 66 40 is_stmt 0
 380 0274 83348903 		ld	s1,56(s2)
 381              		.loc 1 66 33
 382 0278 B3049900 		add	s1,s2,s1
 383              		.loc 1 66 43
 384 027c 93840408 		addi	s1,s1,128
 385              		.loc 1 66 57
 386 0280 97070000 		ld	a5,.LANCHOR0+16
 386      83B70700 
 387              		.loc 1 66 86
 388 0288 63F8F404 		bgeu	s1,a5,.L26
 389              		.loc 1 66 86 discriminator 1
 390 028c 138A0400 		mv	s4,s1
 391              	.LVL25:
  67:src/MemoryAllocator.cpp ****             (AVLTree*) ((uint64)cur + cur->sz + HEADER_SIZE);
  68:src/MemoryAllocator.cpp ****     AVLTree* toSwap = nullptr;
 392              		.loc 1 68 5 is_stmt 1 discriminator 1
  69:src/MemoryAllocator.cpp **** 
  70:src/MemoryAllocator.cpp ****     if (aft && aft->isFree) {
 393              		.loc 1 70 5 discriminator 1
 394 0290 63860404 		beqz	s1,.L15
 395              		.loc 1 70 21 is_stmt 0 discriminator 1
 396 0294 83C74404 		lbu	a5,68(s1)
 397              		.loc 1 70 13 discriminator 1
 398 0298 63960700 		bnez	a5,.L35
  68:src/MemoryAllocator.cpp **** 
 399              		.loc 1 68 14
 400 029c 130A0000 		li	s4,0
 401 02a0 6F00C003 		j	.L15
 402              	.L35:
  71:src/MemoryAllocator.cpp ****         MemoryAllocator::free = AVLTree::remove(MemoryAllocator::free, aft);
GAS LISTING /tmp/ccjSqnFc.s 			page 11


 403              		.loc 1 71 9 is_stmt 1
 404              		.loc 1 71 48 is_stmt 0
 405 02a4 970A0000 		lla	s5,.LANCHOR0
 405      938A0A00 
 406 02ac 93850400 		mv	a1,s1
 407 02b0 03B58A01 		ld	a0,24(s5)
 408              	.LVL26:
 409 02b4 97000000 		call	_ZN7AVLTree6removeEPS_S0_@plt
 409      E7800000 
 410              	.LVL27:
 411              		.loc 1 71 31
 412 02bc 23BCAA00 		sd	a0,24(s5)
  72:src/MemoryAllocator.cpp ****         cur->sz += aft->sz + HEADER_SIZE;
 413              		.loc 1 72 9 is_stmt 1
 414              		.loc 1 72 25 is_stmt 0
 415 02c0 83B78403 		ld	a5,56(s1)
 416              		.loc 1 72 17
 417 02c4 03378903 		ld	a4,56(s2)
 418 02c8 B387E700 		add	a5,a5,a4
 419 02cc 93870708 		addi	a5,a5,128
 420 02d0 233CF902 		sd	a5,56(s2)
  73:src/MemoryAllocator.cpp ****         toSwap = aft;
 421              		.loc 1 73 9 is_stmt 1
 422              	.LVL28:
 423 02d4 6F008000 		j	.L15
 424              	.LVL29:
 425              	.L26:
  68:src/MemoryAllocator.cpp **** 
 426              		.loc 1 68 14 is_stmt 0
 427 02d8 130A0000 		li	s4,0
 428              	.LVL30:
 429              	.L15:
  74:src/MemoryAllocator.cpp ****     }
  75:src/MemoryAllocator.cpp **** 
  76:src/MemoryAllocator.cpp ****     AVLTree* prev = MemoryAllocator::first;
 430              		.loc 1 76 5 is_stmt 1
 431              		.loc 1 76 14 is_stmt 0
 432 02dc 97040000 		ld	s1,.LANCHOR0+32
 432      83B40400 
 433              	.LVL31:
 434 02e4 6F008000 		j	.L17
 435              	.L28:
  77:src/MemoryAllocator.cpp ****     for(;prev && prev->next && ((uint64)prev->next + prev->next->sz + HEADER_SIZE < (uint64)cur); p
 436              		.loc 1 77 104
 437 02e8 93040700 		mv	s1,a4
 438              	.LVL32:
 439              	.L17:
 440              		.loc 1 77 5 is_stmt 1 discriminator 4
 441              		.loc 1 77 29 discriminator 4
 442 02ec 638E0400 		beqz	s1,.L16
 443              		.loc 1 77 24 is_stmt 0 discriminator 1
 444 02f0 03B78402 		ld	a4,40(s1)
 445              		.loc 1 77 15 discriminator 1
 446 02f4 630A0700 		beqz	a4,.L16
 447              		.loc 1 77 66 discriminator 2
 448 02f8 83378703 		ld	a5,56(a4)
 449              		.loc 1 77 52 discriminator 2
GAS LISTING /tmp/ccjSqnFc.s 			page 12


 450 02fc B307F700 		add	a5,a4,a5
 451              		.loc 1 77 69 discriminator 2
 452 0300 93870708 		addi	a5,a5,128
 453              		.loc 1 77 29 discriminator 2
 454 0304 E3E227FF 		bgtu	s2,a5,.L28
 455              	.L16:
  78:src/MemoryAllocator.cpp **** 
  79:src/MemoryAllocator.cpp ****     if (prev && (uint64)prev + prev->sz + HEADER_SIZE == (uint64)cur) {
 456              		.loc 1 79 5 is_stmt 1
 457 0308 638A0400 		beqz	s1,.L18
 458              		.loc 1 79 38 is_stmt 0 discriminator 1
 459 030c 83B78403 		ld	a5,56(s1)
 460              		.loc 1 79 30 discriminator 1
 461 0310 B387F400 		add	a5,s1,a5
 462              		.loc 1 79 41 discriminator 1
 463 0314 93870708 		addi	a5,a5,128
 464              		.loc 1 79 14 discriminator 1
 465 0318 6306F906 		beq	s2,a5,.L36
 466              	.LVL33:
 467              	.L18:
  80:src/MemoryAllocator.cpp ****         MemoryAllocator::free = AVLTree::remove(MemoryAllocator::free, prev);
  81:src/MemoryAllocator.cpp ****         prev->resetAll(AVLTree::SAVE_SZ);
  82:src/MemoryAllocator.cpp ****         prev->sz += cur->sz + HEADER_SIZE;
  83:src/MemoryAllocator.cpp ****         prev->isFree = true;
  84:src/MemoryAllocator.cpp **** 
  85:src/MemoryAllocator.cpp ****         // nullptr as toRem: no changes
  86:src/MemoryAllocator.cpp ****         MemoryAllocator::first = AVLTree::removeLL((toSwap) ? prev : nullptr, MemoryAllocator::firs
  87:src/MemoryAllocator.cpp ****         toSwap = (toSwap) ? toSwap : prev;
  88:src/MemoryAllocator.cpp ****         cur = prev;
  89:src/MemoryAllocator.cpp ****     }
  90:src/MemoryAllocator.cpp **** 
  91:src/MemoryAllocator.cpp ****     MemoryAllocator::free = AVLTree::insert(MemoryAllocator::free, cur);
 468              		.loc 1 91 5 is_stmt 1
 469              		.loc 1 91 44 is_stmt 0
 470 031c 97040000 		lla	s1,.LANCHOR0
 470      93840400 
 471              	.LVL34:
 472 0324 93850900 		mv	a1,s3
 473 0328 03B58401 		ld	a0,24(s1)
 474 032c 97000000 		call	_ZN7AVLTree6insertEPS_S0_@plt
 474      E7800000 
 475              	.LVL35:
 476              		.loc 1 91 27
 477 0334 23BCA400 		sd	a0,24(s1)
  92:src/MemoryAllocator.cpp ****     MemoryAllocator::first = (toSwap) ? AVLTree::swapLL(toSwap, cur, MemoryAllocator::first) :
 478              		.loc 1 92 5 is_stmt 1
 479              		.loc 1 92 39 is_stmt 0
 480 0338 63020A0E 		beqz	s4,.L20
 481              		.loc 1 92 56 discriminator 1
 482 033c 17060000 		ld	a2,.LANCHOR0+32
 482      03360600 
 483 0344 93850900 		mv	a1,s3
 484 0348 13050A00 		mv	a0,s4
 485 034c 97000000 		call	_ZN7AVLTree6swapLLEPS_S0_S0_@plt
 485      E7800000 
 486              	.LVL36:
 487              	.L21:
GAS LISTING /tmp/ccjSqnFc.s 			page 13


 488              		.loc 1 92 28 discriminator 2
 489 0354 97070000 		sd	a0,.LANCHOR0+32,a5
 489      23B0A700 
  93:src/MemoryAllocator.cpp ****                              AVLTree::insertLL(cur, MemoryAllocator::first);
  94:src/MemoryAllocator.cpp ****     return 0;
 490              		.loc 1 94 5 is_stmt 1 discriminator 2
 491              		.loc 1 94 12 is_stmt 0 discriminator 2
 492 035c 13050000 		li	a0,0
  95:src/MemoryAllocator.cpp **** }
 493              		.loc 1 95 1 discriminator 2
 494 0360 83308103 		ld	ra,56(sp)
 495              		.cfi_remember_state
 496              		.cfi_restore 1
 497 0364 03340103 		ld	s0,48(sp)
 498              		.cfi_restore 8
 499              		.cfi_def_cfa 2, 64
 500 0368 83348102 		ld	s1,40(sp)
 501              		.cfi_restore 9
 502 036c 03390102 		ld	s2,32(sp)
 503              		.cfi_restore 18
 504 0370 83398101 		ld	s3,24(sp)
 505              		.cfi_restore 19
 506              	.LVL37:
 507 0374 033A0101 		ld	s4,16(sp)
 508              		.cfi_restore 20
 509              	.LVL38:
 510 0378 833A8100 		ld	s5,8(sp)
 511              		.cfi_restore 21
 512 037c 13010104 		addi	sp,sp,64
 513              		.cfi_def_cfa_offset 0
 514 0380 67800000 		jr	ra
 515              	.LVL39:
 516              	.L36:
 517              		.cfi_restore_state
  80:src/MemoryAllocator.cpp ****         prev->resetAll(AVLTree::SAVE_SZ);
 518              		.loc 1 80 9 is_stmt 1
  80:src/MemoryAllocator.cpp ****         prev->resetAll(AVLTree::SAVE_SZ);
 519              		.loc 1 80 48 is_stmt 0
 520 0384 97090000 		lla	s3,.LANCHOR0
 520      93890900 
 521 038c 93850400 		mv	a1,s1
 522 0390 03B58901 		ld	a0,24(s3)
 523 0394 97000000 		call	_ZN7AVLTree6removeEPS_S0_@plt
 523      E7800000 
 524              	.LVL40:
  80:src/MemoryAllocator.cpp ****         prev->resetAll(AVLTree::SAVE_SZ);
 525              		.loc 1 80 31
 526 039c 23BCA900 		sd	a0,24(s3)
  81:src/MemoryAllocator.cpp ****         prev->sz += cur->sz + HEADER_SIZE;
 527              		.loc 1 81 9 is_stmt 1
 528              	.LVL41:
 529              	.LBB21:
 530              	.LBB22:
  37:src/../h/AVLTree.h ****         if((int)flags & ~(int)SAVE_SZ) sz = 0;
 531              		.loc 2 37 9
  37:src/../h/AVLTree.h ****         if((int)flags & ~(int)SAVE_SZ) sz = 0;
 532              		.loc 2 37 75 is_stmt 0
GAS LISTING /tmp/ccjSqnFc.s 			page 14


 533 03a0 23B00402 		sd	zero,32(s1)
  37:src/../h/AVLTree.h ****         if((int)flags & ~(int)SAVE_SZ) sz = 0;
 534              		.loc 2 37 60
 535 03a4 23BC0400 		sd	zero,24(s1)
  37:src/../h/AVLTree.h ****         if((int)flags & ~(int)SAVE_SZ) sz = 0;
 536              		.loc 2 37 45
 537 03a8 23B80402 		sd	zero,48(s1)
  37:src/../h/AVLTree.h ****         if((int)flags & ~(int)SAVE_SZ) sz = 0;
 538              		.loc 2 37 38
 539 03ac 23B40402 		sd	zero,40(s1)
  37:src/../h/AVLTree.h ****         if((int)flags & ~(int)SAVE_SZ) sz = 0;
 540              		.loc 2 37 31
 541 03b0 23B80400 		sd	zero,16(s1)
  37:src/../h/AVLTree.h ****         if((int)flags & ~(int)SAVE_SZ) sz = 0;
 542              		.loc 2 37 22
 543 03b4 23B40400 		sd	zero,8(s1)
  37:src/../h/AVLTree.h ****         if((int)flags & ~(int)SAVE_SZ) sz = 0;
 544              		.loc 2 37 14
 545 03b8 23B00400 		sd	zero,0(s1)
  37:src/../h/AVLTree.h ****         if((int)flags & ~(int)SAVE_SZ) sz = 0;
 546              		.loc 2 37 86 is_stmt 1
  37:src/../h/AVLTree.h ****         if((int)flags & ~(int)SAVE_SZ) sz = 0;
 547              		.loc 2 37 93 is_stmt 0
 548 03bc 23A00404 		sw	zero,64(s1)
 549              		.loc 2 38 9 is_stmt 1
 550              	.LVL42:
 551              	.LBE22:
 552              	.LBE21:
  82:src/MemoryAllocator.cpp ****         prev->isFree = true;
 553              		.loc 1 82 9
  82:src/MemoryAllocator.cpp ****         prev->isFree = true;
 554              		.loc 1 82 26 is_stmt 0
 555 03c0 83378903 		ld	a5,56(s2)
  82:src/MemoryAllocator.cpp ****         prev->isFree = true;
 556              		.loc 1 82 18
 557 03c4 03B78403 		ld	a4,56(s1)
 558 03c8 B387E700 		add	a5,a5,a4
 559 03cc 93870708 		addi	a5,a5,128
 560 03d0 23BCF402 		sd	a5,56(s1)
  83:src/MemoryAllocator.cpp **** 
 561              		.loc 1 83 9 is_stmt 1
  83:src/MemoryAllocator.cpp **** 
 562              		.loc 1 83 22 is_stmt 0
 563 03d4 93071000 		li	a5,1
 564 03d8 2382F404 		sb	a5,68(s1)
  86:src/MemoryAllocator.cpp ****         toSwap = (toSwap) ? toSwap : prev;
 565              		.loc 1 86 9 is_stmt 1
  86:src/MemoryAllocator.cpp ****         toSwap = (toSwap) ? toSwap : prev;
 566              		.loc 1 86 51 is_stmt 0
 567 03dc 63060A02 		beqz	s4,.L37
 568 03e0 13850400 		mv	a0,s1
 569              	.L19:
  86:src/MemoryAllocator.cpp ****         toSwap = (toSwap) ? toSwap : prev;
 570              		.loc 1 86 51 discriminator 4
 571 03e4 17090000 		lla	s2,.LANCHOR0
 571      13090900 
 572              	.LVL43:
GAS LISTING /tmp/ccjSqnFc.s 			page 15


 573 03ec 83350902 		ld	a1,32(s2)
 574 03f0 97000000 		call	_ZN7AVLTree8removeLLEPS_S0_@plt
 574      E7800000 
 575              	.LVL44:
  86:src/MemoryAllocator.cpp ****         toSwap = (toSwap) ? toSwap : prev;
 576              		.loc 1 86 32 discriminator 4
 577 03f8 2330A902 		sd	a0,32(s2)
  87:src/MemoryAllocator.cpp ****         cur = prev;
 578              		.loc 1 87 9 is_stmt 1 discriminator 4
  87:src/MemoryAllocator.cpp ****         cur = prev;
 579              		.loc 1 87 27 is_stmt 0 discriminator 4
 580 03fc 630A0A00 		beqz	s4,.L30
  88:src/MemoryAllocator.cpp ****     }
 581              		.loc 1 88 13
 582 0400 93890400 		mv	s3,s1
 583 0404 6FF09FF1 		j	.L18
 584              	.LVL45:
 585              	.L37:
  86:src/MemoryAllocator.cpp ****         toSwap = (toSwap) ? toSwap : prev;
 586              		.loc 1 86 51
 587 0408 13050A00 		mv	a0,s4
 588 040c 6FF09FFD 		j	.L19
 589              	.LVL46:
 590              	.L30:
  87:src/MemoryAllocator.cpp ****         cur = prev;
 591              		.loc 1 87 27
 592 0410 138A0400 		mv	s4,s1
 593              	.LVL47:
  88:src/MemoryAllocator.cpp ****     }
 594              		.loc 1 88 13
 595 0414 93890400 		mv	s3,s1
 596 0418 6FF05FF0 		j	.L18
 597              	.LVL48:
 598              	.L20:
  93:src/MemoryAllocator.cpp ****     return 0;
 599              		.loc 1 93 47
 600 041c 97050000 		ld	a1,.LANCHOR0+32
 600      83B50500 
 601 0424 13850900 		mv	a0,s3
 602 0428 97000000 		call	_ZN7AVLTree8insertLLEPS_S0_@plt
 602      E7800000 
 603              	.LVL49:
 604 0430 6FF05FF2 		j	.L21
 605              	.LVL50:
 606              	.L22:
 607              		.cfi_def_cfa_register 2
 608              		.cfi_restore 1
 609              		.cfi_restore 8
 610              		.cfi_restore 9
 611              		.cfi_restore 18
 612              		.cfi_restore 19
 613              		.cfi_restore 20
 614              		.cfi_restore 21
  61:src/MemoryAllocator.cpp ****     if ((uint64)ptr % MEM_BLOCK_SIZE != 0 ) return -2; // ptr doesn't point to beginning of block (
 615              		.loc 1 61 23
 616 0434 1305F0FF 		li	a0,-1
 617              	.LVL51:
GAS LISTING /tmp/ccjSqnFc.s 			page 16


 618 0438 67800000 		ret
 619              	.LVL52:
 620              	.L23:
  62:src/MemoryAllocator.cpp ****     if ((uint64)ptr >= MemoryAllocator::endAddr || (uint64) ptr < MemoryAllocator::startAddr) retur
 621              		.loc 1 62 53
 622 043c 1305E0FF 		li	a0,-2
 623              	.LVL53:
 624 0440 67800000 		ret
 625              	.LVL54:
 626              	.L24:
  63:src/MemoryAllocator.cpp **** 
 627              		.loc 1 63 103
 628 0444 1305D0FF 		li	a0,-3
 629              	.LVL55:
 630 0448 67800000 		ret
 631              	.LVL56:
 632              	.L25:
 633 044c 1305D0FF 		li	a0,-3
 634              	.LVL57:
 635              		.loc 1 95 1
 636 0450 67800000 		ret
 637              		.cfi_endproc
 638              	.LFE6:
 640              		.globl	_ZN15MemoryAllocator11initialisedE
 641              		.globl	_ZN15MemoryAllocator11HEADER_SIZEE
 642              		.globl	_ZN15MemoryAllocator7endAddrE
 643              		.globl	_ZN15MemoryAllocator9startAddrE
 644              		.globl	_ZN15MemoryAllocator5firstE
 645              		.globl	_ZN15MemoryAllocator4freeE
 646              		.section	.rodata
 647              		.align	3
 650              	_ZN15MemoryAllocator11HEADER_SIZEE:
 651 0000 80000000 		.dword	128
 651      00000000 
 652              		.bss
 653              		.align	3
 654              		.set	.LANCHOR0,. + 0
 657              	_ZN15MemoryAllocator11initialisedE:
 658 0000 00       		.zero	1
 659 0001 00000000 		.zero	7
 659      000000
 662              	_ZN15MemoryAllocator9startAddrE:
 663 0008 00000000 		.zero	8
 663      00000000 
 666              	_ZN15MemoryAllocator7endAddrE:
 667 0010 00000000 		.zero	8
 667      00000000 
 670              	_ZN15MemoryAllocator4freeE:
 671 0018 00000000 		.zero	8
 671      00000000 
 674              	_ZN15MemoryAllocator5firstE:
 675 0020 00000000 		.zero	8
 675      00000000 
 676              		.text
 677              	.Letext0:
 678              		.file 3 "src/../h/../lib/hw.h"
 679              		.file 4 "src/../h/MemoryAllocator.h"
GAS LISTING /tmp/ccjSqnFc.s 			page 17


GAS LISTING /tmp/ccjSqnFc.s 			page 18

