GAS LISTING /tmp/ccuzClqw.s 			page 1


   1              		.file	"RiscV.cpp"
   2              		.option pic
   3              		.option norelax
   4              		.text
   5              	.Ltext0:
   6              		.align	2
   7              		.globl	_ZN5RiscV10popSppSpieEv
   9              	_ZN5RiscV10popSppSpieEv:
  10              	.LFB21:
  11              		.file 1 "src/RiscV.cpp"
   1:src/RiscV.cpp **** //
   2:src/RiscV.cpp **** // Created by os on 5/4/24.
   3:src/RiscV.cpp **** //
   4:src/RiscV.cpp **** 
   5:src/RiscV.cpp **** #include "../h/RiscV.h"
   6:src/RiscV.cpp **** 
   7:src/RiscV.cpp **** 
   8:src/RiscV.cpp **** void RiscV::popSppSpie() {
  12              		.loc 1 8 26
  13              		.cfi_startproc
  14 0000 130101FF 		addi	sp,sp,-16
  15              		.cfi_def_cfa_offset 16
  16 0004 23348100 		sd	s0,8(sp)
  17              		.cfi_offset 8, -8
  18 0008 13040101 		addi	s0,sp,16
  19              		.cfi_def_cfa 8, 0
   9:src/RiscV.cpp ****     __asm__ volatile("csrw sepc, ra");
  20              		.loc 1 9 5
  21              		.loc 1 9 38 is_stmt 0
  22              	#APP
  23              	# 9 "src/RiscV.cpp" 1
  10              	    __asm__ volatile("sret");
  24              		csrw sepc, ra
  25              	# 0 "" 2
  26              		.loc 1 10 5 is_stmt 1
  27              		.loc 1 10 29 is_stmt 0
  28              	# 10 "src/RiscV.cpp" 1
  11              	}
  29              		sret
  30              	# 0 "" 2
  31              		.loc 1 11 1
  32              	#NO_APP
  33 0014 03348100 		ld	s0,8(sp)
  34              		.cfi_restore 8
  35              		.cfi_def_cfa 2, 16
  36 0018 13010101 		addi	sp,sp,16
  37              		.cfi_def_cfa_offset 0
  38 001c 67800000 		jr	ra
  39              		.cfi_endproc
  40              	.LFE21:
  42              	.Letext0:
  43              		.file 2 "src/../h/../lib/hw.h"
  44              		.file 3 "src/../h/RiscV.h"
GAS LISTING /tmp/ccuzClqw.s 			page 2

