GAS LISTING /tmp/ccpsd8wH.s 			page 1


   1              		.file	"Scheduler.cpp"
   2              		.option pic
   3              		.option norelax
   4              		.text
   5              	.Ltext0:
   6              		.section	.text._ZN5QueueI3TCBE4NodedlEPv,"axG",@progbits,_ZN5QueueI3TCBE4NodedlEPv,comdat
   7              		.align	2
   8              		.weak	_ZN5QueueI3TCBE4NodedlEPv
  10              	_ZN5QueueI3TCBE4NodedlEPv:
  11              	.LFB38:
  12              		.file 1 "src/../h/Queue.h"
   1:src/../h/Queue.h **** //
   2:src/../h/Queue.h **** // Created by os on 5/6/24.
   3:src/../h/Queue.h **** //
   4:src/../h/Queue.h **** 
   5:src/../h/Queue.h **** #ifndef PROJEKAT_QUEUE_H
   6:src/../h/Queue.h **** #define PROJEKAT_QUEUE_H
   7:src/../h/Queue.h **** 
   8:src/../h/Queue.h **** #include "syscall_c.h"
   9:src/../h/Queue.h **** 
  10:src/../h/Queue.h **** 
  11:src/../h/Queue.h **** template<typename T>
  12:src/../h/Queue.h **** class Queue {
  13:src/../h/Queue.h **** private:
  14:src/../h/Queue.h ****     struct Node {
  15:src/../h/Queue.h ****         Node* next = nullptr;
  16:src/../h/Queue.h ****         T* data = nullptr;
  17:src/../h/Queue.h **** 
  18:src/../h/Queue.h ****         void* operator new(size_t, Queue<T>*);
  19:src/../h/Queue.h ****         void operator delete(void*);
  20:src/../h/Queue.h **** 
  21:src/../h/Queue.h ****         void* operator new(size_t) = delete;
  22:src/../h/Queue.h ****         void* operator new[](size_t) = delete;
  23:src/../h/Queue.h ****         void operator delete[](void*)  = delete;
  24:src/../h/Queue.h ****     };
  25:src/../h/Queue.h **** 
  26:src/../h/Queue.h ****     uint64 lastNodeAddr = 0;
  27:src/../h/Queue.h **** 
  28:src/../h/Queue.h ****     Node* head;
  29:src/../h/Queue.h ****     Node* last;
  30:src/../h/Queue.h **** 
  31:src/../h/Queue.h **** public:
  32:src/../h/Queue.h ****     Queue() = default;
  33:src/../h/Queue.h ****     Queue(const Queue<T>&) = delete;
  34:src/../h/Queue.h ****     Queue<T>& operator=(Queue<T>&) = delete;
  35:src/../h/Queue.h **** 
  36:src/../h/Queue.h ****     T* peekFirst() { return (head) ? head->data : nullptr; }
  37:src/../h/Queue.h ****     T* peekLast() { return (last) ? last->data : nullptr; }
  38:src/../h/Queue.h **** 
  39:src/../h/Queue.h ****     void push(T* data);
  40:src/../h/Queue.h ****     T* pop();
  41:src/../h/Queue.h **** 
  42:src/../h/Queue.h ****     ~Queue();
  43:src/../h/Queue.h **** 
  44:src/../h/Queue.h **** };
  45:src/../h/Queue.h **** 
  46:src/../h/Queue.h **** template<typename T>
GAS LISTING /tmp/ccpsd8wH.s 			page 2


  47:src/../h/Queue.h **** Queue<T>::~Queue() {
  48:src/../h/Queue.h ****     if (!head) return;
  49:src/../h/Queue.h ****     while(head->next)
  50:src/../h/Queue.h ****         pop();
  51:src/../h/Queue.h ****     void* p = (void*) (((uint64) head / MEM_BLOCK_SIZE) * MEM_BLOCK_SIZE);
  52:src/../h/Queue.h ****     mem_free(p);
  53:src/../h/Queue.h **** }
  54:src/../h/Queue.h **** 
  55:src/../h/Queue.h **** template<typename T>
  56:src/../h/Queue.h **** T *Queue<T>::pop() {
  57:src/../h/Queue.h ****     if(!head) return nullptr;
  58:src/../h/Queue.h ****     Node* node = head;
  59:src/../h/Queue.h ****     T* data = node->data;
  60:src/../h/Queue.h **** 
  61:src/../h/Queue.h ****     head = head->next;
  62:src/../h/Queue.h ****     if (node == last)
  63:src/../h/Queue.h ****         last = nullptr;
  64:src/../h/Queue.h ****     delete node;
  65:src/../h/Queue.h ****     return data;
  66:src/../h/Queue.h **** }
  67:src/../h/Queue.h **** 
  68:src/../h/Queue.h **** template<typename T>
  69:src/../h/Queue.h **** void Queue<T>::push(T *data) {
  70:src/../h/Queue.h ****     Node* node = new(this) Node();
  71:src/../h/Queue.h ****     node->data = data;
  72:src/../h/Queue.h **** 
  73:src/../h/Queue.h ****     if (!head) {
  74:src/../h/Queue.h ****         head = last = node;
  75:src/../h/Queue.h ****         return;
  76:src/../h/Queue.h ****     }
  77:src/../h/Queue.h **** 
  78:src/../h/Queue.h ****     last->next = node;
  79:src/../h/Queue.h ****     last = node;
  80:src/../h/Queue.h **** 
  81:src/../h/Queue.h **** }
  82:src/../h/Queue.h **** 
  83:src/../h/Queue.h **** template<typename T>
  84:src/../h/Queue.h **** void *Queue<T>::Node::operator new(size_t sz, Queue<T>* p) {
  85:src/../h/Queue.h ****     if (sz > MEM_BLOCK_SIZE)
  86:src/../h/Queue.h ****         return mem_alloc(sz);
  87:src/../h/Queue.h **** 
  88:src/../h/Queue.h ****     if (p->lastNodeAddr % MEM_BLOCK_SIZE == 0) {
  89:src/../h/Queue.h ****         void* ptr = mem_alloc(MEM_BLOCK_SIZE);
  90:src/../h/Queue.h ****         p->lastNodeAddr = (uint64) ptr + MEM_BLOCK_SIZE;
  91:src/../h/Queue.h ****     }
  92:src/../h/Queue.h ****     p->lastNodeAddr -= (uint64)sizeof(Node);
  93:src/../h/Queue.h ****     return (void*)p->lastNodeAddr;
  94:src/../h/Queue.h **** }
  95:src/../h/Queue.h **** 
  96:src/../h/Queue.h **** template<typename T>
  97:src/../h/Queue.h **** void Queue<T>::Node::operator delete(void* p) {
  13              		.loc 1 97 6
  14              		.cfi_startproc
  15              	.LVL0:
  16 0000 130101FF 		addi	sp,sp,-16
  17              		.cfi_def_cfa_offset 16
  18 0004 23341100 		sd	ra,8(sp)
GAS LISTING /tmp/ccpsd8wH.s 			page 3


  19 0008 23308100 		sd	s0,0(sp)
  20              		.cfi_offset 1, -8
  21              		.cfi_offset 8, -16
  22 000c 13040101 		addi	s0,sp,16
  23              		.cfi_def_cfa 8, 0
  98:src/../h/Queue.h ****     // page won't be freed if pointer doesn't point to its beginning
  99:src/../h/Queue.h ****     mem_free(p);
  24              		.loc 1 99 13 is_stmt 0
  25 0010 97000000 		call	_Z8mem_freePv@plt
  25      E7800000 
  26              	.LVL1:
 100:src/../h/Queue.h **** }
  27              		.loc 1 100 1
  28 0018 83308100 		ld	ra,8(sp)
  29              		.cfi_restore 1
  30 001c 03340100 		ld	s0,0(sp)
  31              		.cfi_restore 8
  32              		.cfi_def_cfa 2, 16
  33 0020 13010101 		addi	sp,sp,16
  34              		.cfi_def_cfa_offset 0
  35 0024 67800000 		jr	ra
  36              		.cfi_endproc
  37              	.LFE38:
  39              		.section	.text._ZN5QueueI3TCBE3popEv,"axG",@progbits,_ZN5QueueI3TCBE3popEv,comdat
  40              		.align	2
  41              		.weak	_ZN5QueueI3TCBE3popEv
  43              	_ZN5QueueI3TCBE3popEv:
  44              	.LFB33:
  56:src/../h/Queue.h ****     if(!head) return nullptr;
  45              		.loc 1 56 4 is_stmt 1
  46              		.cfi_startproc
  47              	.LVL2:
  48 0000 130101FE 		addi	sp,sp,-32
  49              		.cfi_def_cfa_offset 32
  50 0004 233C1100 		sd	ra,24(sp)
  51 0008 23388100 		sd	s0,16(sp)
  52 000c 23349100 		sd	s1,8(sp)
  53              		.cfi_offset 1, -8
  54              		.cfi_offset 8, -16
  55              		.cfi_offset 9, -24
  56 0010 13040102 		addi	s0,sp,32
  57              		.cfi_def_cfa 8, 0
  58 0014 93070500 		mv	a5,a0
  57:src/../h/Queue.h ****     Node* node = head;
  59              		.loc 1 57 9 is_stmt 0
  60 0018 03358500 		ld	a0,8(a0)
  61              	.LVL3:
  57:src/../h/Queue.h ****     Node* node = head;
  62              		.loc 1 57 5
  63 001c 63000504 		beqz	a0,.L6
  64              	.LVL4:
  59:src/../h/Queue.h **** 
  65              		.loc 1 59 8
  66 0020 83348500 		ld	s1,8(a0)
  67              	.LVL5:
  61:src/../h/Queue.h ****     if (node == last)
  68              		.loc 1 61 18
GAS LISTING /tmp/ccpsd8wH.s 			page 4


  69 0024 03370500 		ld	a4,0(a0)
  61:src/../h/Queue.h ****     if (node == last)
  70              		.loc 1 61 5
  71 0028 23B4E700 		sd	a4,8(a5)
  62:src/../h/Queue.h ****         last = nullptr;
  72              		.loc 1 62 17
  73 002c 03B70701 		ld	a4,16(a5)
  62:src/../h/Queue.h ****         last = nullptr;
  74              		.loc 1 62 5
  75 0030 6302E502 		beq	a0,a4,.L8
  76              	.L5:
  64:src/../h/Queue.h ****     return data;
  77              		.loc 1 64 5
  78 0034 97000000 		call	_ZN5QueueI3TCBE4NodedlEPv
  78      E7800000 
  79              	.LVL6:
  80              	.L3:
  66:src/../h/Queue.h **** 
  81              		.loc 1 66 1
  82 003c 13850400 		mv	a0,s1
  83 0040 83308101 		ld	ra,24(sp)
  84              		.cfi_remember_state
  85              		.cfi_restore 1
  86 0044 03340101 		ld	s0,16(sp)
  87              		.cfi_restore 8
  88              		.cfi_def_cfa 2, 32
  89 0048 83348100 		ld	s1,8(sp)
  90              		.cfi_restore 9
  91 004c 13010102 		addi	sp,sp,32
  92              		.cfi_def_cfa_offset 0
  93 0050 67800000 		jr	ra
  94              	.LVL7:
  95              	.L8:
  96              		.cfi_restore_state
  63:src/../h/Queue.h ****     delete node;
  97              		.loc 1 63 9
  98 0054 23B80700 		sd	zero,16(a5)
  99 0058 6FF0DFFD 		j	.L5
 100              	.LVL8:
 101              	.L6:
  57:src/../h/Queue.h ****     Node* node = head;
 102              		.loc 1 57 22
 103 005c 93040500 		mv	s1,a0
 104 0060 6FF0DFFD 		j	.L3
 105              		.cfi_endproc
 106              	.LFE33:
 108              		.text
 109              		.align	2
 110              		.globl	_ZN9Scheduler3getEv
 112              	_ZN9Scheduler3getEv:
 113              	.LFB31:
 114              		.file 2 "src/Scheduler.cpp"
   1:src/Scheduler.cpp **** //
   2:src/Scheduler.cpp **** // Created by os on 5/6/24.
   3:src/Scheduler.cpp **** //
   4:src/Scheduler.cpp **** 
   5:src/Scheduler.cpp **** #include "../h/Scheduler.h"
GAS LISTING /tmp/ccpsd8wH.s 			page 5


   6:src/Scheduler.cpp **** 
   7:src/Scheduler.cpp **** 
   8:src/Scheduler.cpp **** TCB *Scheduler::get() {
 115              		.loc 2 8 23 is_stmt 1
 116              		.cfi_startproc
 117              	.LVL9:
 118 0000 130101FF 		addi	sp,sp,-16
 119              		.cfi_def_cfa_offset 16
 120 0004 23341100 		sd	ra,8(sp)
 121 0008 23308100 		sd	s0,0(sp)
 122              		.cfi_offset 1, -8
 123              		.cfi_offset 8, -16
 124 000c 13040101 		addi	s0,sp,16
 125              		.cfi_def_cfa 8, 0
   9:src/Scheduler.cpp ****     return readyQueue->pop();
 126              		.loc 2 9 5
 127              		.loc 2 9 27 is_stmt 0
 128 0010 03350500 		ld	a0,0(a0)
 129              	.LVL10:
 130 0014 97000000 		call	_ZN5QueueI3TCBE3popEv
 130      E7800000 
 131              	.LVL11:
  10:src/Scheduler.cpp **** }
 132              		.loc 2 10 1
 133 001c 83308100 		ld	ra,8(sp)
 134              		.cfi_restore 1
 135 0020 03340100 		ld	s0,0(sp)
 136              		.cfi_restore 8
 137              		.cfi_def_cfa 2, 16
 138 0024 13010101 		addi	sp,sp,16
 139              		.cfi_def_cfa_offset 0
 140 0028 67800000 		jr	ra
 141              		.cfi_endproc
 142              	.LFE31:
 144              		.section	.text._ZN5QueueI3TCBE4NodenwEmPS1_,"axG",@progbits,_ZN5QueueI3TCBE4NodenwEmPS1_,comdat
 145              		.align	2
 146              		.weak	_ZN5QueueI3TCBE4NodenwEmPS1_
 148              	_ZN5QueueI3TCBE4NodenwEmPS1_:
 149              	.LFB39:
  84:src/../h/Queue.h ****     if (sz > MEM_BLOCK_SIZE)
 150              		.loc 1 84 7 is_stmt 1
 151              		.cfi_startproc
 152              	.LVL12:
 153 0000 130101FE 		addi	sp,sp,-32
 154              		.cfi_def_cfa_offset 32
 155 0004 233C1100 		sd	ra,24(sp)
 156 0008 23388100 		sd	s0,16(sp)
 157 000c 23349100 		sd	s1,8(sp)
 158              		.cfi_offset 1, -8
 159              		.cfi_offset 8, -16
 160              		.cfi_offset 9, -24
 161 0010 13040102 		addi	s0,sp,32
 162              		.cfi_def_cfa 8, 0
  85:src/../h/Queue.h ****         return mem_alloc(sz);
 163              		.loc 1 85 5 is_stmt 0
 164 0014 93070004 		li	a5,64
 165 0018 63EAA702 		bgtu	a0,a5,.L16
GAS LISTING /tmp/ccpsd8wH.s 			page 6


 166 001c 93840500 		mv	s1,a1
 167              	.LBB5:
  88:src/../h/Queue.h ****         void* ptr = mem_alloc(MEM_BLOCK_SIZE);
 168              		.loc 1 88 12
 169 0020 83B70500 		ld	a5,0(a1)
  88:src/../h/Queue.h ****         void* ptr = mem_alloc(MEM_BLOCK_SIZE);
 170              		.loc 1 88 25
 171 0024 93F7F703 		andi	a5,a5,63
  88:src/../h/Queue.h ****         void* ptr = mem_alloc(MEM_BLOCK_SIZE);
 172              		.loc 1 88 5
 173 0028 63880702 		beqz	a5,.L17
 174              	.LVL13:
 175              	.L14:
 176              	.LBE5:
  92:src/../h/Queue.h ****     return (void*)p->lastNodeAddr;
 177              		.loc 1 92 21
 178 002c 03B50400 		ld	a0,0(s1)
 179 0030 130505FF 		addi	a0,a0,-16
  92:src/../h/Queue.h ****     return (void*)p->lastNodeAddr;
 180              		.loc 1 92 5
 181 0034 23B0A400 		sd	a0,0(s1)
 182              	.LVL14:
 183              	.L11:
  94:src/../h/Queue.h **** 
 184              		.loc 1 94 1
 185 0038 83308101 		ld	ra,24(sp)
 186              		.cfi_remember_state
 187              		.cfi_restore 1
 188 003c 03340101 		ld	s0,16(sp)
 189              		.cfi_restore 8
 190              		.cfi_def_cfa 2, 32
 191 0040 83348100 		ld	s1,8(sp)
 192              		.cfi_restore 9
 193 0044 13010102 		addi	sp,sp,32
 194              		.cfi_def_cfa_offset 0
 195 0048 67800000 		jr	ra
 196              	.LVL15:
 197              	.L16:
 198              		.cfi_restore_state
  86:src/../h/Queue.h **** 
 199              		.loc 1 86 25
 200 004c 97000000 		call	_Z9mem_allocm@plt
 200      E7800000 
 201              	.LVL16:
  86:src/../h/Queue.h **** 
 202              		.loc 1 86 28
 203 0054 6FF05FFE 		j	.L11
 204              	.LVL17:
 205              	.L17:
 206              	.LBB7:
 207              	.LBB6:
  89:src/../h/Queue.h ****         p->lastNodeAddr = (uint64) ptr + MEM_BLOCK_SIZE;
 208              		.loc 1 89 30
 209 0058 13050004 		li	a0,64
 210              	.LVL18:
 211 005c 97000000 		call	_Z9mem_allocm@plt
 211      E7800000 
GAS LISTING /tmp/ccpsd8wH.s 			page 7


 212              	.LVL19:
  90:src/../h/Queue.h ****     }
 213              		.loc 1 90 40
 214 0064 13050504 		addi	a0,a0,64
 215              	.LVL20:
  90:src/../h/Queue.h ****     }
 216              		.loc 1 90 9
 217 0068 23B0A400 		sd	a0,0(s1)
 218              	.LBE6:
 219 006c 6FF01FFC 		j	.L14
 220              	.LBE7:
 221              		.cfi_endproc
 222              	.LFE39:
 224              		.section	.text._ZN5QueueI3TCBE4pushEPS0_,"axG",@progbits,_ZN5QueueI3TCBE4pushEPS0_,comdat
 225              		.align	2
 226              		.weak	_ZN5QueueI3TCBE4pushEPS0_
 228              	_ZN5QueueI3TCBE4pushEPS0_:
 229              	.LFB34:
  69:src/../h/Queue.h ****     Node* node = new(this) Node();
 230              		.loc 1 69 6 is_stmt 1
 231              		.cfi_startproc
 232              	.LVL21:
 233 0000 130101FE 		addi	sp,sp,-32
 234              		.cfi_def_cfa_offset 32
 235 0004 233C1100 		sd	ra,24(sp)
 236 0008 23388100 		sd	s0,16(sp)
 237 000c 23349100 		sd	s1,8(sp)
 238 0010 23302101 		sd	s2,0(sp)
 239              		.cfi_offset 1, -8
 240              		.cfi_offset 8, -16
 241              		.cfi_offset 9, -24
 242              		.cfi_offset 18, -32
 243 0014 13040102 		addi	s0,sp,32
 244              		.cfi_def_cfa 8, 0
 245 0018 93040500 		mv	s1,a0
 246 001c 13890500 		mv	s2,a1
  70:src/../h/Queue.h ****     node->data = data;
 247              		.loc 1 70 18 is_stmt 0
 248 0020 93050500 		mv	a1,a0
 249              	.LVL22:
 250 0024 13050001 		li	a0,16
 251              	.LVL23:
 252 0028 97000000 		call	_ZN5QueueI3TCBE4NodenwEmPS1_
 252      E7800000 
 253              	.LVL24:
  70:src/../h/Queue.h ****     node->data = data;
 254              		.loc 1 70 11
 255 0030 23300500 		sd	zero,0(a0)
 256              	.LVL25:
  71:src/../h/Queue.h **** 
 257              		.loc 1 71 5
 258 0034 23342501 		sd	s2,8(a0)
  73:src/../h/Queue.h ****         head = last = node;
 259              		.loc 1 73 10
 260 0038 83B78400 		ld	a5,8(s1)
  73:src/../h/Queue.h ****         head = last = node;
 261              		.loc 1 73 5
GAS LISTING /tmp/ccpsd8wH.s 			page 8


 262 003c 63840702 		beqz	a5,.L22
  78:src/../h/Queue.h ****     last = node;
 263              		.loc 1 78 5
 264 0040 83B70401 		ld	a5,16(s1)
 265 0044 23B0A700 		sd	a0,0(a5)
  79:src/../h/Queue.h **** 
 266              		.loc 1 79 5
 267 0048 23B8A400 		sd	a0,16(s1)
 268              	.L18:
  81:src/../h/Queue.h **** 
 269              		.loc 1 81 1
 270 004c 83308101 		ld	ra,24(sp)
 271              		.cfi_remember_state
 272              		.cfi_restore 1
 273 0050 03340101 		ld	s0,16(sp)
 274              		.cfi_restore 8
 275              		.cfi_def_cfa 2, 32
 276 0054 83348100 		ld	s1,8(sp)
 277              		.cfi_restore 9
 278              	.LVL26:
 279 0058 03390100 		ld	s2,0(sp)
 280              		.cfi_restore 18
 281              	.LVL27:
 282 005c 13010102 		addi	sp,sp,32
 283              		.cfi_def_cfa_offset 0
 284 0060 67800000 		jr	ra
 285              	.LVL28:
 286              	.L22:
 287              		.cfi_restore_state
  74:src/../h/Queue.h ****         return;
 288              		.loc 1 74 9
 289 0064 23B8A400 		sd	a0,16(s1)
 290 0068 23B4A400 		sd	a0,8(s1)
  75:src/../h/Queue.h ****     }
 291              		.loc 1 75 9
 292 006c 6FF01FFE 		j	.L18
 293              		.cfi_endproc
 294              	.LFE34:
 296              		.text
 297              		.align	2
 298              		.globl	_ZN9Scheduler3putEP3TCB
 300              	_ZN9Scheduler3putEP3TCB:
 301              	.LFB32:
  11:src/Scheduler.cpp **** 
  12:src/Scheduler.cpp **** void Scheduler::put(TCB * data) {
 302              		.loc 2 12 33 is_stmt 1
 303              		.cfi_startproc
 304              	.LVL29:
 305 002c 130101FF 		addi	sp,sp,-16
 306              		.cfi_def_cfa_offset 16
 307 0030 23341100 		sd	ra,8(sp)
 308 0034 23308100 		sd	s0,0(sp)
 309              		.cfi_offset 1, -8
 310              		.cfi_offset 8, -16
 311 0038 13040101 		addi	s0,sp,16
 312              		.cfi_def_cfa 8, 0
  13:src/Scheduler.cpp ****     readyQueue->push(data);
GAS LISTING /tmp/ccpsd8wH.s 			page 9


 313              		.loc 2 13 5
 314              		.loc 2 13 21 is_stmt 0
 315 003c 03350500 		ld	a0,0(a0)
 316              	.LVL30:
 317 0040 97000000 		call	_ZN5QueueI3TCBE4pushEPS0_
 317      E7800000 
 318              	.LVL31:
  14:src/Scheduler.cpp **** }
 319              		.loc 2 14 1
 320 0048 83308100 		ld	ra,8(sp)
 321              		.cfi_restore 1
 322 004c 03340100 		ld	s0,0(sp)
 323              		.cfi_restore 8
 324              		.cfi_def_cfa 2, 16
 325 0050 13010101 		addi	sp,sp,16
 326              		.cfi_def_cfa_offset 0
 327 0054 67800000 		jr	ra
 328              		.cfi_endproc
 329              	.LFE32:
 331              	.Letext0:
 332              		.file 3 "src/../h/../lib/hw.h"
 333              		.file 4 "src/../h/Scheduler.h"
 334              		.file 5 "src/../h/syscall_c.h"
GAS LISTING /tmp/ccpsd8wH.s 			page 10


DEFINED SYMBOLS
                            *ABS*:0000000000000000 Scheduler.cpp
     /tmp/ccpsd8wH.s:10     .text._ZN5QueueI3TCBE4NodedlEPv:0000000000000000 _ZN5QueueI3TCBE4NodedlEPv
     /tmp/ccpsd8wH.s:14     .text._ZN5QueueI3TCBE4NodedlEPv:0000000000000000 .L0 
     /tmp/ccpsd8wH.s:16     .text._ZN5QueueI3TCBE4NodedlEPv:0000000000000000 .L0 
     /tmp/ccpsd8wH.s:17     .text._ZN5QueueI3TCBE4NodedlEPv:0000000000000004 .L0 
     /tmp/ccpsd8wH.s:20     .text._ZN5QueueI3TCBE4NodedlEPv:000000000000000c .L0 
     /tmp/ccpsd8wH.s:21     .text._ZN5QueueI3TCBE4NodedlEPv:000000000000000c .L0 
     /tmp/ccpsd8wH.s:23     .text._ZN5QueueI3TCBE4NodedlEPv:0000000000000010 .L0 
     /tmp/ccpsd8wH.s:25     .text._ZN5QueueI3TCBE4NodedlEPv:0000000000000010 .L0 
     /tmp/ccpsd8wH.s:28     .text._ZN5QueueI3TCBE4NodedlEPv:0000000000000018 .L0 
     /tmp/ccpsd8wH.s:29     .text._ZN5QueueI3TCBE4NodedlEPv:000000000000001c .L0 
     /tmp/ccpsd8wH.s:31     .text._ZN5QueueI3TCBE4NodedlEPv:0000000000000020 .L0 
     /tmp/ccpsd8wH.s:32     .text._ZN5QueueI3TCBE4NodedlEPv:0000000000000020 .L0 
     /tmp/ccpsd8wH.s:34     .text._ZN5QueueI3TCBE4NodedlEPv:0000000000000024 .L0 
     /tmp/ccpsd8wH.s:36     .text._ZN5QueueI3TCBE4NodedlEPv:0000000000000028 .L0 
     /tmp/ccpsd8wH.s:43     .text._ZN5QueueI3TCBE3popEv:0000000000000000 _ZN5QueueI3TCBE3popEv
     /tmp/ccpsd8wH.s:46     .text._ZN5QueueI3TCBE3popEv:0000000000000000 .L0 
     /tmp/ccpsd8wH.s:48     .text._ZN5QueueI3TCBE3popEv:0000000000000000 .L0 
     /tmp/ccpsd8wH.s:49     .text._ZN5QueueI3TCBE3popEv:0000000000000004 .L0 
     /tmp/ccpsd8wH.s:53     .text._ZN5QueueI3TCBE3popEv:0000000000000010 .L0 
     /tmp/ccpsd8wH.s:54     .text._ZN5QueueI3TCBE3popEv:0000000000000010 .L0 
     /tmp/ccpsd8wH.s:55     .text._ZN5QueueI3TCBE3popEv:0000000000000010 .L0 
     /tmp/ccpsd8wH.s:57     .text._ZN5QueueI3TCBE3popEv:0000000000000014 .L0 
     /tmp/ccpsd8wH.s:60     .text._ZN5QueueI3TCBE3popEv:0000000000000018 .L0 
     /tmp/ccpsd8wH.s:63     .text._ZN5QueueI3TCBE3popEv:000000000000001c .L0 
     /tmp/ccpsd8wH.s:66     .text._ZN5QueueI3TCBE3popEv:0000000000000020 .L0 
     /tmp/ccpsd8wH.s:69     .text._ZN5QueueI3TCBE3popEv:0000000000000024 .L0 
     /tmp/ccpsd8wH.s:71     .text._ZN5QueueI3TCBE3popEv:0000000000000028 .L0 
     /tmp/ccpsd8wH.s:73     .text._ZN5QueueI3TCBE3popEv:000000000000002c .L0 
     /tmp/ccpsd8wH.s:75     .text._ZN5QueueI3TCBE3popEv:0000000000000030 .L0 
     /tmp/ccpsd8wH.s:78     .text._ZN5QueueI3TCBE3popEv:0000000000000034 .L0 
     /tmp/ccpsd8wH.s:82     .text._ZN5QueueI3TCBE3popEv:000000000000003c .L0 
     /tmp/ccpsd8wH.s:84     .text._ZN5QueueI3TCBE3popEv:0000000000000044 .L0 
     /tmp/ccpsd8wH.s:85     .text._ZN5QueueI3TCBE3popEv:0000000000000044 .L0 
     /tmp/ccpsd8wH.s:87     .text._ZN5QueueI3TCBE3popEv:0000000000000048 .L0 
     /tmp/ccpsd8wH.s:88     .text._ZN5QueueI3TCBE3popEv:0000000000000048 .L0 
     /tmp/ccpsd8wH.s:90     .text._ZN5QueueI3TCBE3popEv:000000000000004c .L0 
     /tmp/ccpsd8wH.s:92     .text._ZN5QueueI3TCBE3popEv:0000000000000050 .L0 
     /tmp/ccpsd8wH.s:96     .text._ZN5QueueI3TCBE3popEv:0000000000000054 .L0 
     /tmp/ccpsd8wH.s:98     .text._ZN5QueueI3TCBE3popEv:0000000000000054 .L0 
     /tmp/ccpsd8wH.s:103    .text._ZN5QueueI3TCBE3popEv:000000000000005c .L0 
     /tmp/ccpsd8wH.s:105    .text._ZN5QueueI3TCBE3popEv:0000000000000064 .L0 
     /tmp/ccpsd8wH.s:112    .text:0000000000000000 _ZN9Scheduler3getEv
     /tmp/ccpsd8wH.s:116    .text:0000000000000000 .L0 
     /tmp/ccpsd8wH.s:118    .text:0000000000000000 .L0 
     /tmp/ccpsd8wH.s:119    .text:0000000000000004 .L0 
     /tmp/ccpsd8wH.s:122    .text:000000000000000c .L0 
     /tmp/ccpsd8wH.s:123    .text:000000000000000c .L0 
     /tmp/ccpsd8wH.s:125    .text:0000000000000010 .L0 
     /tmp/ccpsd8wH.s:127    .text:0000000000000010 .L0 
     /tmp/ccpsd8wH.s:128    .text:0000000000000010 .L0 
     /tmp/ccpsd8wH.s:133    .text:000000000000001c .L0 
     /tmp/ccpsd8wH.s:134    .text:0000000000000020 .L0 
     /tmp/ccpsd8wH.s:136    .text:0000000000000024 .L0 
     /tmp/ccpsd8wH.s:137    .text:0000000000000024 .L0 
     /tmp/ccpsd8wH.s:139    .text:0000000000000028 .L0 
GAS LISTING /tmp/ccpsd8wH.s 			page 11


     /tmp/ccpsd8wH.s:141    .text:000000000000002c .L0 
     /tmp/ccpsd8wH.s:148    .text._ZN5QueueI3TCBE4NodenwEmPS1_:0000000000000000 _ZN5QueueI3TCBE4NodenwEmPS1_
     /tmp/ccpsd8wH.s:151    .text._ZN5QueueI3TCBE4NodenwEmPS1_:0000000000000000 .L0 
     /tmp/ccpsd8wH.s:153    .text._ZN5QueueI3TCBE4NodenwEmPS1_:0000000000000000 .L0 
     /tmp/ccpsd8wH.s:154    .text._ZN5QueueI3TCBE4NodenwEmPS1_:0000000000000004 .L0 
     /tmp/ccpsd8wH.s:158    .text._ZN5QueueI3TCBE4NodenwEmPS1_:0000000000000010 .L0 
     /tmp/ccpsd8wH.s:159    .text._ZN5QueueI3TCBE4NodenwEmPS1_:0000000000000010 .L0 
     /tmp/ccpsd8wH.s:160    .text._ZN5QueueI3TCBE4NodenwEmPS1_:0000000000000010 .L0 
     /tmp/ccpsd8wH.s:162    .text._ZN5QueueI3TCBE4NodenwEmPS1_:0000000000000014 .L0 
     /tmp/ccpsd8wH.s:164    .text._ZN5QueueI3TCBE4NodenwEmPS1_:0000000000000014 .L0 
     /tmp/ccpsd8wH.s:169    .text._ZN5QueueI3TCBE4NodenwEmPS1_:0000000000000020 .L0 
     /tmp/ccpsd8wH.s:171    .text._ZN5QueueI3TCBE4NodenwEmPS1_:0000000000000024 .L0 
     /tmp/ccpsd8wH.s:173    .text._ZN5QueueI3TCBE4NodenwEmPS1_:0000000000000028 .L0 
     /tmp/ccpsd8wH.s:178    .text._ZN5QueueI3TCBE4NodenwEmPS1_:000000000000002c .L0 
     /tmp/ccpsd8wH.s:181    .text._ZN5QueueI3TCBE4NodenwEmPS1_:0000000000000034 .L0 
     /tmp/ccpsd8wH.s:185    .text._ZN5QueueI3TCBE4NodenwEmPS1_:0000000000000038 .L0 
     /tmp/ccpsd8wH.s:186    .text._ZN5QueueI3TCBE4NodenwEmPS1_:000000000000003c .L0 
     /tmp/ccpsd8wH.s:187    .text._ZN5QueueI3TCBE4NodenwEmPS1_:000000000000003c .L0 
     /tmp/ccpsd8wH.s:189    .text._ZN5QueueI3TCBE4NodenwEmPS1_:0000000000000040 .L0 
     /tmp/ccpsd8wH.s:190    .text._ZN5QueueI3TCBE4NodenwEmPS1_:0000000000000040 .L0 
     /tmp/ccpsd8wH.s:192    .text._ZN5QueueI3TCBE4NodenwEmPS1_:0000000000000044 .L0 
     /tmp/ccpsd8wH.s:194    .text._ZN5QueueI3TCBE4NodenwEmPS1_:0000000000000048 .L0 
     /tmp/ccpsd8wH.s:198    .text._ZN5QueueI3TCBE4NodenwEmPS1_:000000000000004c .L0 
     /tmp/ccpsd8wH.s:200    .text._ZN5QueueI3TCBE4NodenwEmPS1_:000000000000004c .L0 
     /tmp/ccpsd8wH.s:203    .text._ZN5QueueI3TCBE4NodenwEmPS1_:0000000000000054 .L0 
     /tmp/ccpsd8wH.s:209    .text._ZN5QueueI3TCBE4NodenwEmPS1_:0000000000000058 .L0 
     /tmp/ccpsd8wH.s:214    .text._ZN5QueueI3TCBE4NodenwEmPS1_:0000000000000064 .L0 
     /tmp/ccpsd8wH.s:217    .text._ZN5QueueI3TCBE4NodenwEmPS1_:0000000000000068 .L0 
     /tmp/ccpsd8wH.s:221    .text._ZN5QueueI3TCBE4NodenwEmPS1_:0000000000000070 .L0 
     /tmp/ccpsd8wH.s:228    .text._ZN5QueueI3TCBE4pushEPS0_:0000000000000000 _ZN5QueueI3TCBE4pushEPS0_
     /tmp/ccpsd8wH.s:231    .text._ZN5QueueI3TCBE4pushEPS0_:0000000000000000 .L0 
     /tmp/ccpsd8wH.s:233    .text._ZN5QueueI3TCBE4pushEPS0_:0000000000000000 .L0 
     /tmp/ccpsd8wH.s:234    .text._ZN5QueueI3TCBE4pushEPS0_:0000000000000004 .L0 
     /tmp/ccpsd8wH.s:239    .text._ZN5QueueI3TCBE4pushEPS0_:0000000000000014 .L0 
     /tmp/ccpsd8wH.s:240    .text._ZN5QueueI3TCBE4pushEPS0_:0000000000000014 .L0 
     /tmp/ccpsd8wH.s:241    .text._ZN5QueueI3TCBE4pushEPS0_:0000000000000014 .L0 
     /tmp/ccpsd8wH.s:242    .text._ZN5QueueI3TCBE4pushEPS0_:0000000000000014 .L0 
     /tmp/ccpsd8wH.s:244    .text._ZN5QueueI3TCBE4pushEPS0_:0000000000000018 .L0 
     /tmp/ccpsd8wH.s:248    .text._ZN5QueueI3TCBE4pushEPS0_:0000000000000020 .L0 
     /tmp/ccpsd8wH.s:255    .text._ZN5QueueI3TCBE4pushEPS0_:0000000000000030 .L0 
     /tmp/ccpsd8wH.s:258    .text._ZN5QueueI3TCBE4pushEPS0_:0000000000000034 .L0 
     /tmp/ccpsd8wH.s:260    .text._ZN5QueueI3TCBE4pushEPS0_:0000000000000038 .L0 
     /tmp/ccpsd8wH.s:262    .text._ZN5QueueI3TCBE4pushEPS0_:000000000000003c .L0 
     /tmp/ccpsd8wH.s:264    .text._ZN5QueueI3TCBE4pushEPS0_:0000000000000040 .L0 
     /tmp/ccpsd8wH.s:267    .text._ZN5QueueI3TCBE4pushEPS0_:0000000000000048 .L0 
     /tmp/ccpsd8wH.s:270    .text._ZN5QueueI3TCBE4pushEPS0_:000000000000004c .L0 
     /tmp/ccpsd8wH.s:271    .text._ZN5QueueI3TCBE4pushEPS0_:0000000000000050 .L0 
     /tmp/ccpsd8wH.s:272    .text._ZN5QueueI3TCBE4pushEPS0_:0000000000000050 .L0 
     /tmp/ccpsd8wH.s:274    .text._ZN5QueueI3TCBE4pushEPS0_:0000000000000054 .L0 
     /tmp/ccpsd8wH.s:275    .text._ZN5QueueI3TCBE4pushEPS0_:0000000000000054 .L0 
     /tmp/ccpsd8wH.s:277    .text._ZN5QueueI3TCBE4pushEPS0_:0000000000000058 .L0 
     /tmp/ccpsd8wH.s:280    .text._ZN5QueueI3TCBE4pushEPS0_:000000000000005c .L0 
     /tmp/ccpsd8wH.s:283    .text._ZN5QueueI3TCBE4pushEPS0_:0000000000000060 .L0 
     /tmp/ccpsd8wH.s:287    .text._ZN5QueueI3TCBE4pushEPS0_:0000000000000064 .L0 
     /tmp/ccpsd8wH.s:289    .text._ZN5QueueI3TCBE4pushEPS0_:0000000000000064 .L0 
     /tmp/ccpsd8wH.s:292    .text._ZN5QueueI3TCBE4pushEPS0_:000000000000006c .L0 
     /tmp/ccpsd8wH.s:293    .text._ZN5QueueI3TCBE4pushEPS0_:0000000000000070 .L0 
GAS LISTING /tmp/ccpsd8wH.s 			page 12


     /tmp/ccpsd8wH.s:300    .text:000000000000002c _ZN9Scheduler3putEP3TCB
     /tmp/ccpsd8wH.s:303    .text:000000000000002c .L0 
     /tmp/ccpsd8wH.s:305    .text:000000000000002c .L0 
     /tmp/ccpsd8wH.s:306    .text:0000000000000030 .L0 
     /tmp/ccpsd8wH.s:309    .text:0000000000000038 .L0 
     /tmp/ccpsd8wH.s:310    .text:0000000000000038 .L0 
     /tmp/ccpsd8wH.s:312    .text:000000000000003c .L0 
     /tmp/ccpsd8wH.s:314    .text:000000000000003c .L0 
     /tmp/ccpsd8wH.s:315    .text:000000000000003c .L0 
     /tmp/ccpsd8wH.s:320    .text:0000000000000048 .L0 
     /tmp/ccpsd8wH.s:321    .text:000000000000004c .L0 
     /tmp/ccpsd8wH.s:323    .text:0000000000000050 .L0 
     /tmp/ccpsd8wH.s:324    .text:0000000000000050 .L0 
     /tmp/ccpsd8wH.s:326    .text:0000000000000054 .L0 
     /tmp/ccpsd8wH.s:328    .text:0000000000000058 .L0 
     /tmp/ccpsd8wH.s:39     .text._ZN5QueueI3TCBE4NodedlEPv:0000000000000028 .L0 
     /tmp/ccpsd8wH.s:108    .text._ZN5QueueI3TCBE3popEv:0000000000000064 .L0 
     /tmp/ccpsd8wH.s:335    .text:0000000000000058 .L0 
     /tmp/ccpsd8wH.s:224    .text._ZN5QueueI3TCBE4NodenwEmPS1_:0000000000000070 .L0 
     /tmp/ccpsd8wH.s:296    .text._ZN5QueueI3TCBE4pushEPS0_:0000000000000070 .L0 
     /tmp/ccpsd8wH.s:101    .text._ZN5QueueI3TCBE3popEv:000000000000005c .L6
     /tmp/ccpsd8wH.s:95     .text._ZN5QueueI3TCBE3popEv:0000000000000054 .L8
     /tmp/ccpsd8wH.s:76     .text._ZN5QueueI3TCBE3popEv:0000000000000034 .L5
     /tmp/ccpsd8wH.s:80     .text._ZN5QueueI3TCBE3popEv:000000000000003c .L3
     /tmp/ccpsd8wH.s:197    .text._ZN5QueueI3TCBE4NodenwEmPS1_:000000000000004c .L16
     /tmp/ccpsd8wH.s:205    .text._ZN5QueueI3TCBE4NodenwEmPS1_:0000000000000058 .L17
     /tmp/ccpsd8wH.s:183    .text._ZN5QueueI3TCBE4NodenwEmPS1_:0000000000000038 .L11
     /tmp/ccpsd8wH.s:175    .text._ZN5QueueI3TCBE4NodenwEmPS1_:000000000000002c .L14
     /tmp/ccpsd8wH.s:286    .text._ZN5QueueI3TCBE4pushEPS0_:0000000000000064 .L22
     /tmp/ccpsd8wH.s:268    .text._ZN5QueueI3TCBE4pushEPS0_:000000000000004c .L18
     /tmp/ccpsd8wH.s:992    .debug_abbrev:0000000000000000 .Ldebug_abbrev0
     /tmp/ccpsd8wH.s:2175   .debug_str:0000000000000330 .LASF51
     /tmp/ccpsd8wH.s:2183   .debug_str:000000000000041d .LASF52
     /tmp/ccpsd8wH.s:2193   .debug_str:000000000000046b .LASF53
     /tmp/ccpsd8wH.s:2055   .debug_ranges:0000000000000000 .Ldebug_ranges0
     /tmp/ccpsd8wH.s:2069   .debug_line:0000000000000000 .Ldebug_line0
     /tmp/ccpsd8wH.s:2137   .debug_str:0000000000000205 .LASF0
     /tmp/ccpsd8wH.s:2143   .debug_str:0000000000000234 .LASF1
     /tmp/ccpsd8wH.s:2131   .debug_str:00000000000001da .LASF2
     /tmp/ccpsd8wH.s:2115   .debug_str:000000000000015b .LASF4
     /tmp/ccpsd8wH.s:2167   .debug_str:00000000000002e2 .LASF3
     /tmp/ccpsd8wH.s:2075   .debug_str:000000000000001b .LASF5
     /tmp/ccpsd8wH.s:2145   .debug_str:0000000000000247 .LASF6
     /tmp/ccpsd8wH.s:2135   .debug_str:00000000000001f2 .LASF7
     /tmp/ccpsd8wH.s:2179   .debug_str:0000000000000403 .LASF8
     /tmp/ccpsd8wH.s:2107   .debug_str:0000000000000104 .LASF9
     /tmp/ccpsd8wH.s:2151   .debug_str:0000000000000271 .LASF10
     /tmp/ccpsd8wH.s:2177   .debug_str:00000000000003f4 .LASF11
     /tmp/ccpsd8wH.s:2077   .debug_str:0000000000000022 .LASF12
     /tmp/ccpsd8wH.s:2071   .debug_str:0000000000000000 .LASF13
     /tmp/ccpsd8wH.s:2089   .debug_str:000000000000007b .LASF14
     /tmp/ccpsd8wH.s:2163   .debug_str:00000000000002b2 .LASF15
     /tmp/ccpsd8wH.s:2095   .debug_str:00000000000000ac .LASF16
     /tmp/ccpsd8wH.s:2149   .debug_str:0000000000000267 .LASF17
     /tmp/ccpsd8wH.s:2111   .debug_str:000000000000012b .LASF41
     /tmp/ccpsd8wH.s:2085   .debug_str:0000000000000048 .LASF54
     /tmp/ccpsd8wH.s:2073   .debug_str:0000000000000010 .LASF19
GAS LISTING /tmp/ccpsd8wH.s 			page 13


     /tmp/ccpsd8wH.s:2117   .debug_str:0000000000000162 .LASF18
     /tmp/ccpsd8wH.s:2147   .debug_str:000000000000025a .LASF20
     /tmp/ccpsd8wH.s:2081   .debug_str:0000000000000039 .LASF55
     /tmp/ccpsd8wH.s:2191   .debug_str:0000000000000466 .LASF21
     /tmp/ccpsd8wH.s:2159   .debug_str:00000000000002a7 .LASF22
     /tmp/ccpsd8wH.s:2185   .debug_str:000000000000042f .LASF23
     /tmp/ccpsd8wH.s:2139   .debug_str:0000000000000212 .LASF28
     /tmp/ccpsd8wH.s:2169   .debug_str:00000000000002f4 .LASF56
     /tmp/ccpsd8wH.s:2099   .debug_str:00000000000000c7 .LASF57
     /tmp/ccpsd8wH.s:2173   .debug_str:0000000000000317 .LASF25
     /tmp/ccpsd8wH.s:2105   .debug_str:00000000000000f4 .LASF24
     /tmp/ccpsd8wH.s:2109   .debug_str:0000000000000112 .LASF26
     /tmp/ccpsd8wH.s:2171   .debug_str:0000000000000304 .LASF27
     /tmp/ccpsd8wH.s:2119   .debug_str:000000000000016d .LASF29
     /tmp/ccpsd8wH.s:2127   .debug_str:00000000000001a9 .LASF58
     /tmp/ccpsd8wH.s:2097   .debug_str:00000000000000c2 .LASF30
     /tmp/ccpsd8wH.s:2141   .debug_str:000000000000022f .LASF31
     /tmp/ccpsd8wH.s:2161   .debug_str:00000000000002ac .LASF32
     /tmp/ccpsd8wH.s:2189   .debug_str:0000000000000452 .LASF33
     /tmp/ccpsd8wH.s:2129   .debug_str:00000000000001c2 .LASF34
     /tmp/ccpsd8wH.s:2133   .debug_str:00000000000001e8 .LASF59
     /tmp/ccpsd8wH.s:2091   .debug_str:0000000000000087 .LASF60
     /tmp/ccpsd8wH.s:2083   .debug_str:000000000000003e .LASF35
     /tmp/ccpsd8wH.s:2113   .debug_str:000000000000013f .LASF36
     /tmp/ccpsd8wH.s:2125   .debug_str:00000000000001a0 .LASF37
     /tmp/ccpsd8wH.s:2087   .debug_str:0000000000000060 .LASF38
     /tmp/ccpsd8wH.s:2101   .debug_str:00000000000000e1 .LASF39
     /tmp/ccpsd8wH.s:2165   .debug_str:00000000000002c8 .LASF40
     /tmp/ccpsd8wH.s:2187   .debug_str:000000000000043c .LASF42
     /tmp/ccpsd8wH.s:2079   .debug_str:0000000000000032 .LASF43
     /tmp/ccpsd8wH.s:2121   .debug_str:0000000000000187 .LASF44
     /tmp/ccpsd8wH.s:149    .text._ZN5QueueI3TCBE4NodenwEmPS1_:0000000000000000 .LFB39
     /tmp/ccpsd8wH.s:222    .text._ZN5QueueI3TCBE4NodenwEmPS1_:0000000000000070 .LFE39
     /tmp/ccpsd8wH.s:1808   .debug_loc:0000000000000000 .LLST5
     /tmp/ccpsd8wH.s:1844   .debug_loc:000000000000008b .LLST6
     /tmp/ccpsd8wH.s:207    .text._ZN5QueueI3TCBE4NodenwEmPS1_:0000000000000058 .LBB6
     /tmp/ccpsd8wH.s:218    .text._ZN5QueueI3TCBE4NodenwEmPS1_:000000000000006c .LBE6
     /tmp/ccpsd8wH.s:1877   .debug_loc:0000000000000113 .LLST7
     /tmp/ccpsd8wH.s:212    .text._ZN5QueueI3TCBE4NodenwEmPS1_:0000000000000064 .LVL19
     /tmp/ccpsd8wH.s:201    .text._ZN5QueueI3TCBE4NodenwEmPS1_:0000000000000054 .LVL16
     /tmp/ccpsd8wH.s:11     .text._ZN5QueueI3TCBE4NodedlEPv:0000000000000000 .LFB38
     /tmp/ccpsd8wH.s:37     .text._ZN5QueueI3TCBE4NodedlEPv:0000000000000028 .LFE38
     /tmp/ccpsd8wH.s:1890   .debug_loc:000000000000014b .LLST0
     /tmp/ccpsd8wH.s:26     .text._ZN5QueueI3TCBE4NodedlEPv:0000000000000018 .LVL1
     /tmp/ccpsd8wH.s:229    .text._ZN5QueueI3TCBE4pushEPS0_:0000000000000000 .LFB34
     /tmp/ccpsd8wH.s:294    .text._ZN5QueueI3TCBE4pushEPS0_:0000000000000070 .LFE34
     /tmp/ccpsd8wH.s:2157   .debug_str:00000000000002a2 .LASF46
     /tmp/ccpsd8wH.s:1904   .debug_loc:0000000000000184 .LLST8
     /tmp/ccpsd8wH.s:1926   .debug_loc:00000000000001e3 .LLST9
     /tmp/ccpsd8wH.s:2123   .debug_str:000000000000019b .LASF45
     /tmp/ccpsd8wH.s:253    .text._ZN5QueueI3TCBE4pushEPS0_:0000000000000030 .LVL24
     /tmp/ccpsd8wH.s:2153   .debug_str:0000000000000280 .LASF61
     /tmp/ccpsd8wH.s:44     .text._ZN5QueueI3TCBE3popEv:0000000000000000 .LFB33
     /tmp/ccpsd8wH.s:106    .text._ZN5QueueI3TCBE3popEv:0000000000000064 .LFE33
     /tmp/ccpsd8wH.s:1948   .debug_loc:0000000000000242 .LLST1
     /tmp/ccpsd8wH.s:1970   .debug_loc:00000000000002a1 .LLST2
     /tmp/ccpsd8wH.s:1981   .debug_loc:00000000000002d7 .LLST3
GAS LISTING /tmp/ccpsd8wH.s 			page 14


     /tmp/ccpsd8wH.s:79     .text._ZN5QueueI3TCBE3popEv:000000000000003c .LVL6
     /tmp/ccpsd8wH.s:301    .text:000000000000002c .LFB32
     /tmp/ccpsd8wH.s:329    .text:0000000000000058 .LFE32
     /tmp/ccpsd8wH.s:1992   .debug_loc:000000000000030d .LLST10
     /tmp/ccpsd8wH.s:2006   .debug_loc:0000000000000346 .LLST11
     /tmp/ccpsd8wH.s:318    .text:0000000000000048 .LVL31
     /tmp/ccpsd8wH.s:113    .text:0000000000000000 .LFB31
     /tmp/ccpsd8wH.s:142    .text:000000000000002c .LFE31
     /tmp/ccpsd8wH.s:2020   .debug_loc:000000000000037f .LLST4
     /tmp/ccpsd8wH.s:131    .text:000000000000001c .LVL11
     /tmp/ccpsd8wH.s:2093   .debug_str:000000000000009e .LASF47
     /tmp/ccpsd8wH.s:2181   .debug_str:0000000000000413 .LASF49
     /tmp/ccpsd8wH.s:2103   .debug_str:00000000000000e6 .LASF48
     /tmp/ccpsd8wH.s:2155   .debug_str:0000000000000299 .LASF50
     /tmp/ccpsd8wH.s:152    .text._ZN5QueueI3TCBE4NodenwEmPS1_:0000000000000000 .LVL12
     /tmp/ccpsd8wH.s:174    .text._ZN5QueueI3TCBE4NodenwEmPS1_:000000000000002c .LVL13
     /tmp/ccpsd8wH.s:196    .text._ZN5QueueI3TCBE4NodenwEmPS1_:000000000000004c .LVL15
     /tmp/ccpsd8wH.s:204    .text._ZN5QueueI3TCBE4NodenwEmPS1_:0000000000000058 .LVL17
     /tmp/ccpsd8wH.s:210    .text._ZN5QueueI3TCBE4NodenwEmPS1_:000000000000005c .LVL18
     /tmp/ccpsd8wH.s:182    .text._ZN5QueueI3TCBE4NodenwEmPS1_:0000000000000038 .LVL14
     /tmp/ccpsd8wH.s:215    .text._ZN5QueueI3TCBE4NodenwEmPS1_:0000000000000068 .LVL20
     /tmp/ccpsd8wH.s:15     .text._ZN5QueueI3TCBE4NodedlEPv:0000000000000000 .LVL0
     /tmp/ccpsd8wH.s:232    .text._ZN5QueueI3TCBE4pushEPS0_:0000000000000000 .LVL21
     /tmp/ccpsd8wH.s:251    .text._ZN5QueueI3TCBE4pushEPS0_:0000000000000028 .LVL23
     /tmp/ccpsd8wH.s:278    .text._ZN5QueueI3TCBE4pushEPS0_:0000000000000058 .LVL26
     /tmp/ccpsd8wH.s:285    .text._ZN5QueueI3TCBE4pushEPS0_:0000000000000064 .LVL28
     /tmp/ccpsd8wH.s:249    .text._ZN5QueueI3TCBE4pushEPS0_:0000000000000024 .LVL22
     /tmp/ccpsd8wH.s:281    .text._ZN5QueueI3TCBE4pushEPS0_:000000000000005c .LVL27
     /tmp/ccpsd8wH.s:47     .text._ZN5QueueI3TCBE3popEv:0000000000000000 .LVL2
     /tmp/ccpsd8wH.s:61     .text._ZN5QueueI3TCBE3popEv:000000000000001c .LVL3
     /tmp/ccpsd8wH.s:94     .text._ZN5QueueI3TCBE3popEv:0000000000000054 .LVL7
     /tmp/ccpsd8wH.s:64     .text._ZN5QueueI3TCBE3popEv:0000000000000020 .LVL4
     /tmp/ccpsd8wH.s:100    .text._ZN5QueueI3TCBE3popEv:000000000000005c .LVL8
     /tmp/ccpsd8wH.s:67     .text._ZN5QueueI3TCBE3popEv:0000000000000024 .LVL5
     /tmp/ccpsd8wH.s:304    .text:000000000000002c .LVL29
     /tmp/ccpsd8wH.s:316    .text:0000000000000040 .LVL30
     /tmp/ccpsd8wH.s:117    .text:0000000000000000 .LVL9
     /tmp/ccpsd8wH.s:129    .text:0000000000000014 .LVL10
     /tmp/ccpsd8wH.s:336    .debug_info:0000000000000000 .Ldebug_info0
     /tmp/ccpsd8wH.s:5      .text:0000000000000000 .Ltext0
     /tmp/ccpsd8wH.s:331    .text:0000000000000058 .Letext0

UNDEFINED SYMBOLS
_Z8mem_freePv
_Z9mem_allocm
