GAS LISTING /tmp/ccsQNmQm.s 			page 1


   1              		.file	"syscall_c.cpp"
   2              		.option pic
   3              		.option norelax
   4              		.text
   5              	.Ltext0:
   6              		.align	2
   7              		.globl	_Z9mem_allocm
   9              	_Z9mem_allocm:
  10              	.LFB21:
  11              		.file 1 "src/syscall_c.cpp"
   1:src/syscall_c.cpp **** //
   2:src/syscall_c.cpp **** // Created by os on 5/4/24.
   3:src/syscall_c.cpp **** //
   4:src/syscall_c.cpp **** 
   5:src/syscall_c.cpp **** #include "../h/syscall_c.h"
   6:src/syscall_c.cpp **** 
   7:src/syscall_c.cpp **** 
   8:src/syscall_c.cpp **** void* mem_alloc(size_t size) {
  12              		.loc 1 8 30
  13              		.cfi_startproc
  14              	.LVL0:
  15 0000 130101FE 		addi	sp,sp,-32
  16              		.cfi_def_cfa_offset 32
  17 0004 233C8100 		sd	s0,24(sp)
  18              		.cfi_offset 8, -8
  19 0008 13040102 		addi	s0,sp,32
  20              		.cfi_def_cfa 8, 0
   9:src/syscall_c.cpp ****     RiscV::a1W(size);
  21              		.loc 1 9 5
  22              	.LVL1:
  23              	.LBB10:
  24              	.LBB11:
  25              		.file 2 "src/../h/../h/RiscV.h"
   1:src/../h/../h/RiscV.h **** //
   2:src/../h/../h/RiscV.h **** // Created by os on 5/4/24.
   3:src/../h/../h/RiscV.h **** //
   4:src/../h/../h/RiscV.h **** 
   5:src/../h/../h/RiscV.h **** #ifndef PROJEKAT_RISCV_H
   6:src/../h/../h/RiscV.h **** #define PROJEKAT_RISCV_H
   7:src/../h/../h/RiscV.h **** 
   8:src/../h/../h/RiscV.h **** #include "../lib/hw.h"
   9:src/../h/../h/RiscV.h **** 
  10:src/../h/../h/RiscV.h **** class RiscV {
  11:src/../h/../h/RiscV.h **** public:
  12:src/../h/../h/RiscV.h ****     static void popSppSpie();
  13:src/../h/../h/RiscV.h ****     static void setStvecTable(){}
  14:src/../h/../h/RiscV.h **** 
  15:src/../h/../h/RiscV.h ****     enum CodeOps{
  16:src/../h/../h/RiscV.h ****         MEM_ALOC = 0x01,
  17:src/../h/../h/RiscV.h ****         MEM_FREE = 0x02
  18:src/../h/../h/RiscV.h ****     };
  19:src/../h/../h/RiscV.h **** 
  20:src/../h/../h/RiscV.h ****     enum BitMaskSStatus {
  21:src/../h/../h/RiscV.h ****         SSTATUS_SIE = 1 << 1,
  22:src/../h/../h/RiscV.h ****         SSTATUS_SPIE = 1 << 5,
  23:src/../h/../h/RiscV.h ****         SSTATUS_SPP = 1 << 8
  24:src/../h/../h/RiscV.h ****     };
GAS LISTING /tmp/ccsQNmQm.s 			page 2


  25:src/../h/../h/RiscV.h **** 
  26:src/../h/../h/RiscV.h ****     enum BitMaskSip {
  27:src/../h/../h/RiscV.h ****         SIP_SSIP = 1 << 1,
  28:src/../h/../h/RiscV.h ****         SIP_SEIP = 1 << 9
  29:src/../h/../h/RiscV.h ****     };
  30:src/../h/../h/RiscV.h **** 
  31:src/../h/../h/RiscV.h ****     static uint64 scauseR();
  32:src/../h/../h/RiscV.h ****     static void scauseW(uint64 scause);
  33:src/../h/../h/RiscV.h **** 
  34:src/../h/../h/RiscV.h ****     static uint64 sepcR();
  35:src/../h/../h/RiscV.h ****     static void sepcW(uint64);
  36:src/../h/../h/RiscV.h **** 
  37:src/../h/../h/RiscV.h ****     static uint64 stvecR();
  38:src/../h/../h/RiscV.h ****     static void stvecW(uint64 stvec);
  39:src/../h/../h/RiscV.h **** 
  40:src/../h/../h/RiscV.h ****     static uint64 stvalR();
  41:src/../h/../h/RiscV.h ****     static void stvalW(uint64 stval);
  42:src/../h/../h/RiscV.h **** 
  43:src/../h/../h/RiscV.h ****     static uint64 a0R();
  44:src/../h/../h/RiscV.h ****     static void a0W(uint64 val);
  45:src/../h/../h/RiscV.h ****     static uint64 a1R();
  46:src/../h/../h/RiscV.h ****     static void a1W(uint64 val);
  47:src/../h/../h/RiscV.h **** 
  48:src/../h/../h/RiscV.h **** 
  49:src/../h/../h/RiscV.h **** 
  50:src/../h/../h/RiscV.h ****     static uint64 sstatusR();
  51:src/../h/../h/RiscV.h ****     static void sstatusW(uint64 sstatus);
  52:src/../h/../h/RiscV.h **** 
  53:src/../h/../h/RiscV.h ****     static void ms_sstatus(BitMaskSStatus mask);
  54:src/../h/../h/RiscV.h ****     static void mc_sstatus(BitMaskSStatus mask);
  55:src/../h/../h/RiscV.h **** 
  56:src/../h/../h/RiscV.h **** 
  57:src/../h/../h/RiscV.h ****     static uint64 sipR();
  58:src/../h/../h/RiscV.h ****     static void sipW(uint64);
  59:src/../h/../h/RiscV.h **** 
  60:src/../h/../h/RiscV.h ****     static void ms_sip(BitMaskSip mask);
  61:src/../h/../h/RiscV.h ****     static void mc_sip(BitMaskSip mask);
  62:src/../h/../h/RiscV.h **** };
  63:src/../h/../h/RiscV.h **** 
  64:src/../h/../h/RiscV.h **** inline uint64 RiscV::scauseR() {
  65:src/../h/../h/RiscV.h ****     uint64 volatile scause;
  66:src/../h/../h/RiscV.h ****     __asm__ volatile ("csrr %[scause], scause" : [scause] "=r"(scause));
  67:src/../h/../h/RiscV.h ****     return scause;
  68:src/../h/../h/RiscV.h **** }
  69:src/../h/../h/RiscV.h **** 
  70:src/../h/../h/RiscV.h **** inline void RiscV::scauseW(uint64 scause) {
  71:src/../h/../h/RiscV.h ****     __asm__ volatile ("csrw scause, %[scause]" : : [scause] "r"(scause));
  72:src/../h/../h/RiscV.h **** }
  73:src/../h/../h/RiscV.h **** 
  74:src/../h/../h/RiscV.h **** inline uint64 RiscV::sepcR() {
  75:src/../h/../h/RiscV.h ****     uint64 volatile sepc;
  76:src/../h/../h/RiscV.h ****     __asm__ volatile ("csrr %[sepc], sepc" : [sepc] "=r"(sepc));
  77:src/../h/../h/RiscV.h ****     return sepc;
  78:src/../h/../h/RiscV.h **** }
  79:src/../h/../h/RiscV.h **** 
  80:src/../h/../h/RiscV.h **** inline void RiscV::sepcW(uint64 sepc) {
  81:src/../h/../h/RiscV.h ****     __asm__ volatile ("csrw sepc, %[sepc]" : : [sepc] "r"(sepc));
GAS LISTING /tmp/ccsQNmQm.s 			page 3


  82:src/../h/../h/RiscV.h **** }
  83:src/../h/../h/RiscV.h **** 
  84:src/../h/../h/RiscV.h **** inline uint64 RiscV::stvecR() {
  85:src/../h/../h/RiscV.h ****     uint64 volatile stvec;
  86:src/../h/../h/RiscV.h ****     __asm__ volatile ("csrr %[stvec], stvec" : [stvec] "=r"(stvec));
  87:src/../h/../h/RiscV.h ****     return stvec;
  88:src/../h/../h/RiscV.h **** }
  89:src/../h/../h/RiscV.h **** 
  90:src/../h/../h/RiscV.h **** inline void RiscV::stvecW(uint64 stvec) {
  91:src/../h/../h/RiscV.h ****     __asm__ volatile ("csrw stvec, %[stvec]" : : [stvec] "r"(stvec));
  92:src/../h/../h/RiscV.h **** }
  93:src/../h/../h/RiscV.h **** 
  94:src/../h/../h/RiscV.h **** inline uint64 RiscV::stvalR() {
  95:src/../h/../h/RiscV.h ****     uint64 volatile stval;
  96:src/../h/../h/RiscV.h ****     __asm__ volatile ("csrr %[stval], stval" : [stval] "=r"(stval));
  97:src/../h/../h/RiscV.h ****     return stval;
  98:src/../h/../h/RiscV.h **** }
  99:src/../h/../h/RiscV.h **** 
 100:src/../h/../h/RiscV.h **** inline void RiscV::stvalW(uint64 stval) {
 101:src/../h/../h/RiscV.h ****     __asm__ volatile ("csrw stval, %[stval]" : : [stval] "r"(stval));
 102:src/../h/../h/RiscV.h **** }
 103:src/../h/../h/RiscV.h **** 
 104:src/../h/../h/RiscV.h **** inline uint64 RiscV::a0R() {
 105:src/../h/../h/RiscV.h ****     uint64 volatile a0;
 106:src/../h/../h/RiscV.h ****     __asm__ volatile ("mv %0, a0" : "=r"(a0));
 107:src/../h/../h/RiscV.h ****     return a0;
 108:src/../h/../h/RiscV.h **** }
 109:src/../h/../h/RiscV.h **** 
 110:src/../h/../h/RiscV.h **** inline void RiscV::a0W(uint64 val) {
 111:src/../h/../h/RiscV.h ****     __asm__ volatile ("mv a0, %0" : : "r"(val));
 112:src/../h/../h/RiscV.h **** }
 113:src/../h/../h/RiscV.h **** 
 114:src/../h/../h/RiscV.h **** inline uint64 RiscV::a1R() {
 115:src/../h/../h/RiscV.h ****     uint64 volatile a1;
 116:src/../h/../h/RiscV.h ****     __asm__ volatile ("mv %0, a1" : "=r"(a1));
 117:src/../h/../h/RiscV.h ****     return a1;
 118:src/../h/../h/RiscV.h **** }
 119:src/../h/../h/RiscV.h **** 
 120:src/../h/../h/RiscV.h **** inline void RiscV::a1W(uint64 val) {
 121:src/../h/../h/RiscV.h ****     __asm__ volatile ("mv a1, %0" : : "r"(val));
  26              		.loc 2 121 5
  27              		.loc 2 121 48 is_stmt 0
  28              	#APP
  29              	# 121 "src/../h/../h/RiscV.h" 1
 122              	}
  30              		mv a1, a0
  31              	# 0 "" 2
  32              	.LVL2:
  33              	#NO_APP
  34              	.LBE11:
  35              	.LBE10:
  10:src/syscall_c.cpp ****     RiscV::a0W(RiscV::CodeOps::MEM_ALOC);
  36              		.loc 1 10 5 is_stmt 1
  37              	.LBB12:
  38              	.LBB13:
 111:src/../h/../h/RiscV.h **** }
  39              		.loc 2 111 5
GAS LISTING /tmp/ccsQNmQm.s 			page 4


 111:src/../h/../h/RiscV.h **** }
  40              		.loc 2 111 48 is_stmt 0
  41 0010 93071000 		li	a5,1
  42              	#APP
  43              	# 111 "src/../h/../h/RiscV.h" 1
  44              		mv a0, a5
  45              	# 0 "" 2
  46              	.LVL3:
  47              	#NO_APP
  48              	.LBE13:
  49              	.LBE12:
  11:src/syscall_c.cpp **** 
  12:src/syscall_c.cpp ****     __asm__ volatile ("ecall");
  50              		.loc 1 12 5 is_stmt 1
  51              		.loc 1 12 31 is_stmt 0
  52              	#APP
  53              	# 12 "src/syscall_c.cpp" 1
  13              	
  14:src/syscall_c.cpp ****     uint64 volatile retVal;
  54              		ecall
  55              	# 0 "" 2
  56              		.loc 1 14 5 is_stmt 1
  15:src/syscall_c.cpp ****     __asm__ volatile ("mv %0, a0" : "=r"(retVal));
  57              		.loc 1 15 5
  58              		.loc 1 15 50 is_stmt 0
  59              	# 15 "src/syscall_c.cpp" 1
  16              	    return (void*) retVal;
  60              		mv a5, a0
  61              	# 0 "" 2
  62              	#NO_APP
  63 0020 2334F4FE 		sd	a5,-24(s0)
  64              		.loc 1 16 5 is_stmt 1
  65              		.loc 1 16 20 is_stmt 0
  66 0024 033584FE 		ld	a0,-24(s0)
  67              	.LVL4:
  17:src/syscall_c.cpp **** }
  68              		.loc 1 17 1
  69 0028 03348101 		ld	s0,24(sp)
  70              		.cfi_restore 8
  71              		.cfi_def_cfa 2, 32
  72 002c 13010102 		addi	sp,sp,32
  73              		.cfi_def_cfa_offset 0
  74 0030 67800000 		jr	ra
  75              		.cfi_endproc
  76              	.LFE21:
  78              		.align	2
  79              		.globl	_Z8mem_freePv
  81              	_Z8mem_freePv:
  82              	.LFB22:
  18:src/syscall_c.cpp **** 
  19:src/syscall_c.cpp **** 
  20:src/syscall_c.cpp **** int mem_free(void* ptr){
  83              		.loc 1 20 24 is_stmt 1
  84              		.cfi_startproc
  85              	.LVL5:
  86 0034 130101FF 		addi	sp,sp,-16
  87              		.cfi_def_cfa_offset 16
GAS LISTING /tmp/ccsQNmQm.s 			page 5


  88 0038 23348100 		sd	s0,8(sp)
  89              		.cfi_offset 8, -8
  90 003c 13040101 		addi	s0,sp,16
  91              		.cfi_def_cfa 8, 0
  21:src/syscall_c.cpp ****     RiscV::a1W((uint64)ptr);
  92              		.loc 1 21 5
  93              	.LVL6:
  94              	.LBB14:
  95              	.LBB15:
 121:src/../h/../h/RiscV.h **** }
  96              		.loc 2 121 5
 121:src/../h/../h/RiscV.h **** }
  97              		.loc 2 121 48 is_stmt 0
  98              	#APP
  99              	# 121 "src/../h/../h/RiscV.h" 1
 100              		mv a1, a0
 101              	# 0 "" 2
 102              	.LVL7:
 103              	#NO_APP
 104              	.LBE15:
 105              	.LBE14:
  22:src/syscall_c.cpp ****     RiscV::a0W(RiscV::CodeOps::MEM_FREE);
 106              		.loc 1 22 5 is_stmt 1
 107              	.LBB16:
 108              	.LBB17:
 111:src/../h/../h/RiscV.h **** }
 109              		.loc 2 111 5
 111:src/../h/../h/RiscV.h **** }
 110              		.loc 2 111 48 is_stmt 0
 111 0044 93072000 		li	a5,2
 112              	#APP
 113              	# 111 "src/../h/../h/RiscV.h" 1
 114              		mv a0, a5
 115              	# 0 "" 2
 116              	.LVL8:
 117              	#NO_APP
 118              	.LBE17:
 119              	.LBE16:
  23:src/syscall_c.cpp **** 
  24:src/syscall_c.cpp ****     __asm__ volatile ("ecall");
 120              		.loc 1 24 5 is_stmt 1
 121              		.loc 1 24 31 is_stmt 0
 122              	#APP
 123              	# 24 "src/syscall_c.cpp" 1
  25              	
  26:src/syscall_c.cpp ****     uint64 retVal;
 124              		ecall
 125              	# 0 "" 2
 126              		.loc 1 26 5 is_stmt 1
  27:src/syscall_c.cpp ****     __asm__ volatile ("mv %0, a0" : "=r"(retVal));
 127              		.loc 1 27 5
 128              		.loc 1 27 50 is_stmt 0
 129              	# 27 "src/syscall_c.cpp" 1
  28              	    return (int) retVal;
 130              		mv a0, a0
 131              	# 0 "" 2
 132              	.LVL9:
GAS LISTING /tmp/ccsQNmQm.s 			page 6


 133              		.loc 1 28 5 is_stmt 1
  29:src/syscall_c.cpp **** }...
 134              		.loc 1 29 1 is_stmt 0
 135              	#NO_APP
 136 0054 1B050500 		sext.w	a0,a0
 137              	.LVL10:
 138 0058 03348100 		ld	s0,8(sp)
 139              		.cfi_restore 8
 140              		.cfi_def_cfa 2, 16
 141 005c 13010101 		addi	sp,sp,16
 142              		.cfi_def_cfa_offset 0
 143 0060 67800000 		jr	ra
 144              		.cfi_endproc
 145              	.LFE22:
 147              	.Letext0:
 148              		.file 3 "src/../h/../lib/hw.h"
GAS LISTING /tmp/ccsQNmQm.s 			page 7

